
Dekrispator_v2.elf:     file format elf32-littlearm
Dekrispator_v2.elf
architecture: armv7e-m, flags 0x00000112:
EXEC_P, HAS_SYMS, D_PAGED
start address 0x0800741d

Program Header:
    LOAD off    0x00010000 vaddr 0x08000000 paddr 0x08000000 align 2**16
         filesz 0x00008fdc memsz 0x00008fdc flags rwx
    LOAD off    0x00020000 vaddr 0x20000000 paddr 0x08008fdc align 2**16
         filesz 0x00000590 memsz 0x00000590 flags rw-
    LOAD off    0x00000000 vaddr 0x10000000 paddr 0x10000000 align 2**16
         filesz 0x00000000 memsz 0x00002000 flags rw-
    LOAD off    0x00000590 vaddr 0x20000590 paddr 0x20000590 align 2**16
         filesz 0x00000000 memsz 0x00002cd8 flags rw-
private flags = 0x5000400: [Version5 EABI] [hard-float ABI]

Sections:
Idx Name              Size      VMA       LMA       File off  Algn  Flags
  0 .isr_vector       00000188  08000000  08000000  00010000  2**0  CONTENTS, ALLOC, LOAD, READONLY, DATA
  1 .text             00008a48  08000188  08000188  00010188  2**2  CONTENTS, ALLOC, LOAD, READONLY, CODE
  2 .rodata           00000400  08008bd0  08008bd0  00018bd0  2**2  CONTENTS, ALLOC, LOAD, READONLY, DATA
  3 .init_array       00000008  08008fd0  08008fd0  00018fd0  2**2  CONTENTS, ALLOC, LOAD, DATA
  4 .fini_array       00000004  08008fd8  08008fd8  00018fd8  2**2  CONTENTS, ALLOC, LOAD, DATA
  5 .data             00000590  20000000  08008fdc  00020000  2**3  CONTENTS, ALLOC, LOAD, DATA
  6 .ccmram           00000000  10000000  10000000  00020590  2**0  CONTENTS
  7 .bss              00002cd8  20000590  20000590  00020590  2**2  ALLOC
  8 ._user_heap_stack 00002000  10000000  10000000  00030000  2**0  ALLOC
  9 .ARM.attributes   00000030  00000000  00000000  00020590  2**0  CONTENTS, READONLY
 10 .comment          00000033  00000000  00000000  000205c0  2**0  CONTENTS, READONLY
 11 .debug_info       00008b1d  00000000  00000000  000205f3  2**0  CONTENTS, READONLY, DEBUGGING, OCTETS
 12 .debug_abbrev     00002c2e  00000000  00000000  00029110  2**0  CONTENTS, READONLY, DEBUGGING, OCTETS
 13 .debug_loclists   00002c89  00000000  00000000  0002bd3e  2**0  CONTENTS, READONLY, DEBUGGING, OCTETS
 14 .debug_aranges    000003d8  00000000  00000000  0002e9c7  2**0  CONTENTS, READONLY, DEBUGGING, OCTETS
 15 .debug_rnglists   00000426  00000000  00000000  0002ed9f  2**0  CONTENTS, READONLY, DEBUGGING, OCTETS
 16 .debug_line       000050fc  00000000  00000000  0002f1c5  2**0  CONTENTS, READONLY, DEBUGGING, OCTETS
 17 .debug_str        00001978  00000000  00000000  000342c1  2**0  CONTENTS, READONLY, DEBUGGING, OCTETS
 18 .debug_frame      000006ec  00000000  00000000  00035c3c  2**2  CONTENTS, READONLY, DEBUGGING, OCTETS
SYMBOL TABLE:
08000000 l    d  .isr_vector	00000000 .isr_vector
08000188 l    d  .text	00000000 .text
08008bd0 l    d  .rodata	00000000 .rodata
08008fd0 l    d  .init_array	00000000 .init_array
08008fd8 l    d  .fini_array	00000000 .fini_array
20000000 l    d  .data	00000000 .data
10000000 l    d  .ccmram	00000000 .ccmram
20000590 l    d  .bss	00000000 .bss
10000000 l    d  ._user_heap_stack	00000000 ._user_heap_stack
00000000 l    d  .ARM.attributes	00000000 .ARM.attributes
00000000 l    d  .comment	00000000 .comment
00000000 l    d  .debug_info	00000000 .debug_info
00000000 l    d  .debug_abbrev	00000000 .debug_abbrev
00000000 l    d  .debug_loclists	00000000 .debug_loclists
00000000 l    d  .debug_aranges	00000000 .debug_aranges
00000000 l    d  .debug_rnglists	00000000 .debug_rnglists
00000000 l    d  .debug_line	00000000 .debug_line
00000000 l    d  .debug_str	00000000 .debug_str
00000000 l    d  .debug_frame	00000000 .debug_frame
00000000 l    df *ABS*	00000000 startup_stm32f407xx.o
0800742c l       .text	00000000 LoopCopyDataInit
08007424 l       .text	00000000 CopyDataInit
08007440 l       .text	00000000 LoopFillZerobss
0800743a l       .text	00000000 FillZerobss
0800746c l       .text	00000000 Infinite_Loop
00000000 l    df *ABS*	00000000 crtstuff.c
08008bb8 l     O .text	00000000 __EH_FRAME_BEGIN__
08000188 l     F .text	00000000 deregister_tm_clones
080001a4 l     F .text	00000000 register_tm_clones
080001c8 l     F .text	00000000 __do_global_dtors_aux
20000590 l     O .bss	00000000 completed.1
08008fd8 l     O .fini_array	00000000 __do_global_dtors_aux_fini_array_entry
080001f0 l     F .text	00000000 frame_dummy
20000594 l     O .bss	00000000 object.0
08008fd4 l     O .init_array	00000000 __frame_dummy_init_array_entry
00000000 l    df *ABS*	00000000 
08000214 l     F .text	00000280 USB_HC_StartXfer
080006a8 l     F .text	00000080 USB_DoPing
0800296c l     F .text	00000030 USB_WritePacket
08000494 l     F .text	0000001e USB_HC_ReadInterrupt
080004b4 l     F .text	000001f4 USB_HC_Halt
08000728 l     F .text	00000108 USB_StopHost
08002918 l     F .text	0000000e USB_DisableGlobalInt
08002928 l     F .text	00000024 USB_FlushTxFifo
0800294c l     F .text	00000020 USB_FlushRxFifo
08002908 l     F .text	0000000e USB_EnableGlobalInt
08000830 l     F .text	0000000e USBH_MIDI_ClassRequest
08000840 l     F .text	00000004 USBH_MIDI_SOFProcess
08000844 l     F .text	0000001c HAL_Delay
08000860 l     F .text	00001d44 HAL_DMA_IRQHandler
080025a4 l     F .text	0000028c HAL_GPIO_Init
08002830 l     F .text	0000002c I2S_DMAError
0800285c l     F .text	000000ac HAL_RCC_GetHCLKFreq
0800299c l     F .text	00000004 cs43l22_SetFrequency
080029a0 l     F .text	00000310 BSP_LED_Init
08002cb0 l     F .text	0000005c HAL_NVIC_SetPriority.constprop.0
08002d0c l     F .text	000001a0 I2Cx_Init.part.0
08002eac l     F .text	00000078 AUDIO_IO_Init
08002f24 l     F .text	000000ea USBH_LL_OpenPipe.isra.0
08003010 l     F .text	00000060 USBH_UserProcess_callback
08003070 l     F .text	00000044 HAL_InitTick.constprop.0.isra.0
080030b4 l     F .text	0000002c USB_CoreReset.isra.0
080030e0 l     F .text	0000055c USBH_MIDI_InterfaceInit
0800363c l     F .text	000001c0 cs43l22_ReadID
080037fc l     F .text	000000a0 HAL_I2C_Mem_Write.part.0.constprop.0
0800389c l     F .text	00000220 cs43l22_Play
08003abc l     F .text	00000210 cs43l22_Pause
08003ccc l     F .text	0000032e cs43l22_Resume
08003ffc l     F .text	00000218 cs43l22_Stop
08004214 l     F .text	00000108 I2Cx_WriteData
0800431c l     F .text	00000248 cs43l22_SetVolume
08004564 l     F .text	000000fc cs43l22_Init
08004660 l     F .text	000001a4 cs43l22_SetMute
08004804 l     F .text	00000178 cs43l22_SetOutputMode
0800497c l     F .text	0000019c computemydsp.constprop.0
08004b18 l     F .text	000000dc I2S_DMATxCplt
08004bf4 l     F .text	00000084 I2S_DMATxHalfCplt
08004c78 l     F .text	00000002 BSP_AUDIO_OUT_Error_CallBack
08004c7c l     F .text	00000002 HAL_MspInit
08004c80 l     F .text	000000a8 USBH_MIDI_InterfaceDeInit
08004d28 l     F .text	00000084 USBH_CtlSendData.constprop.0.isra.0
08004dac l     F .text	00000286 USBH_CtlReq.part.0
08005034 l     F .text	000003d0 USBH_MIDI_Process
08005404 l     F .text	00000078 USBH_Get_StringDesc.constprop.0
0800547c l     F .text	000000a0 USBH_Get_DevDesc.constprop.0
200005ac l     O .bss	00000001 Appli_state
200005ad l     O .bss	00000001 DebouncedKeyPress
200005b0 l     O .bss	00000038 I2cHandle
200005e8 l     O .bss	00000010 LED_counter
200005f8 l     O .bss	00000040 MIDI_RX_Buffer
20000638 l     O .bss	00000001 OutputDev
2000063c l     O .bss	00000008 RngHandle
20000644 l     O .bss	00000004 TimingDelay
20000648 l     O .bss	00000004 TimingDelay1
2000064c l     O .bss	00000fa0 audiobuff
200015ec l     O .bss	00000001 currentNote
200015f0 l     O .bss	00000004 dsp
200015f4 l     O .bss	00000040 hAudioOutI2s
20001634 l     O .bss	00000290 hHCD
200018c4 l     O .bss	00000618 hUSBHost
20001edc l     O .bss	00000050 hdma_i2sTx.1
20001f2c l     O .bss	00000001 notesCount
20001f30 l     O .bss	00000080 notes_On
20001fb0 l     O .bss	000007d0 output0
20002780 l     O .bss	000007d0 output1
20002f50 l     O .bss	00000004 pAudioDrv
20002f54 l     O .bss	00000004 uwTick
20000000 l     O .data	00000001 Count
20000001 l     O .data	00000001 Is_cs43l22_Stop
20000004 l     O .data	00000020 MIDI_Class
20000024 l     O .data	0000002c cs43l22_drv
20000050 l     O .data	00000008 output
08008bd8 l     O .rodata	00000010 APBAHBPrescTable
08008be8 l     O .rodata	00000008 GPIO_PIN
08008bf0 l     O .rodata	00000010 GPIO_PORT
00000000 l    df *ABS*	00000000 sf_tan.c
00000000 l    df *ABS*	00000000 kf_tan.c
00000000 l    df *ABS*	00000000 ef_rem_pio2.c
08008c00 l     O .rodata	00000080 npio2_hw
08008c80 l     O .rodata	00000318 two_over_pi
00000000 l    df *ABS*	00000000 sf_fabs.c
00000000 l    df *ABS*	00000000 kf_rem_pio2.c
08008f98 l     O .rodata	0000002c PIo2
08008fc4 l     O .rodata	0000000c init_jk
00000000 l    df *ABS*	00000000 sf_floor.c
00000000 l    df *ABS*	00000000 sf_scalbn.c
00000000 l    df *ABS*	00000000 rand.c
00000000 l    df *ABS*	00000000 memset.c
00000000 l    df *ABS*	00000000 init.c
00000000 l    df *ABS*	00000000 lock.c
00000000 l    df *ABS*	00000000 __call_atexit.c
080081c8 l     F .text	00000014 register_fini
00000000 l    df *ABS*	00000000 atexit.c
00000000 l    df *ABS*	00000000 mallocr.c
00000000 l    df *ABS*	00000000 mlock.c
00000000 l    df *ABS*	00000000 sbrkr.c
00000000 l    df *ABS*	00000000 fini.c
00000000 l    df *ABS*	00000000 __atexit.c
00000000 l    df *ABS*	00000000 freer.c
00000000 l    df *ABS*	00000000 calloc.c
00000000 l    df *ABS*	00000000 callocr.c
00000000 l    df *ABS*	00000000 malloc.c
00000000 l    df *ABS*	00000000 errno.c
00000000 l    df *ABS*	00000000 sbrk.c
20003264 l     O .bss	00000004 heap_end.0
00000000 l    df *ABS*	00000000 crti.o
00000000 l    df *ABS*	00000000 crtn.o
00000000 l    df *ABS*	00000000 impure.c
00000000 l    df *ABS*	00000000 findfp.c
00000000 l    df *ABS*	00000000 reent.c
00000000 l    df *ABS*	00000000 
08008fdc l       .fini_array	00000000 __fini_array_end
08008fd8 l       .fini_array	00000000 __fini_array_start
08008fd8 l       .init_array	00000000 __init_array_end
08008fd0 l       .init_array	00000000 __preinit_array_end
08008fd0 l       .init_array	00000000 __init_array_start
08008fd0 l       .init_array	00000000 __preinit_array_start
0800746c  w    F .text	00000002 RTC_Alarm_IRQHandler
0800746c  w    F .text	00000002 HASH_RNG_IRQHandler
0800746c  w    F .text	00000002 EXTI2_IRQHandler
0800746c  w    F .text	00000002 TIM8_CC_IRQHandler
080069bc g     F .text	00000002 DebugMon_Handler
20003090 g     O .bss	00000001 __lock___atexit_recursive_mutex
0800746c  w    F .text	00000002 TIM1_CC_IRQHandler
0800746c  w    F .text	00000002 DMA2_Stream5_IRQHandler
08004c78 g     F .text	00000002 HardFault_Handler
0800746c  w    F .text	00000002 DMA1_Stream5_IRQHandler
08008754 g     F .text	0000000c __malloc_unlock
00001000 g       *ABS*	00000000 _Min_Stack_Size
080069c4 g     F .text	00000078 SysTick_Handler
0800746c  w    F .text	00000002 PVD_IRQHandler
0800746c  w    F .text	00000002 SDIO_IRQHandler
0800746c  w    F .text	00000002 TAMP_STAMP_IRQHandler
08008fdc g       *ABS*	00000000 _sidata
080069c0 g     F .text	00000002 PendSV_Handler
08004c7c g     F .text	00000002 NMI_Handler
08008fd0 g       .init_array	00000000 __exidx_end
0800746c  w    F .text	00000002 CAN2_RX1_IRQHandler
0800746c  w    F .text	00000002 EXTI3_IRQHandler
2000017c g     O .data	00000004 __atexit_recursive_mutex
08008b90 g     F .text	0000000c __errno
08007684 g     F .text	00000260 __ieee754_rem_pio2f
0800746c  w    F .text	00000002 TIM8_TRG_COM_TIM14_IRQHandler
0800746c  w    F .text	00000002 TIM1_UP_TIM10_IRQHandler
200030d0 g     O .bss	00000004 errno
08008bd0 g       .text	00000000 _etext
20000590 g       .bss	00000000 _sbss
0800746c  w    F .text	00000002 TIM8_UP_TIM13_IRQHandler
0800746c  w    F .text	00000002 I2C3_ER_IRQHandler
20000590 g     O .data	00000000 .hidden __TMC_END__
08006a3c g     F .text	00000014 EXTI0_IRQHandler
0800746c  w    F .text	00000002 I2C2_EV_IRQHandler
0800746c  w    F .text	00000002 DMA1_Stream2_IRQHandler
0800746c  w    F .text	00000002 CAN1_RX0_IRQHandler
0800746c  w    F .text	00000002 FPU_IRQHandler
0800746c  w    F .text	00000002 OTG_HS_WKUP_IRQHandler
08008b70 g     F .text	00000010 malloc
080069b4 g     F .text	00000002 UsageFault_Handler
0800746c  w    F .text	00000002 CAN2_SCE_IRQHandler
200030cc g     O .bss	00000004 __malloc_top_pad
0800746c  w    F .text	00000002 DMA2_Stream2_IRQHandler
20000590 g       .bss	00000000 __bss_start__
20000000 g       .data	00000000 _sdata
0800746c  w    F .text	00000002 SPI1_IRQHandler
08008760 g     F .text	00000024 _sbrk_r
0800746c  w    F .text	00000002 TIM6_DAC_IRQHandler
080078e4 g     F .text	0000000e fabsf
0800746c  w    F .text	00000002 TIM1_BRK_TIM9_IRQHandler
0800746c  w    F .text	00000002 DCMI_IRQHandler
0800746c  w    F .text	00000002 CAN2_RX0_IRQHandler
200030c4 g     O .bss	00000004 __malloc_max_sbrked_mem
08008fd0 g       .init_array	00000000 __exidx_start
0800746c  w    F .text	00000002 DMA2_Stream3_IRQHandler
08008178 g     F .text	00000048 __libc_init_array
08008b9c g     F .text	0000001c _sbrk
0800746c  w    F .text	00000002 USART6_IRQHandler
08008bb8 g     F .text	00000000 _init
0800746c  w    F .text	00000002 USART3_IRQHandler
08008784 g     F .text	00000028 __libc_fini_array
20003268 g       .bss	00000000 _ebss
0800741c  w    F .text	00000038 Reset_Handler
0800746c  w    F .text	00000002 CAN1_RX1_IRQHandler
08008ae0 g     F .text	00000018 calloc
0800746c  w    F .text	00000002 UART5_IRQHandler
20003094 g     O .bss	00000001 __lock___malloc_recursive_mutex
0800746c  w    F .text	00000002 DMA2_Stream0_IRQHandler
20002f58 g     O .bss	00000138 __sf
08006a78 g     F .text	00000002 TIM4_IRQHandler
10000000 g       ._user_heap_stack	00000000 end
0800746c  w    F .text	00000002 I2C1_EV_IRQHandler
080081c4 g     F .text	00000002 __retarget_lock_release_recursive
0800746c  w    F .text	00000002 DMA1_Stream6_IRQHandler
0800746c  w    F .text	00000002 DMA1_Stream1_IRQHandler
0800746c  w    F .text	00000002 UART4_IRQHandler
20003268 g       .bss	00000000 __bss_end__
080088d4 g     F .text	0000020c _free_r
0800746c  w    F .text	00000002 TIM3_IRQHandler
0800746c  w    F .text	00000002 RCC_IRQHandler
0800746c  w    F .text	00000002 TIM8_BRK_TIM12_IRQHandler
200030d4 g     O .bss	00000190 __atexit0
00001000 g       *ABS*	00000000 _Min_Heap_Size
0800746c g       .text	00000002 Default_Handler
20000588 g     O .data	00000004 __malloc_sbrk_base
0800746c  w    F .text	00000002 EXTI15_10_IRQHandler
080087ac g     F .text	00000088 __register_exitproc
0800746c  w    F .text	00000002 ADC_IRQHandler
2000309c g     O .bss	00000028 __malloc_current_mallinfo
08006a64 g     F .text	0000000c DMA1_Stream7_IRQHandler
0800746c  w    F .text	00000002 TIM7_IRQHandler
0800746c  w    F .text	00000002 CAN2_TX_IRQHandler
0800746c  w    F .text	00000002 TIM5_IRQHandler
0800746c  w    F .text	00000002 DMA2_Stream7_IRQHandler
0800746c  w    F .text	00000002 I2C3_EV_IRQHandler
0800746c  w    F .text	00000002 EXTI9_5_IRQHandler
0800746c  w    F .text	00000002 RTC_WKUP_IRQHandler
20000180 g     O .data	00000408 __malloc_av_
20003098 g     O .bss	00000004 __atexit
0800746c  w    F .text	00000002 ETH_WKUP_IRQHandler
08008748 g     F .text	0000000c __malloc_lock
08007fdc g     F .text	000000e8 scalbnf
08008af8 g     F .text	00000078 _calloc_r
0800746c  w    F .text	00000002 SPI2_IRQHandler
080081c0 g     F .text	00000002 __retarget_lock_acquire_recursive
0800746c  w    F .text	00000002 OTG_HS_EP1_IN_IRQHandler
080080d4 g     F .text	000000a4 memset
080069ac g     F .text	00000002 MemManage_Handler
0800551c g     F .text	00001490 main
200030c8 g     O .bss	00000004 __malloc_max_total_mem
0800746c  w    F .text	00000002 DMA1_Stream0_IRQHandler
080080c4 g     F .text	00000010 srand
0800956c g       *ABS*	00000000 _siccmram
0800746c  w    F .text	00000002 CAN1_TX_IRQHandler
080069b8 g     F .text	00000002 SVC_Handler
080081e8 g     F .text	00000560 _malloc_r
080074c4 g     F .text	000001c0 __kernel_tanf
0800746c  w    F .text	00000002 EXTI4_IRQHandler
08008834 g     F .text	000000a0 _malloc_trim_r
080073cc g     F .text	00000050 SystemInit
08008bc4 g     F .text	00000000 _fini
080081dc g     F .text	0000000c atexit
10000000 g       .ccmram	00000000 _eccmram
0800746c  w    F .text	00000002 FSMC_IRQHandler
0800746c  w    F .text	00000002 ETH_IRQHandler
20000178 g     O .data	00000004 _impure_ptr
0800746c  w    F .text	00000002 OTG_HS_EP1_OUT_IRQHandler
0800746c  w    F .text	00000002 WWDG_IRQHandler
0800746c  w    F .text	00000002 TIM2_IRQHandler
0800746c  w    F .text	00000002 OTG_FS_WKUP_IRQHandler
0800746c  w    F .text	00000002 TIM1_TRG_COM_TIM11_IRQHandler
0800746c  w    F .text	00000002 OTG_HS_IRQHandler
2001ffff g       *ABS*	00000000 _estack
08007470 g     F .text	00000054 tanf
08006a50 g     F .text	00000014 EXTI1_IRQHandler
20000590 g       .data	00000000 _edata
10000000 g       .ccmram	00000000 _sccmram
0800746c  w    F .text	00000002 USART2_IRQHandler
2000058c g     O .data	00000004 __malloc_trim_threshold
08000000 g     O .isr_vector	00000000 g_pfnVectors
20000058 g     O .data	00000120 _impure_data
0800746c  w    F .text	00000002 I2C2_ER_IRQHandler
0800746c  w    F .text	00000002 DMA2_Stream1_IRQHandler
0800746c  w    F .text	00000002 CAN1_SCE_IRQHandler
0800746c  w    F .text	00000002 FLASH_IRQHandler
080078f4 g     F .text	00000658 __kernel_rem_pio2f
0800746c  w    F .text	00000002 DMA2_Stream4_IRQHandler
080069b0 g     F .text	00000002 BusFault_Handler
0800746c  w    F .text	00000002 USART1_IRQHandler
08006a7c g     F .text	0000094e OTG_FS_IRQHandler
0800746c  w    F .text	00000002 SPI3_IRQHandler
0800746c  w    F .text	00000002 DMA1_Stream4_IRQHandler
0800746c  w    F .text	00000002 I2C1_ER_IRQHandler
08007f4c g     F .text	00000090 floorf
0800746c  w    F .text	00000002 DMA2_Stream6_IRQHandler
08006a70 g     F .text	00000006 DMA1_Stream3_IRQHandler
08008b80 g     F .text	00000010 free



Disassembly of section .text:

08000188 <deregister_tm_clones>:
deregister_tm_clones():
 8000188:	4803      	ldr	r0, [pc, #12]	; (8000198 <deregister_tm_clones+0x10>)
 800018a:	4b04      	ldr	r3, [pc, #16]	; (800019c <deregister_tm_clones+0x14>)
 800018c:	4283      	cmp	r3, r0
 800018e:	d002      	beq.n	8000196 <deregister_tm_clones+0xe>
 8000190:	4b03      	ldr	r3, [pc, #12]	; (80001a0 <deregister_tm_clones+0x18>)
 8000192:	b103      	cbz	r3, 8000196 <deregister_tm_clones+0xe>
 8000194:	4718      	bx	r3
 8000196:	4770      	bx	lr
 8000198:	20000590 	.word	0x20000590
 800019c:	20000590 	.word	0x20000590
 80001a0:	00000000 	.word	0x00000000

080001a4 <register_tm_clones>:
register_tm_clones():
 80001a4:	4805      	ldr	r0, [pc, #20]	; (80001bc <register_tm_clones+0x18>)
 80001a6:	4b06      	ldr	r3, [pc, #24]	; (80001c0 <register_tm_clones+0x1c>)
 80001a8:	1a1b      	subs	r3, r3, r0
 80001aa:	0fd9      	lsrs	r1, r3, #31
 80001ac:	eb01 01a3 	add.w	r1, r1, r3, asr #2
 80001b0:	1049      	asrs	r1, r1, #1
 80001b2:	d002      	beq.n	80001ba <register_tm_clones+0x16>
 80001b4:	4b03      	ldr	r3, [pc, #12]	; (80001c4 <register_tm_clones+0x20>)
 80001b6:	b103      	cbz	r3, 80001ba <register_tm_clones+0x16>
 80001b8:	4718      	bx	r3
 80001ba:	4770      	bx	lr
 80001bc:	20000590 	.word	0x20000590
 80001c0:	20000590 	.word	0x20000590
 80001c4:	00000000 	.word	0x00000000

080001c8 <__do_global_dtors_aux>:
__do_global_dtors_aux():
 80001c8:	b510      	push	{r4, lr}
 80001ca:	4c06      	ldr	r4, [pc, #24]	; (80001e4 <__do_global_dtors_aux+0x1c>)
 80001cc:	7823      	ldrb	r3, [r4, #0]
 80001ce:	b943      	cbnz	r3, 80001e2 <__do_global_dtors_aux+0x1a>
 80001d0:	f7ff ffda 	bl	8000188 <deregister_tm_clones>
 80001d4:	4b04      	ldr	r3, [pc, #16]	; (80001e8 <__do_global_dtors_aux+0x20>)
 80001d6:	b113      	cbz	r3, 80001de <__do_global_dtors_aux+0x16>
 80001d8:	4804      	ldr	r0, [pc, #16]	; (80001ec <__do_global_dtors_aux+0x24>)
 80001da:	f3af 8000 	nop.w
 80001de:	2301      	movs	r3, #1
 80001e0:	7023      	strb	r3, [r4, #0]
 80001e2:	bd10      	pop	{r4, pc}
 80001e4:	20000590 	.word	0x20000590
 80001e8:	00000000 	.word	0x00000000
 80001ec:	08008bb8 	.word	0x08008bb8

080001f0 <frame_dummy>:
frame_dummy():
 80001f0:	b508      	push	{r3, lr}
 80001f2:	4b05      	ldr	r3, [pc, #20]	; (8000208 <frame_dummy+0x18>)
 80001f4:	b11b      	cbz	r3, 80001fe <frame_dummy+0xe>
 80001f6:	4905      	ldr	r1, [pc, #20]	; (800020c <frame_dummy+0x1c>)
 80001f8:	4805      	ldr	r0, [pc, #20]	; (8000210 <frame_dummy+0x20>)
 80001fa:	f3af 8000 	nop.w
 80001fe:	e8bd 4008 	ldmia.w	sp!, {r3, lr}
 8000202:	f7ff bfcf 	b.w	80001a4 <register_tm_clones>
 8000206:	bf00      	nop
 8000208:	00000000 	.word	0x00000000
 800020c:	20000594 	.word	0x20000594
 8000210:	08008bb8 	.word	0x08008bb8

08000214 <USB_HC_StartXfer>:
USB_HC_StartXfer():
 8000214:	b580      	push	{r7, lr}
 8000216:	b088      	sub	sp, #32
 8000218:	af02      	add	r7, sp, #8
 800021a:	60f8      	str	r0, [r7, #12]
 800021c:	60b9      	str	r1, [r7, #8]
 800021e:	4613      	mov	r3, r2
 8000220:	71fb      	strb	r3, [r7, #7]
 8000222:	2300      	movs	r3, #0
 8000224:	757b      	strb	r3, [r7, #21]
 8000226:	2300      	movs	r3, #0
 8000228:	827b      	strh	r3, [r7, #18]
 800022a:	2300      	movs	r3, #0
 800022c:	82fb      	strh	r3, [r7, #22]
 800022e:	f44f 7380 	mov.w	r3, #256	; 0x100
 8000232:	823b      	strh	r3, [r7, #16]
 8000234:	68fb      	ldr	r3, [r7, #12]
 8000236:	f1b3 4fa0 	cmp.w	r3, #1342177280	; 0x50000000
 800023a:	d02a      	beq.n	8000292 <USB_HC_StartXfer+0x7e>
 800023c:	68bb      	ldr	r3, [r7, #8]
 800023e:	791b      	ldrb	r3, [r3, #4]
 8000240:	2b00      	cmp	r3, #0
 8000242:	d126      	bne.n	8000292 <USB_HC_StartXfer+0x7e>
 8000244:	79fb      	ldrb	r3, [r7, #7]
 8000246:	2b00      	cmp	r3, #0
 8000248:	d10b      	bne.n	8000262 <USB_HC_StartXfer+0x4e>
 800024a:	68bb      	ldr	r3, [r7, #8]
 800024c:	795b      	ldrb	r3, [r3, #5]
 800024e:	2b01      	cmp	r3, #1
 8000250:	d107      	bne.n	8000262 <USB_HC_StartXfer+0x4e>
 8000252:	68bb      	ldr	r3, [r7, #8]
 8000254:	785b      	ldrb	r3, [r3, #1]
 8000256:	4619      	mov	r1, r3
 8000258:	68f8      	ldr	r0, [r7, #12]
 800025a:	f000 fa25 	bl	80006a8 <USB_DoPing>
 800025e:	2300      	movs	r3, #0
 8000260:	e112      	b.n	8000488 <USB_HC_StartXfer+0x274>
 8000262:	79fb      	ldrb	r3, [r7, #7]
 8000264:	2b01      	cmp	r3, #1
 8000266:	d114      	bne.n	8000292 <USB_HC_StartXfer+0x7e>
 8000268:	68bb      	ldr	r3, [r7, #8]
 800026a:	785b      	ldrb	r3, [r3, #1]
 800026c:	015a      	lsls	r2, r3, #5
 800026e:	68fb      	ldr	r3, [r7, #12]
 8000270:	4413      	add	r3, r2
 8000272:	f503 63a0 	add.w	r3, r3, #1280	; 0x500
 8000276:	68db      	ldr	r3, [r3, #12]
 8000278:	68ba      	ldr	r2, [r7, #8]
 800027a:	7852      	ldrb	r2, [r2, #1]
 800027c:	0151      	lsls	r1, r2, #5
 800027e:	68fa      	ldr	r2, [r7, #12]
 8000280:	440a      	add	r2, r1
 8000282:	f502 62a0 	add.w	r2, r2, #1280	; 0x500
 8000286:	f023 0360 	bic.w	r3, r3, #96	; 0x60
 800028a:	60d3      	str	r3, [r2, #12]
 800028c:	68bb      	ldr	r3, [r7, #8]
 800028e:	2200      	movs	r2, #0
 8000290:	715a      	strb	r2, [r3, #5]
 8000292:	68bb      	ldr	r3, [r7, #8]
 8000294:	691b      	ldr	r3, [r3, #16]
 8000296:	2b00      	cmp	r3, #0
 8000298:	d019      	beq.n	80002ce <USB_HC_StartXfer+0xba>
 800029a:	68bb      	ldr	r3, [r7, #8]
 800029c:	691b      	ldr	r3, [r3, #16]
 800029e:	68ba      	ldr	r2, [r7, #8]
 80002a0:	8912      	ldrh	r2, [r2, #8]
 80002a2:	4413      	add	r3, r2
 80002a4:	3b01      	subs	r3, #1
 80002a6:	68ba      	ldr	r2, [r7, #8]
 80002a8:	8912      	ldrh	r2, [r2, #8]
 80002aa:	fbb3 f3f2 	udiv	r3, r3, r2
 80002ae:	82fb      	strh	r3, [r7, #22]
 80002b0:	8afa      	ldrh	r2, [r7, #22]
 80002b2:	8a3b      	ldrh	r3, [r7, #16]
 80002b4:	429a      	cmp	r2, r3
 80002b6:	d90c      	bls.n	80002d2 <USB_HC_StartXfer+0xbe>
 80002b8:	8a3b      	ldrh	r3, [r7, #16]
 80002ba:	82fb      	strh	r3, [r7, #22]
 80002bc:	8afb      	ldrh	r3, [r7, #22]
 80002be:	68ba      	ldr	r2, [r7, #8]
 80002c0:	8912      	ldrh	r2, [r2, #8]
 80002c2:	fb02 f303 	mul.w	r3, r2, r3
 80002c6:	461a      	mov	r2, r3
 80002c8:	68bb      	ldr	r3, [r7, #8]
 80002ca:	611a      	str	r2, [r3, #16]
 80002cc:	e001      	b.n	80002d2 <USB_HC_StartXfer+0xbe>
 80002ce:	2301      	movs	r3, #1
 80002d0:	82fb      	strh	r3, [r7, #22]
 80002d2:	68bb      	ldr	r3, [r7, #8]
 80002d4:	78db      	ldrb	r3, [r3, #3]
 80002d6:	2b00      	cmp	r3, #0
 80002d8:	d007      	beq.n	80002ea <USB_HC_StartXfer+0xd6>
 80002da:	8afb      	ldrh	r3, [r7, #22]
 80002dc:	68ba      	ldr	r2, [r7, #8]
 80002de:	8912      	ldrh	r2, [r2, #8]
 80002e0:	fb02 f303 	mul.w	r3, r2, r3
 80002e4:	461a      	mov	r2, r3
 80002e6:	68bb      	ldr	r3, [r7, #8]
 80002e8:	611a      	str	r2, [r3, #16]
 80002ea:	68bb      	ldr	r3, [r7, #8]
 80002ec:	691b      	ldr	r3, [r3, #16]
 80002ee:	f3c3 0212 	ubfx	r2, r3, #0, #19
 80002f2:	8afb      	ldrh	r3, [r7, #22]
 80002f4:	04db      	lsls	r3, r3, #19
 80002f6:	4619      	mov	r1, r3
 80002f8:	4b65      	ldr	r3, [pc, #404]	; (8000490 <USB_HC_StartXfer+0x27c>)
 80002fa:	400b      	ands	r3, r1
 80002fc:	431a      	orrs	r2, r3
 80002fe:	68bb      	ldr	r3, [r7, #8]
 8000300:	7a9b      	ldrb	r3, [r3, #10]
 8000302:	075b      	lsls	r3, r3, #29
 8000304:	f003 43c0 	and.w	r3, r3, #1610612736	; 0x60000000
 8000308:	68b9      	ldr	r1, [r7, #8]
 800030a:	7849      	ldrb	r1, [r1, #1]
 800030c:	0148      	lsls	r0, r1, #5
 800030e:	68f9      	ldr	r1, [r7, #12]
 8000310:	4401      	add	r1, r0
 8000312:	f501 61a0 	add.w	r1, r1, #1280	; 0x500
 8000316:	4313      	orrs	r3, r2
 8000318:	610b      	str	r3, [r1, #16]
 800031a:	79fb      	ldrb	r3, [r7, #7]
 800031c:	2b00      	cmp	r3, #0
 800031e:	d00a      	beq.n	8000336 <USB_HC_StartXfer+0x122>
 8000320:	68bb      	ldr	r3, [r7, #8]
 8000322:	68d9      	ldr	r1, [r3, #12]
 8000324:	68bb      	ldr	r3, [r7, #8]
 8000326:	785b      	ldrb	r3, [r3, #1]
 8000328:	015a      	lsls	r2, r3, #5
 800032a:	68fb      	ldr	r3, [r7, #12]
 800032c:	4413      	add	r3, r2
 800032e:	f503 63a0 	add.w	r3, r3, #1280	; 0x500
 8000332:	460a      	mov	r2, r1
 8000334:	615a      	str	r2, [r3, #20]
 8000336:	68fb      	ldr	r3, [r7, #12]
 8000338:	f503 6380 	add.w	r3, r3, #1024	; 0x400
 800033c:	689b      	ldr	r3, [r3, #8]
 800033e:	f003 0301 	and.w	r3, r3, #1
 8000342:	2b00      	cmp	r3, #0
 8000344:	bf0c      	ite	eq
 8000346:	2301      	moveq	r3, #1
 8000348:	2300      	movne	r3, #0
 800034a:	b2db      	uxtb	r3, r3
 800034c:	757b      	strb	r3, [r7, #21]
 800034e:	68bb      	ldr	r3, [r7, #8]
 8000350:	785b      	ldrb	r3, [r3, #1]
 8000352:	015a      	lsls	r2, r3, #5
 8000354:	68fb      	ldr	r3, [r7, #12]
 8000356:	4413      	add	r3, r2
 8000358:	f503 63a0 	add.w	r3, r3, #1280	; 0x500
 800035c:	681b      	ldr	r3, [r3, #0]
 800035e:	68ba      	ldr	r2, [r7, #8]
 8000360:	7852      	ldrb	r2, [r2, #1]
 8000362:	0151      	lsls	r1, r2, #5
 8000364:	68fa      	ldr	r2, [r7, #12]
 8000366:	440a      	add	r2, r1
 8000368:	f502 62a0 	add.w	r2, r2, #1280	; 0x500
 800036c:	f023 5300 	bic.w	r3, r3, #536870912	; 0x20000000
 8000370:	6013      	str	r3, [r2, #0]
 8000372:	68bb      	ldr	r3, [r7, #8]
 8000374:	785b      	ldrb	r3, [r3, #1]
 8000376:	015a      	lsls	r2, r3, #5
 8000378:	68fb      	ldr	r3, [r7, #12]
 800037a:	4413      	add	r3, r2
 800037c:	f503 63a0 	add.w	r3, r3, #1280	; 0x500
 8000380:	681b      	ldr	r3, [r3, #0]
 8000382:	7d7a      	ldrb	r2, [r7, #21]
 8000384:	0752      	lsls	r2, r2, #29
 8000386:	4610      	mov	r0, r2
 8000388:	68ba      	ldr	r2, [r7, #8]
 800038a:	7852      	ldrb	r2, [r2, #1]
 800038c:	0151      	lsls	r1, r2, #5
 800038e:	68fa      	ldr	r2, [r7, #12]
 8000390:	440a      	add	r2, r1
 8000392:	f502 62a0 	add.w	r2, r2, #1280	; 0x500
 8000396:	4303      	orrs	r3, r0
 8000398:	6013      	str	r3, [r2, #0]
 800039a:	68bb      	ldr	r3, [r7, #8]
 800039c:	785b      	ldrb	r3, [r3, #1]
 800039e:	015a      	lsls	r2, r3, #5
 80003a0:	68fb      	ldr	r3, [r7, #12]
 80003a2:	4413      	add	r3, r2
 80003a4:	f503 63a0 	add.w	r3, r3, #1280	; 0x500
 80003a8:	681b      	ldr	r3, [r3, #0]
 80003aa:	68ba      	ldr	r2, [r7, #8]
 80003ac:	7852      	ldrb	r2, [r2, #1]
 80003ae:	0151      	lsls	r1, r2, #5
 80003b0:	68fa      	ldr	r2, [r7, #12]
 80003b2:	440a      	add	r2, r1
 80003b4:	f502 62a0 	add.w	r2, r2, #1280	; 0x500
 80003b8:	f023 4380 	bic.w	r3, r3, #1073741824	; 0x40000000
 80003bc:	6013      	str	r3, [r2, #0]
 80003be:	68bb      	ldr	r3, [r7, #8]
 80003c0:	785b      	ldrb	r3, [r3, #1]
 80003c2:	015a      	lsls	r2, r3, #5
 80003c4:	68fb      	ldr	r3, [r7, #12]
 80003c6:	4413      	add	r3, r2
 80003c8:	f503 63a0 	add.w	r3, r3, #1280	; 0x500
 80003cc:	681b      	ldr	r3, [r3, #0]
 80003ce:	68ba      	ldr	r2, [r7, #8]
 80003d0:	7852      	ldrb	r2, [r2, #1]
 80003d2:	0151      	lsls	r1, r2, #5
 80003d4:	68fa      	ldr	r2, [r7, #12]
 80003d6:	440a      	add	r2, r1
 80003d8:	f502 62a0 	add.w	r2, r2, #1280	; 0x500
 80003dc:	f043 4300 	orr.w	r3, r3, #2147483648	; 0x80000000
 80003e0:	6013      	str	r3, [r2, #0]
 80003e2:	79fb      	ldrb	r3, [r7, #7]
 80003e4:	2b00      	cmp	r3, #0
 80003e6:	d14e      	bne.n	8000486 <USB_HC_StartXfer+0x272>
 80003e8:	68bb      	ldr	r3, [r7, #8]
 80003ea:	78db      	ldrb	r3, [r3, #3]
 80003ec:	2b00      	cmp	r3, #0
 80003ee:	d14a      	bne.n	8000486 <USB_HC_StartXfer+0x272>
 80003f0:	68bb      	ldr	r3, [r7, #8]
 80003f2:	691b      	ldr	r3, [r3, #16]
 80003f4:	2b00      	cmp	r3, #0
 80003f6:	d046      	beq.n	8000486 <USB_HC_StartXfer+0x272>
 80003f8:	68bb      	ldr	r3, [r7, #8]
 80003fa:	79db      	ldrb	r3, [r3, #7]
 80003fc:	2b03      	cmp	r3, #3
 80003fe:	d831      	bhi.n	8000464 <USB_HC_StartXfer+0x250>
 8000400:	a201      	add	r2, pc, #4	; (adr r2, 8000408 <USB_HC_StartXfer+0x1f4>)
 8000402:	f852 f023 	ldr.w	pc, [r2, r3, lsl #2]
 8000406:	bf00      	nop
 8000408:	08000419 	.word	0x08000419
 800040c:	0800043d 	.word	0x0800043d
 8000410:	08000419 	.word	0x08000419
 8000414:	0800043d 	.word	0x0800043d
 8000418:	68bb      	ldr	r3, [r7, #8]
 800041a:	691b      	ldr	r3, [r3, #16]
 800041c:	3303      	adds	r3, #3
 800041e:	089b      	lsrs	r3, r3, #2
 8000420:	827b      	strh	r3, [r7, #18]
 8000422:	8a7a      	ldrh	r2, [r7, #18]
 8000424:	68fb      	ldr	r3, [r7, #12]
 8000426:	6adb      	ldr	r3, [r3, #44]	; 0x2c
 8000428:	b29b      	uxth	r3, r3
 800042a:	429a      	cmp	r2, r3
 800042c:	d91c      	bls.n	8000468 <USB_HC_StartXfer+0x254>
 800042e:	68fb      	ldr	r3, [r7, #12]
 8000430:	699b      	ldr	r3, [r3, #24]
 8000432:	f043 0220 	orr.w	r2, r3, #32
 8000436:	68fb      	ldr	r3, [r7, #12]
 8000438:	619a      	str	r2, [r3, #24]
 800043a:	e015      	b.n	8000468 <USB_HC_StartXfer+0x254>
 800043c:	68bb      	ldr	r3, [r7, #8]
 800043e:	691b      	ldr	r3, [r3, #16]
 8000440:	3303      	adds	r3, #3
 8000442:	089b      	lsrs	r3, r3, #2
 8000444:	827b      	strh	r3, [r7, #18]
 8000446:	8a7a      	ldrh	r2, [r7, #18]
 8000448:	68fb      	ldr	r3, [r7, #12]
 800044a:	f503 6380 	add.w	r3, r3, #1024	; 0x400
 800044e:	691b      	ldr	r3, [r3, #16]
 8000450:	b29b      	uxth	r3, r3
 8000452:	429a      	cmp	r2, r3
 8000454:	d90a      	bls.n	800046c <USB_HC_StartXfer+0x258>
 8000456:	68fb      	ldr	r3, [r7, #12]
 8000458:	699b      	ldr	r3, [r3, #24]
 800045a:	f043 6280 	orr.w	r2, r3, #67108864	; 0x4000000
 800045e:	68fb      	ldr	r3, [r7, #12]
 8000460:	619a      	str	r2, [r3, #24]
 8000462:	e003      	b.n	800046c <USB_HC_StartXfer+0x258>
 8000464:	bf00      	nop
 8000466:	e002      	b.n	800046e <USB_HC_StartXfer+0x25a>
 8000468:	bf00      	nop
 800046a:	e000      	b.n	800046e <USB_HC_StartXfer+0x25a>
 800046c:	bf00      	nop
 800046e:	68bb      	ldr	r3, [r7, #8]
 8000470:	68d9      	ldr	r1, [r3, #12]
 8000472:	68bb      	ldr	r3, [r7, #8]
 8000474:	785a      	ldrb	r2, [r3, #1]
 8000476:	68bb      	ldr	r3, [r7, #8]
 8000478:	691b      	ldr	r3, [r3, #16]
 800047a:	b29b      	uxth	r3, r3
 800047c:	2000      	movs	r0, #0
 800047e:	9000      	str	r0, [sp, #0]
 8000480:	68f8      	ldr	r0, [r7, #12]
 8000482:	f002 fa73 	bl	800296c <USB_WritePacket>
 8000486:	2300      	movs	r3, #0
 8000488:	4618      	mov	r0, r3
 800048a:	3718      	adds	r7, #24
 800048c:	46bd      	mov	sp, r7
 800048e:	bd80      	pop	{r7, pc}
 8000490:	1ff80000 	.word	0x1ff80000

08000494 <USB_HC_ReadInterrupt>:
USB_HC_ReadInterrupt():
 8000494:	b480      	push	{r7}
 8000496:	b083      	sub	sp, #12
 8000498:	af00      	add	r7, sp, #0
 800049a:	6078      	str	r0, [r7, #4]
 800049c:	687b      	ldr	r3, [r7, #4]
 800049e:	f503 6380 	add.w	r3, r3, #1024	; 0x400
 80004a2:	695b      	ldr	r3, [r3, #20]
 80004a4:	b29b      	uxth	r3, r3
 80004a6:	4618      	mov	r0, r3
 80004a8:	370c      	adds	r7, #12
 80004aa:	46bd      	mov	sp, r7
 80004ac:	f85d 7b04 	ldr.w	r7, [sp], #4
 80004b0:	4770      	bx	lr
 80004b2:	bf00      	nop

080004b4 <USB_HC_Halt>:
USB_HC_Halt():
 80004b4:	b480      	push	{r7}
 80004b6:	b085      	sub	sp, #20
 80004b8:	af00      	add	r7, sp, #0
 80004ba:	6078      	str	r0, [r7, #4]
 80004bc:	460b      	mov	r3, r1
 80004be:	70fb      	strb	r3, [r7, #3]
 80004c0:	2300      	movs	r3, #0
 80004c2:	60fb      	str	r3, [r7, #12]
 80004c4:	78fb      	ldrb	r3, [r7, #3]
 80004c6:	015a      	lsls	r2, r3, #5
 80004c8:	687b      	ldr	r3, [r7, #4]
 80004ca:	4413      	add	r3, r2
 80004cc:	f503 63a0 	add.w	r3, r3, #1280	; 0x500
 80004d0:	681b      	ldr	r3, [r3, #0]
 80004d2:	78fb      	ldrb	r3, [r7, #3]
 80004d4:	015a      	lsls	r2, r3, #5
 80004d6:	687b      	ldr	r3, [r7, #4]
 80004d8:	4413      	add	r3, r2
 80004da:	f503 63a0 	add.w	r3, r3, #1280	; 0x500
 80004de:	681b      	ldr	r3, [r3, #0]
 80004e0:	f403 2300 	and.w	r3, r3, #524288	; 0x80000
 80004e4:	2b00      	cmp	r3, #0
 80004e6:	d06b      	beq.n	80005c0 <USB_HC_Halt+0x10c>
 80004e8:	78fb      	ldrb	r3, [r7, #3]
 80004ea:	015a      	lsls	r2, r3, #5
 80004ec:	687b      	ldr	r3, [r7, #4]
 80004ee:	4413      	add	r3, r2
 80004f0:	f503 63a0 	add.w	r3, r3, #1280	; 0x500
 80004f4:	681b      	ldr	r3, [r3, #0]
 80004f6:	78fa      	ldrb	r2, [r7, #3]
 80004f8:	0151      	lsls	r1, r2, #5
 80004fa:	687a      	ldr	r2, [r7, #4]
 80004fc:	440a      	add	r2, r1
 80004fe:	f502 62a0 	add.w	r2, r2, #1280	; 0x500
 8000502:	f043 4380 	orr.w	r3, r3, #1073741824	; 0x40000000
 8000506:	6013      	str	r3, [r2, #0]
 8000508:	687b      	ldr	r3, [r7, #4]
 800050a:	6adb      	ldr	r3, [r3, #44]	; 0x2c
 800050c:	b29b      	uxth	r3, r3
 800050e:	2b00      	cmp	r3, #0
 8000510:	d143      	bne.n	800059a <USB_HC_Halt+0xe6>
 8000512:	78fb      	ldrb	r3, [r7, #3]
 8000514:	015a      	lsls	r2, r3, #5
 8000516:	687b      	ldr	r3, [r7, #4]
 8000518:	4413      	add	r3, r2
 800051a:	f503 63a0 	add.w	r3, r3, #1280	; 0x500
 800051e:	681b      	ldr	r3, [r3, #0]
 8000520:	78fa      	ldrb	r2, [r7, #3]
 8000522:	0151      	lsls	r1, r2, #5
 8000524:	687a      	ldr	r2, [r7, #4]
 8000526:	440a      	add	r2, r1
 8000528:	f502 62a0 	add.w	r2, r2, #1280	; 0x500
 800052c:	f023 4300 	bic.w	r3, r3, #2147483648	; 0x80000000
 8000530:	6013      	str	r3, [r2, #0]
 8000532:	78fb      	ldrb	r3, [r7, #3]
 8000534:	015a      	lsls	r2, r3, #5
 8000536:	687b      	ldr	r3, [r7, #4]
 8000538:	4413      	add	r3, r2
 800053a:	f503 63a0 	add.w	r3, r3, #1280	; 0x500
 800053e:	681b      	ldr	r3, [r3, #0]
 8000540:	78fa      	ldrb	r2, [r7, #3]
 8000542:	0151      	lsls	r1, r2, #5
 8000544:	687a      	ldr	r2, [r7, #4]
 8000546:	440a      	add	r2, r1
 8000548:	f502 62a0 	add.w	r2, r2, #1280	; 0x500
 800054c:	f043 4300 	orr.w	r3, r3, #2147483648	; 0x80000000
 8000550:	6013      	str	r3, [r2, #0]
 8000552:	78fb      	ldrb	r3, [r7, #3]
 8000554:	015a      	lsls	r2, r3, #5
 8000556:	687b      	ldr	r3, [r7, #4]
 8000558:	4413      	add	r3, r2
 800055a:	f503 63a0 	add.w	r3, r3, #1280	; 0x500
 800055e:	681b      	ldr	r3, [r3, #0]
 8000560:	78fa      	ldrb	r2, [r7, #3]
 8000562:	0151      	lsls	r1, r2, #5
 8000564:	687a      	ldr	r2, [r7, #4]
 8000566:	440a      	add	r2, r1
 8000568:	f502 62a0 	add.w	r2, r2, #1280	; 0x500
 800056c:	f423 4300 	bic.w	r3, r3, #32768	; 0x8000
 8000570:	6013      	str	r3, [r2, #0]
 8000572:	68fb      	ldr	r3, [r7, #12]
 8000574:	3301      	adds	r3, #1
 8000576:	60fb      	str	r3, [r7, #12]
 8000578:	68fb      	ldr	r3, [r7, #12]
 800057a:	f5b3 7f7a 	cmp.w	r3, #1000	; 0x3e8
 800057e:	d81d      	bhi.n	80005bc <USB_HC_Halt+0x108>
 8000580:	78fb      	ldrb	r3, [r7, #3]
 8000582:	015a      	lsls	r2, r3, #5
 8000584:	687b      	ldr	r3, [r7, #4]
 8000586:	4413      	add	r3, r2
 8000588:	f503 63a0 	add.w	r3, r3, #1280	; 0x500
 800058c:	681b      	ldr	r3, [r3, #0]
 800058e:	f003 4300 	and.w	r3, r3, #2147483648	; 0x80000000
 8000592:	f1b3 4f00 	cmp.w	r3, #2147483648	; 0x80000000
 8000596:	d0ec      	beq.n	8000572 <USB_HC_Halt+0xbe>
 8000598:	e07f      	b.n	800069a <USB_HC_Halt+0x1e6>
 800059a:	78fb      	ldrb	r3, [r7, #3]
 800059c:	015a      	lsls	r2, r3, #5
 800059e:	687b      	ldr	r3, [r7, #4]
 80005a0:	4413      	add	r3, r2
 80005a2:	f503 63a0 	add.w	r3, r3, #1280	; 0x500
 80005a6:	681b      	ldr	r3, [r3, #0]
 80005a8:	78fa      	ldrb	r2, [r7, #3]
 80005aa:	0151      	lsls	r1, r2, #5
 80005ac:	687a      	ldr	r2, [r7, #4]
 80005ae:	440a      	add	r2, r1
 80005b0:	f502 62a0 	add.w	r2, r2, #1280	; 0x500
 80005b4:	f043 4300 	orr.w	r3, r3, #2147483648	; 0x80000000
 80005b8:	6013      	str	r3, [r2, #0]
 80005ba:	e06e      	b.n	800069a <USB_HC_Halt+0x1e6>
 80005bc:	bf00      	nop
 80005be:	e06c      	b.n	800069a <USB_HC_Halt+0x1e6>
 80005c0:	78fb      	ldrb	r3, [r7, #3]
 80005c2:	015a      	lsls	r2, r3, #5
 80005c4:	687b      	ldr	r3, [r7, #4]
 80005c6:	4413      	add	r3, r2
 80005c8:	f503 63a0 	add.w	r3, r3, #1280	; 0x500
 80005cc:	681b      	ldr	r3, [r3, #0]
 80005ce:	78fa      	ldrb	r2, [r7, #3]
 80005d0:	0151      	lsls	r1, r2, #5
 80005d2:	687a      	ldr	r2, [r7, #4]
 80005d4:	440a      	add	r2, r1
 80005d6:	f502 62a0 	add.w	r2, r2, #1280	; 0x500
 80005da:	f043 4380 	orr.w	r3, r3, #1073741824	; 0x40000000
 80005de:	6013      	str	r3, [r2, #0]
 80005e0:	687b      	ldr	r3, [r7, #4]
 80005e2:	f503 6380 	add.w	r3, r3, #1024	; 0x400
 80005e6:	691b      	ldr	r3, [r3, #16]
 80005e8:	b29b      	uxth	r3, r3
 80005ea:	2b00      	cmp	r3, #0
 80005ec:	d143      	bne.n	8000676 <USB_HC_Halt+0x1c2>
 80005ee:	78fb      	ldrb	r3, [r7, #3]
 80005f0:	015a      	lsls	r2, r3, #5
 80005f2:	687b      	ldr	r3, [r7, #4]
 80005f4:	4413      	add	r3, r2
 80005f6:	f503 63a0 	add.w	r3, r3, #1280	; 0x500
 80005fa:	681b      	ldr	r3, [r3, #0]
 80005fc:	78fa      	ldrb	r2, [r7, #3]
 80005fe:	0151      	lsls	r1, r2, #5
 8000600:	687a      	ldr	r2, [r7, #4]
 8000602:	440a      	add	r2, r1
 8000604:	f502 62a0 	add.w	r2, r2, #1280	; 0x500
 8000608:	f023 4300 	bic.w	r3, r3, #2147483648	; 0x80000000
 800060c:	6013      	str	r3, [r2, #0]
 800060e:	78fb      	ldrb	r3, [r7, #3]
 8000610:	015a      	lsls	r2, r3, #5
 8000612:	687b      	ldr	r3, [r7, #4]
 8000614:	4413      	add	r3, r2
 8000616:	f503 63a0 	add.w	r3, r3, #1280	; 0x500
 800061a:	681b      	ldr	r3, [r3, #0]
 800061c:	78fa      	ldrb	r2, [r7, #3]
 800061e:	0151      	lsls	r1, r2, #5
 8000620:	687a      	ldr	r2, [r7, #4]
 8000622:	440a      	add	r2, r1
 8000624:	f502 62a0 	add.w	r2, r2, #1280	; 0x500
 8000628:	f043 4300 	orr.w	r3, r3, #2147483648	; 0x80000000
 800062c:	6013      	str	r3, [r2, #0]
 800062e:	78fb      	ldrb	r3, [r7, #3]
 8000630:	015a      	lsls	r2, r3, #5
 8000632:	687b      	ldr	r3, [r7, #4]
 8000634:	4413      	add	r3, r2
 8000636:	f503 63a0 	add.w	r3, r3, #1280	; 0x500
 800063a:	681b      	ldr	r3, [r3, #0]
 800063c:	78fa      	ldrb	r2, [r7, #3]
 800063e:	0151      	lsls	r1, r2, #5
 8000640:	687a      	ldr	r2, [r7, #4]
 8000642:	440a      	add	r2, r1
 8000644:	f502 62a0 	add.w	r2, r2, #1280	; 0x500
 8000648:	f423 4300 	bic.w	r3, r3, #32768	; 0x8000
 800064c:	6013      	str	r3, [r2, #0]
 800064e:	68fb      	ldr	r3, [r7, #12]
 8000650:	3301      	adds	r3, #1
 8000652:	60fb      	str	r3, [r7, #12]
 8000654:	68fb      	ldr	r3, [r7, #12]
 8000656:	f5b3 7f7a 	cmp.w	r3, #1000	; 0x3e8
 800065a:	d81d      	bhi.n	8000698 <USB_HC_Halt+0x1e4>
 800065c:	78fb      	ldrb	r3, [r7, #3]
 800065e:	015a      	lsls	r2, r3, #5
 8000660:	687b      	ldr	r3, [r7, #4]
 8000662:	4413      	add	r3, r2
 8000664:	f503 63a0 	add.w	r3, r3, #1280	; 0x500
 8000668:	681b      	ldr	r3, [r3, #0]
 800066a:	f003 4300 	and.w	r3, r3, #2147483648	; 0x80000000
 800066e:	f1b3 4f00 	cmp.w	r3, #2147483648	; 0x80000000
 8000672:	d0ec      	beq.n	800064e <USB_HC_Halt+0x19a>
 8000674:	e011      	b.n	800069a <USB_HC_Halt+0x1e6>
 8000676:	78fb      	ldrb	r3, [r7, #3]
 8000678:	015a      	lsls	r2, r3, #5
 800067a:	687b      	ldr	r3, [r7, #4]
 800067c:	4413      	add	r3, r2
 800067e:	f503 63a0 	add.w	r3, r3, #1280	; 0x500
 8000682:	681b      	ldr	r3, [r3, #0]
 8000684:	78fa      	ldrb	r2, [r7, #3]
 8000686:	0151      	lsls	r1, r2, #5
 8000688:	687a      	ldr	r2, [r7, #4]
 800068a:	440a      	add	r2, r1
 800068c:	f502 62a0 	add.w	r2, r2, #1280	; 0x500
 8000690:	f043 4300 	orr.w	r3, r3, #2147483648	; 0x80000000
 8000694:	6013      	str	r3, [r2, #0]
 8000696:	e000      	b.n	800069a <USB_HC_Halt+0x1e6>
 8000698:	bf00      	nop
 800069a:	2300      	movs	r3, #0
 800069c:	4618      	mov	r0, r3
 800069e:	3714      	adds	r7, #20
 80006a0:	46bd      	mov	sp, r7
 80006a2:	f85d 7b04 	ldr.w	r7, [sp], #4
 80006a6:	4770      	bx	lr

080006a8 <USB_DoPing>:
USB_DoPing():
 80006a8:	b480      	push	{r7}
 80006aa:	b085      	sub	sp, #20
 80006ac:	af00      	add	r7, sp, #0
 80006ae:	6078      	str	r0, [r7, #4]
 80006b0:	460b      	mov	r3, r1
 80006b2:	70fb      	strb	r3, [r7, #3]
 80006b4:	2301      	movs	r3, #1
 80006b6:	73fb      	strb	r3, [r7, #15]
 80006b8:	7bfb      	ldrb	r3, [r7, #15]
 80006ba:	04db      	lsls	r3, r3, #19
 80006bc:	461a      	mov	r2, r3
 80006be:	4b19      	ldr	r3, [pc, #100]	; (8000724 <USB_DoPing+0x7c>)
 80006c0:	4013      	ands	r3, r2
 80006c2:	78fa      	ldrb	r2, [r7, #3]
 80006c4:	0151      	lsls	r1, r2, #5
 80006c6:	687a      	ldr	r2, [r7, #4]
 80006c8:	440a      	add	r2, r1
 80006ca:	f502 62a0 	add.w	r2, r2, #1280	; 0x500
 80006ce:	f043 4300 	orr.w	r3, r3, #2147483648	; 0x80000000
 80006d2:	6113      	str	r3, [r2, #16]
 80006d4:	78fb      	ldrb	r3, [r7, #3]
 80006d6:	015a      	lsls	r2, r3, #5
 80006d8:	687b      	ldr	r3, [r7, #4]
 80006da:	4413      	add	r3, r2
 80006dc:	f503 63a0 	add.w	r3, r3, #1280	; 0x500
 80006e0:	681b      	ldr	r3, [r3, #0]
 80006e2:	78fa      	ldrb	r2, [r7, #3]
 80006e4:	0151      	lsls	r1, r2, #5
 80006e6:	687a      	ldr	r2, [r7, #4]
 80006e8:	440a      	add	r2, r1
 80006ea:	f502 62a0 	add.w	r2, r2, #1280	; 0x500
 80006ee:	f023 4380 	bic.w	r3, r3, #1073741824	; 0x40000000
 80006f2:	6013      	str	r3, [r2, #0]
 80006f4:	78fb      	ldrb	r3, [r7, #3]
 80006f6:	015a      	lsls	r2, r3, #5
 80006f8:	687b      	ldr	r3, [r7, #4]
 80006fa:	4413      	add	r3, r2
 80006fc:	f503 63a0 	add.w	r3, r3, #1280	; 0x500
 8000700:	681b      	ldr	r3, [r3, #0]
 8000702:	78fa      	ldrb	r2, [r7, #3]
 8000704:	0151      	lsls	r1, r2, #5
 8000706:	687a      	ldr	r2, [r7, #4]
 8000708:	440a      	add	r2, r1
 800070a:	f502 62a0 	add.w	r2, r2, #1280	; 0x500
 800070e:	f043 4300 	orr.w	r3, r3, #2147483648	; 0x80000000
 8000712:	6013      	str	r3, [r2, #0]
 8000714:	2300      	movs	r3, #0
 8000716:	4618      	mov	r0, r3
 8000718:	3714      	adds	r7, #20
 800071a:	46bd      	mov	sp, r7
 800071c:	f85d 7b04 	ldr.w	r7, [sp], #4
 8000720:	4770      	bx	lr
 8000722:	bf00      	nop
 8000724:	1ff80000 	.word	0x1ff80000

08000728 <USB_StopHost>:
USB_StopHost():
 8000728:	b580      	push	{r7, lr}
 800072a:	b086      	sub	sp, #24
 800072c:	af00      	add	r7, sp, #0
 800072e:	6078      	str	r0, [r7, #4]
 8000730:	2300      	movs	r3, #0
 8000732:	613b      	str	r3, [r7, #16]
 8000734:	6878      	ldr	r0, [r7, #4]
 8000736:	f002 f8ef 	bl	8002918 <USB_DisableGlobalInt>
 800073a:	2110      	movs	r1, #16
 800073c:	6878      	ldr	r0, [r7, #4]
 800073e:	f002 f8f3 	bl	8002928 <USB_FlushTxFifo>
 8000742:	6878      	ldr	r0, [r7, #4]
 8000744:	f002 f902 	bl	800294c <USB_FlushRxFifo>
 8000748:	2300      	movs	r3, #0
 800074a:	75fb      	strb	r3, [r7, #23]
 800074c:	e01f      	b.n	800078e <USB_StopHost+0x66>
 800074e:	7dfb      	ldrb	r3, [r7, #23]
 8000750:	015a      	lsls	r2, r3, #5
 8000752:	687b      	ldr	r3, [r7, #4]
 8000754:	4413      	add	r3, r2
 8000756:	f503 63a0 	add.w	r3, r3, #1280	; 0x500
 800075a:	681b      	ldr	r3, [r3, #0]
 800075c:	60fb      	str	r3, [r7, #12]
 800075e:	68fb      	ldr	r3, [r7, #12]
 8000760:	f043 4380 	orr.w	r3, r3, #1073741824	; 0x40000000
 8000764:	60fb      	str	r3, [r7, #12]
 8000766:	68fb      	ldr	r3, [r7, #12]
 8000768:	f023 4300 	bic.w	r3, r3, #2147483648	; 0x80000000
 800076c:	60fb      	str	r3, [r7, #12]
 800076e:	68fb      	ldr	r3, [r7, #12]
 8000770:	f423 4300 	bic.w	r3, r3, #32768	; 0x8000
 8000774:	60fb      	str	r3, [r7, #12]
 8000776:	7dfb      	ldrb	r3, [r7, #23]
 8000778:	015a      	lsls	r2, r3, #5
 800077a:	687b      	ldr	r3, [r7, #4]
 800077c:	4413      	add	r3, r2
 800077e:	f503 63a0 	add.w	r3, r3, #1280	; 0x500
 8000782:	461a      	mov	r2, r3
 8000784:	68fb      	ldr	r3, [r7, #12]
 8000786:	6013      	str	r3, [r2, #0]
 8000788:	7dfb      	ldrb	r3, [r7, #23]
 800078a:	3301      	adds	r3, #1
 800078c:	75fb      	strb	r3, [r7, #23]
 800078e:	7dfb      	ldrb	r3, [r7, #23]
 8000790:	2b0f      	cmp	r3, #15
 8000792:	d9dc      	bls.n	800074e <USB_StopHost+0x26>
 8000794:	2300      	movs	r3, #0
 8000796:	75fb      	strb	r3, [r7, #23]
 8000798:	e034      	b.n	8000804 <USB_StopHost+0xdc>
 800079a:	7dfb      	ldrb	r3, [r7, #23]
 800079c:	015a      	lsls	r2, r3, #5
 800079e:	687b      	ldr	r3, [r7, #4]
 80007a0:	4413      	add	r3, r2
 80007a2:	f503 63a0 	add.w	r3, r3, #1280	; 0x500
 80007a6:	681b      	ldr	r3, [r3, #0]
 80007a8:	60fb      	str	r3, [r7, #12]
 80007aa:	68fb      	ldr	r3, [r7, #12]
 80007ac:	f043 4380 	orr.w	r3, r3, #1073741824	; 0x40000000
 80007b0:	60fb      	str	r3, [r7, #12]
 80007b2:	68fb      	ldr	r3, [r7, #12]
 80007b4:	f043 4300 	orr.w	r3, r3, #2147483648	; 0x80000000
 80007b8:	60fb      	str	r3, [r7, #12]
 80007ba:	68fb      	ldr	r3, [r7, #12]
 80007bc:	f423 4300 	bic.w	r3, r3, #32768	; 0x8000
 80007c0:	60fb      	str	r3, [r7, #12]
 80007c2:	7dfb      	ldrb	r3, [r7, #23]
 80007c4:	015a      	lsls	r2, r3, #5
 80007c6:	687b      	ldr	r3, [r7, #4]
 80007c8:	4413      	add	r3, r2
 80007ca:	f503 63a0 	add.w	r3, r3, #1280	; 0x500
 80007ce:	461a      	mov	r2, r3
 80007d0:	68fb      	ldr	r3, [r7, #12]
 80007d2:	6013      	str	r3, [r2, #0]
 80007d4:	693b      	ldr	r3, [r7, #16]
 80007d6:	3301      	adds	r3, #1
 80007d8:	613b      	str	r3, [r7, #16]
 80007da:	693b      	ldr	r3, [r7, #16]
 80007dc:	f5b3 7f7a 	cmp.w	r3, #1000	; 0x3e8
 80007e0:	d80c      	bhi.n	80007fc <USB_StopHost+0xd4>
 80007e2:	7dfb      	ldrb	r3, [r7, #23]
 80007e4:	015a      	lsls	r2, r3, #5
 80007e6:	687b      	ldr	r3, [r7, #4]
 80007e8:	4413      	add	r3, r2
 80007ea:	f503 63a0 	add.w	r3, r3, #1280	; 0x500
 80007ee:	681b      	ldr	r3, [r3, #0]
 80007f0:	f003 4300 	and.w	r3, r3, #2147483648	; 0x80000000
 80007f4:	f1b3 4f00 	cmp.w	r3, #2147483648	; 0x80000000
 80007f8:	d0ec      	beq.n	80007d4 <USB_StopHost+0xac>
 80007fa:	e000      	b.n	80007fe <USB_StopHost+0xd6>
 80007fc:	bf00      	nop
 80007fe:	7dfb      	ldrb	r3, [r7, #23]
 8000800:	3301      	adds	r3, #1
 8000802:	75fb      	strb	r3, [r7, #23]
 8000804:	7dfb      	ldrb	r3, [r7, #23]
 8000806:	2b0f      	cmp	r3, #15
 8000808:	d9c7      	bls.n	800079a <USB_StopHost+0x72>
 800080a:	687b      	ldr	r3, [r7, #4]
 800080c:	f503 6380 	add.w	r3, r3, #1024	; 0x400
 8000810:	461a      	mov	r2, r3
 8000812:	f04f 33ff 	mov.w	r3, #4294967295	; 0xffffffff
 8000816:	6153      	str	r3, [r2, #20]
 8000818:	687b      	ldr	r3, [r7, #4]
 800081a:	f04f 32ff 	mov.w	r2, #4294967295	; 0xffffffff
 800081e:	615a      	str	r2, [r3, #20]
 8000820:	6878      	ldr	r0, [r7, #4]
 8000822:	f002 f871 	bl	8002908 <USB_EnableGlobalInt>
 8000826:	2300      	movs	r3, #0
 8000828:	4618      	mov	r0, r3
 800082a:	3718      	adds	r7, #24
 800082c:	46bd      	mov	sp, r7
 800082e:	bd80      	pop	{r7, pc}

08000830 <USBH_MIDI_ClassRequest>:
USBH_MIDI_ClassRequest():
 8000830:	b508      	push	{r3, lr}
 8000832:	2102      	movs	r1, #2
 8000834:	f8d0 3614 	ldr.w	r3, [r0, #1556]	; 0x614
 8000838:	4798      	blx	r3
 800083a:	2000      	movs	r0, #0
 800083c:	bd08      	pop	{r3, pc}
 800083e:	bf00      	nop

08000840 <USBH_MIDI_SOFProcess>:
USBH_MIDI_SOFProcess():
 8000840:	2000      	movs	r0, #0
 8000842:	4770      	bx	lr

08000844 <HAL_Delay>:
HAL_Delay():
 8000844:	b082      	sub	sp, #8
 8000846:	4905      	ldr	r1, [pc, #20]	; (800085c <HAL_Delay+0x18>)
 8000848:	9001      	str	r0, [sp, #4]
 800084a:	6808      	ldr	r0, [r1, #0]
 800084c:	680b      	ldr	r3, [r1, #0]
 800084e:	9a01      	ldr	r2, [sp, #4]
 8000850:	1a1b      	subs	r3, r3, r0
 8000852:	4293      	cmp	r3, r2
 8000854:	d3fa      	bcc.n	800084c <HAL_Delay+0x8>
 8000856:	b002      	add	sp, #8
 8000858:	4770      	bx	lr
 800085a:	bf00      	nop
 800085c:	20002f54 	.word	0x20002f54

08000860 <HAL_DMA_IRQHandler>:
HAL_DMA_IRQHandler():
 8000860:	6803      	ldr	r3, [r0, #0]
 8000862:	4aac      	ldr	r2, [pc, #688]	; (8000b14 <HAL_DMA_IRQHandler+0x2b4>)
 8000864:	4293      	cmp	r3, r2
 8000866:	b570      	push	{r4, r5, r6, lr}
 8000868:	4619      	mov	r1, r3
 800086a:	4604      	mov	r4, r0
 800086c:	d93d      	bls.n	80008ea <HAL_DMA_IRQHandler+0x8a>
 800086e:	48aa      	ldr	r0, [pc, #680]	; (8000b18 <HAL_DMA_IRQHandler+0x2b8>)
 8000870:	f5a2 6289 	sub.w	r2, r2, #1096	; 0x448
 8000874:	4293      	cmp	r3, r2
 8000876:	6840      	ldr	r0, [r0, #4]
 8000878:	d040      	beq.n	80008fc <HAL_DMA_IRQHandler+0x9c>
 800087a:	f502 6280 	add.w	r2, r2, #1024	; 0x400
 800087e:	4293      	cmp	r3, r2
 8000880:	d03c      	beq.n	80008fc <HAL_DMA_IRQHandler+0x9c>
 8000882:	f5a2 7268 	sub.w	r2, r2, #928	; 0x3a0
 8000886:	4293      	cmp	r3, r2
 8000888:	d038      	beq.n	80008fc <HAL_DMA_IRQHandler+0x9c>
 800088a:	f502 6280 	add.w	r2, r2, #1024	; 0x400
 800088e:	4293      	cmp	r3, r2
 8000890:	d034      	beq.n	80008fc <HAL_DMA_IRQHandler+0x9c>
 8000892:	f5a2 6289 	sub.w	r2, r2, #1096	; 0x448
 8000896:	4293      	cmp	r3, r2
 8000898:	f000 8718 	beq.w	80016cc <HAL_DMA_IRQHandler+0xe6c>
 800089c:	f502 6280 	add.w	r2, r2, #1024	; 0x400
 80008a0:	4293      	cmp	r3, r2
 80008a2:	f000 8713 	beq.w	80016cc <HAL_DMA_IRQHandler+0xe6c>
 80008a6:	f5a2 7268 	sub.w	r2, r2, #928	; 0x3a0
 80008aa:	4293      	cmp	r3, r2
 80008ac:	f000 870e 	beq.w	80016cc <HAL_DMA_IRQHandler+0xe6c>
 80008b0:	f502 6280 	add.w	r2, r2, #1024	; 0x400
 80008b4:	4293      	cmp	r3, r2
 80008b6:	f000 8709 	beq.w	80016cc <HAL_DMA_IRQHandler+0xe6c>
 80008ba:	f5a2 6289 	sub.w	r2, r2, #1096	; 0x448
 80008be:	4293      	cmp	r3, r2
 80008c0:	f001 82da 	beq.w	8001e78 <HAL_DMA_IRQHandler+0x1618>
 80008c4:	f502 6280 	add.w	r2, r2, #1024	; 0x400
 80008c8:	4293      	cmp	r3, r2
 80008ca:	f001 82d5 	beq.w	8001e78 <HAL_DMA_IRQHandler+0x1618>
 80008ce:	f5a2 7268 	sub.w	r2, r2, #928	; 0x3a0
 80008d2:	4293      	cmp	r3, r2
 80008d4:	f001 82d0 	beq.w	8001e78 <HAL_DMA_IRQHandler+0x1618>
 80008d8:	f502 6280 	add.w	r2, r2, #1024	; 0x400
 80008dc:	4293      	cmp	r3, r2
 80008de:	bf0c      	ite	eq
 80008e0:	f44f 2200 	moveq.w	r2, #524288	; 0x80000
 80008e4:	f04f 7200 	movne.w	r2, #33554432	; 0x2000000
 80008e8:	e009      	b.n	80008fe <HAL_DMA_IRQHandler+0x9e>
 80008ea:	4a8c      	ldr	r2, [pc, #560]	; (8000b1c <HAL_DMA_IRQHandler+0x2bc>)
 80008ec:	4293      	cmp	r3, r2
 80008ee:	f240 83d5 	bls.w	800109c <HAL_DMA_IRQHandler+0x83c>
 80008f2:	4889      	ldr	r0, [pc, #548]	; (8000b18 <HAL_DMA_IRQHandler+0x2b8>)
 80008f4:	3aa8      	subs	r2, #168	; 0xa8
 80008f6:	4293      	cmp	r3, r2
 80008f8:	6800      	ldr	r0, [r0, #0]
 80008fa:	d1be      	bne.n	800087a <HAL_DMA_IRQHandler+0x1a>
 80008fc:	2208      	movs	r2, #8
 80008fe:	4210      	tst	r0, r2
 8000900:	bf14      	ite	ne
 8000902:	2201      	movne	r2, #1
 8000904:	2200      	moveq	r2, #0
 8000906:	2a00      	cmp	r2, #0
 8000908:	d06d      	beq.n	80009e6 <HAL_DMA_IRQHandler+0x186>
 800090a:	681a      	ldr	r2, [r3, #0]
 800090c:	0755      	lsls	r5, r2, #29
 800090e:	d56a      	bpl.n	80009e6 <HAL_DMA_IRQHandler+0x186>
 8000910:	681a      	ldr	r2, [r3, #0]
 8000912:	4880      	ldr	r0, [pc, #512]	; (8000b14 <HAL_DMA_IRQHandler+0x2b4>)
 8000914:	f022 0204 	bic.w	r2, r2, #4
 8000918:	4283      	cmp	r3, r0
 800091a:	601a      	str	r2, [r3, #0]
 800091c:	f240 84c7 	bls.w	80012ae <HAL_DMA_IRQHandler+0xa4e>
 8000920:	4a7f      	ldr	r2, [pc, #508]	; (8000b20 <HAL_DMA_IRQHandler+0x2c0>)
 8000922:	4293      	cmp	r3, r2
 8000924:	d049      	beq.n	80009ba <HAL_DMA_IRQHandler+0x15a>
 8000926:	f502 6280 	add.w	r2, r2, #1024	; 0x400
 800092a:	4293      	cmp	r3, r2
 800092c:	d045      	beq.n	80009ba <HAL_DMA_IRQHandler+0x15a>
 800092e:	f5a2 7268 	sub.w	r2, r2, #928	; 0x3a0
 8000932:	4293      	cmp	r3, r2
 8000934:	d041      	beq.n	80009ba <HAL_DMA_IRQHandler+0x15a>
 8000936:	f502 6280 	add.w	r2, r2, #1024	; 0x400
 800093a:	4293      	cmp	r3, r2
 800093c:	f001 8420 	beq.w	8002180 <HAL_DMA_IRQHandler+0x1920>
 8000940:	f5a2 6289 	sub.w	r2, r2, #1096	; 0x448
 8000944:	4293      	cmp	r3, r2
 8000946:	f001 83e4 	beq.w	8002112 <HAL_DMA_IRQHandler+0x18b2>
 800094a:	f502 6280 	add.w	r2, r2, #1024	; 0x400
 800094e:	4293      	cmp	r3, r2
 8000950:	f001 8463 	beq.w	800221a <HAL_DMA_IRQHandler+0x19ba>
 8000954:	f5a2 7268 	sub.w	r2, r2, #928	; 0x3a0
 8000958:	4293      	cmp	r3, r2
 800095a:	f001 83da 	beq.w	8002112 <HAL_DMA_IRQHandler+0x18b2>
 800095e:	f502 6280 	add.w	r2, r2, #1024	; 0x400
 8000962:	4293      	cmp	r3, r2
 8000964:	f001 8524 	beq.w	80023b0 <HAL_DMA_IRQHandler+0x1b50>
 8000968:	f5a2 6289 	sub.w	r2, r2, #1096	; 0x448
 800096c:	4293      	cmp	r3, r2
 800096e:	f001 848b 	beq.w	8002288 <HAL_DMA_IRQHandler+0x1a28>
 8000972:	f502 6280 	add.w	r2, r2, #1024	; 0x400
 8000976:	4293      	cmp	r3, r2
 8000978:	f001 8486 	beq.w	8002288 <HAL_DMA_IRQHandler+0x1a28>
 800097c:	f5a2 7268 	sub.w	r2, r2, #928	; 0x3a0
 8000980:	4293      	cmp	r3, r2
 8000982:	f001 8481 	beq.w	8002288 <HAL_DMA_IRQHandler+0x1a28>
 8000986:	f502 6280 	add.w	r2, r2, #1024	; 0x400
 800098a:	4293      	cmp	r3, r2
 800098c:	f001 85cd 	beq.w	800252a <HAL_DMA_IRQHandler+0x1cca>
 8000990:	4d61      	ldr	r5, [pc, #388]	; (8000b18 <HAL_DMA_IRQHandler+0x2b8>)
 8000992:	f04f 7200 	mov.w	r2, #33554432	; 0x2000000
 8000996:	60ea      	str	r2, [r5, #12]
 8000998:	6ce0      	ldr	r0, [r4, #76]	; 0x4c
 800099a:	6ca2      	ldr	r2, [r4, #72]	; 0x48
 800099c:	f040 0001 	orr.w	r0, r0, #1
 80009a0:	64e0      	str	r0, [r4, #76]	; 0x4c
 80009a2:	f04f 0c04 	mov.w	ip, #4
 80009a6:	2000      	movs	r0, #0
 80009a8:	f884 c035 	strb.w	ip, [r4, #53]	; 0x35
 80009ac:	f884 0034 	strb.w	r0, [r4, #52]	; 0x34
 80009b0:	b9aa      	cbnz	r2, 80009de <HAL_DMA_IRQHandler+0x17e>
 80009b2:	6868      	ldr	r0, [r5, #4]
 80009b4:	f44f 0280 	mov.w	r2, #4194304	; 0x400000
 80009b8:	e060      	b.n	8000a7c <HAL_DMA_IRQHandler+0x21c>
 80009ba:	4d57      	ldr	r5, [pc, #348]	; (8000b18 <HAL_DMA_IRQHandler+0x2b8>)
 80009bc:	2208      	movs	r2, #8
 80009be:	60ea      	str	r2, [r5, #12]
 80009c0:	6ce0      	ldr	r0, [r4, #76]	; 0x4c
 80009c2:	6ca2      	ldr	r2, [r4, #72]	; 0x48
 80009c4:	f040 0001 	orr.w	r0, r0, #1
 80009c8:	64e0      	str	r0, [r4, #76]	; 0x4c
 80009ca:	f04f 0c04 	mov.w	ip, #4
 80009ce:	2000      	movs	r0, #0
 80009d0:	f884 c035 	strb.w	ip, [r4, #53]	; 0x35
 80009d4:	f884 0034 	strb.w	r0, [r4, #52]	; 0x34
 80009d8:	2a00      	cmp	r2, #0
 80009da:	f001 8266 	beq.w	8001eaa <HAL_DMA_IRQHandler+0x164a>
 80009de:	4620      	mov	r0, r4
 80009e0:	4790      	blx	r2
 80009e2:	6823      	ldr	r3, [r4, #0]
 80009e4:	4619      	mov	r1, r3
 80009e6:	4a4b      	ldr	r2, [pc, #300]	; (8000b14 <HAL_DMA_IRQHandler+0x2b4>)
 80009e8:	4293      	cmp	r3, r2
 80009ea:	d93d      	bls.n	8000a68 <HAL_DMA_IRQHandler+0x208>
 80009ec:	484a      	ldr	r0, [pc, #296]	; (8000b18 <HAL_DMA_IRQHandler+0x2b8>)
 80009ee:	f5a2 6289 	sub.w	r2, r2, #1096	; 0x448
 80009f2:	4293      	cmp	r3, r2
 80009f4:	6840      	ldr	r0, [r0, #4]
 80009f6:	d040      	beq.n	8000a7a <HAL_DMA_IRQHandler+0x21a>
 80009f8:	f502 6280 	add.w	r2, r2, #1024	; 0x400
 80009fc:	4293      	cmp	r3, r2
 80009fe:	d03c      	beq.n	8000a7a <HAL_DMA_IRQHandler+0x21a>
 8000a00:	f5a2 7268 	sub.w	r2, r2, #928	; 0x3a0
 8000a04:	4293      	cmp	r3, r2
 8000a06:	d038      	beq.n	8000a7a <HAL_DMA_IRQHandler+0x21a>
 8000a08:	f502 6280 	add.w	r2, r2, #1024	; 0x400
 8000a0c:	4293      	cmp	r3, r2
 8000a0e:	d034      	beq.n	8000a7a <HAL_DMA_IRQHandler+0x21a>
 8000a10:	f5a2 6289 	sub.w	r2, r2, #1096	; 0x448
 8000a14:	4293      	cmp	r3, r2
 8000a16:	f000 8671 	beq.w	80016fc <HAL_DMA_IRQHandler+0xe9c>
 8000a1a:	f502 6280 	add.w	r2, r2, #1024	; 0x400
 8000a1e:	4293      	cmp	r3, r2
 8000a20:	f000 866c 	beq.w	80016fc <HAL_DMA_IRQHandler+0xe9c>
 8000a24:	f5a2 7268 	sub.w	r2, r2, #928	; 0x3a0
 8000a28:	4293      	cmp	r3, r2
 8000a2a:	f000 8667 	beq.w	80016fc <HAL_DMA_IRQHandler+0xe9c>
 8000a2e:	f502 6280 	add.w	r2, r2, #1024	; 0x400
 8000a32:	4293      	cmp	r3, r2
 8000a34:	f000 8662 	beq.w	80016fc <HAL_DMA_IRQHandler+0xe9c>
 8000a38:	f5a2 6289 	sub.w	r2, r2, #1096	; 0x448
 8000a3c:	4293      	cmp	r3, r2
 8000a3e:	f001 8223 	beq.w	8001e88 <HAL_DMA_IRQHandler+0x1628>
 8000a42:	f502 6280 	add.w	r2, r2, #1024	; 0x400
 8000a46:	4293      	cmp	r3, r2
 8000a48:	f001 821e 	beq.w	8001e88 <HAL_DMA_IRQHandler+0x1628>
 8000a4c:	f5a2 7268 	sub.w	r2, r2, #928	; 0x3a0
 8000a50:	4293      	cmp	r3, r2
 8000a52:	f001 8219 	beq.w	8001e88 <HAL_DMA_IRQHandler+0x1628>
 8000a56:	f502 6280 	add.w	r2, r2, #1024	; 0x400
 8000a5a:	4293      	cmp	r3, r2
 8000a5c:	bf0c      	ite	eq
 8000a5e:	f44f 3280 	moveq.w	r2, #65536	; 0x10000
 8000a62:	f44f 0280 	movne.w	r2, #4194304	; 0x400000
 8000a66:	e009      	b.n	8000a7c <HAL_DMA_IRQHandler+0x21c>
 8000a68:	4a2c      	ldr	r2, [pc, #176]	; (8000b1c <HAL_DMA_IRQHandler+0x2bc>)
 8000a6a:	4293      	cmp	r3, r2
 8000a6c:	f240 8375 	bls.w	800115a <HAL_DMA_IRQHandler+0x8fa>
 8000a70:	4829      	ldr	r0, [pc, #164]	; (8000b18 <HAL_DMA_IRQHandler+0x2b8>)
 8000a72:	3aa8      	subs	r2, #168	; 0xa8
 8000a74:	4293      	cmp	r3, r2
 8000a76:	6800      	ldr	r0, [r0, #0]
 8000a78:	d1be      	bne.n	80009f8 <HAL_DMA_IRQHandler+0x198>
 8000a7a:	4a2a      	ldr	r2, [pc, #168]	; (8000b24 <HAL_DMA_IRQHandler+0x2c4>)
 8000a7c:	4202      	tst	r2, r0
 8000a7e:	bf14      	ite	ne
 8000a80:	2201      	movne	r2, #1
 8000a82:	2200      	moveq	r2, #0
 8000a84:	2a00      	cmp	r2, #0
 8000a86:	d064      	beq.n	8000b52 <HAL_DMA_IRQHandler+0x2f2>
 8000a88:	695a      	ldr	r2, [r3, #20]
 8000a8a:	0610      	lsls	r0, r2, #24
 8000a8c:	d561      	bpl.n	8000b52 <HAL_DMA_IRQHandler+0x2f2>
 8000a8e:	695a      	ldr	r2, [r3, #20]
 8000a90:	4820      	ldr	r0, [pc, #128]	; (8000b14 <HAL_DMA_IRQHandler+0x2b4>)
 8000a92:	f022 0280 	bic.w	r2, r2, #128	; 0x80
 8000a96:	4281      	cmp	r1, r0
 8000a98:	615a      	str	r2, [r3, #20]
 8000a9a:	f240 83ae 	bls.w	80011fa <HAL_DMA_IRQHandler+0x99a>
 8000a9e:	4a20      	ldr	r2, [pc, #128]	; (8000b20 <HAL_DMA_IRQHandler+0x2c0>)
 8000aa0:	4293      	cmp	r3, r2
 8000aa2:	d043      	beq.n	8000b2c <HAL_DMA_IRQHandler+0x2cc>
 8000aa4:	f502 6280 	add.w	r2, r2, #1024	; 0x400
 8000aa8:	4293      	cmp	r3, r2
 8000aaa:	d03f      	beq.n	8000b2c <HAL_DMA_IRQHandler+0x2cc>
 8000aac:	f5a2 7268 	sub.w	r2, r2, #928	; 0x3a0
 8000ab0:	4293      	cmp	r3, r2
 8000ab2:	d03b      	beq.n	8000b2c <HAL_DMA_IRQHandler+0x2cc>
 8000ab4:	f502 6280 	add.w	r2, r2, #1024	; 0x400
 8000ab8:	4293      	cmp	r3, r2
 8000aba:	d037      	beq.n	8000b2c <HAL_DMA_IRQHandler+0x2cc>
 8000abc:	f5a2 6289 	sub.w	r2, r2, #1096	; 0x448
 8000ac0:	4293      	cmp	r3, r2
 8000ac2:	f001 820f 	beq.w	8001ee4 <HAL_DMA_IRQHandler+0x1684>
 8000ac6:	f502 6280 	add.w	r2, r2, #1024	; 0x400
 8000aca:	4293      	cmp	r3, r2
 8000acc:	f001 820a 	beq.w	8001ee4 <HAL_DMA_IRQHandler+0x1684>
 8000ad0:	f5a2 7268 	sub.w	r2, r2, #928	; 0x3a0
 8000ad4:	4293      	cmp	r3, r2
 8000ad6:	f001 8205 	beq.w	8001ee4 <HAL_DMA_IRQHandler+0x1684>
 8000ada:	f502 6280 	add.w	r2, r2, #1024	; 0x400
 8000ade:	4293      	cmp	r3, r2
 8000ae0:	f001 8200 	beq.w	8001ee4 <HAL_DMA_IRQHandler+0x1684>
 8000ae4:	f5a2 6289 	sub.w	r2, r2, #1096	; 0x448
 8000ae8:	4293      	cmp	r3, r2
 8000aea:	f001 83c9 	beq.w	8002280 <HAL_DMA_IRQHandler+0x1a20>
 8000aee:	f502 6280 	add.w	r2, r2, #1024	; 0x400
 8000af2:	4293      	cmp	r3, r2
 8000af4:	f001 83c4 	beq.w	8002280 <HAL_DMA_IRQHandler+0x1a20>
 8000af8:	f5a2 7268 	sub.w	r2, r2, #928	; 0x3a0
 8000afc:	4293      	cmp	r3, r2
 8000afe:	f001 83bf 	beq.w	8002280 <HAL_DMA_IRQHandler+0x1a20>
 8000b02:	4909      	ldr	r1, [pc, #36]	; (8000b28 <HAL_DMA_IRQHandler+0x2c8>)
 8000b04:	428b      	cmp	r3, r1
 8000b06:	bf0c      	ite	eq
 8000b08:	f44f 3180 	moveq.w	r1, #65536	; 0x10000
 8000b0c:	f44f 0180 	movne.w	r1, #4194304	; 0x400000
 8000b10:	e00d      	b.n	8000b2e <HAL_DMA_IRQHandler+0x2ce>
 8000b12:	bf00      	nop
 8000b14:	40026458 	.word	0x40026458
 8000b18:	40026400 	.word	0x40026400
 8000b1c:	400260b8 	.word	0x400260b8
 8000b20:	40026010 	.word	0x40026010
 8000b24:	00800001 	.word	0x00800001
 8000b28:	400264a0 	.word	0x400264a0
 8000b2c:	49a0      	ldr	r1, [pc, #640]	; (8000db0 <HAL_DMA_IRQHandler+0x550>)
 8000b2e:	4aa1      	ldr	r2, [pc, #644]	; (8000db4 <HAL_DMA_IRQHandler+0x554>)
 8000b30:	6ca3      	ldr	r3, [r4, #72]	; 0x48
 8000b32:	60d1      	str	r1, [r2, #12]
 8000b34:	6ce2      	ldr	r2, [r4, #76]	; 0x4c
 8000b36:	2104      	movs	r1, #4
 8000b38:	f042 0202 	orr.w	r2, r2, #2
 8000b3c:	2000      	movs	r0, #0
 8000b3e:	64e2      	str	r2, [r4, #76]	; 0x4c
 8000b40:	f884 0034 	strb.w	r0, [r4, #52]	; 0x34
 8000b44:	f884 1035 	strb.w	r1, [r4, #53]	; 0x35
 8000b48:	2b00      	cmp	r3, #0
 8000b4a:	f001 81ab 	beq.w	8001ea4 <HAL_DMA_IRQHandler+0x1644>
 8000b4e:	4620      	mov	r0, r4
 8000b50:	4798      	blx	r3
 8000b52:	6823      	ldr	r3, [r4, #0]
 8000b54:	4a98      	ldr	r2, [pc, #608]	; (8000db8 <HAL_DMA_IRQHandler+0x558>)
 8000b56:	4293      	cmp	r3, r2
 8000b58:	d93c      	bls.n	8000bd4 <HAL_DMA_IRQHandler+0x374>
 8000b5a:	4a98      	ldr	r2, [pc, #608]	; (8000dbc <HAL_DMA_IRQHandler+0x55c>)
 8000b5c:	4995      	ldr	r1, [pc, #596]	; (8000db4 <HAL_DMA_IRQHandler+0x554>)
 8000b5e:	4293      	cmp	r3, r2
 8000b60:	6849      	ldr	r1, [r1, #4]
 8000b62:	d040      	beq.n	8000be6 <HAL_DMA_IRQHandler+0x386>
 8000b64:	f502 6280 	add.w	r2, r2, #1024	; 0x400
 8000b68:	4293      	cmp	r3, r2
 8000b6a:	d03c      	beq.n	8000be6 <HAL_DMA_IRQHandler+0x386>
 8000b6c:	f5a2 7268 	sub.w	r2, r2, #928	; 0x3a0
 8000b70:	4293      	cmp	r3, r2
 8000b72:	d038      	beq.n	8000be6 <HAL_DMA_IRQHandler+0x386>
 8000b74:	f502 6280 	add.w	r2, r2, #1024	; 0x400
 8000b78:	4293      	cmp	r3, r2
 8000b7a:	d034      	beq.n	8000be6 <HAL_DMA_IRQHandler+0x386>
 8000b7c:	f5a2 6289 	sub.w	r2, r2, #1096	; 0x448
 8000b80:	4293      	cmp	r3, r2
 8000b82:	f000 85be 	beq.w	8001702 <HAL_DMA_IRQHandler+0xea2>
 8000b86:	f502 6280 	add.w	r2, r2, #1024	; 0x400
 8000b8a:	4293      	cmp	r3, r2
 8000b8c:	f000 85b9 	beq.w	8001702 <HAL_DMA_IRQHandler+0xea2>
 8000b90:	f5a2 7268 	sub.w	r2, r2, #928	; 0x3a0
 8000b94:	4293      	cmp	r3, r2
 8000b96:	f000 85b4 	beq.w	8001702 <HAL_DMA_IRQHandler+0xea2>
 8000b9a:	f502 6280 	add.w	r2, r2, #1024	; 0x400
 8000b9e:	4293      	cmp	r3, r2
 8000ba0:	f000 85af 	beq.w	8001702 <HAL_DMA_IRQHandler+0xea2>
 8000ba4:	f5a2 6289 	sub.w	r2, r2, #1096	; 0x448
 8000ba8:	4293      	cmp	r3, r2
 8000baa:	f001 8181 	beq.w	8001eb0 <HAL_DMA_IRQHandler+0x1650>
 8000bae:	f502 6280 	add.w	r2, r2, #1024	; 0x400
 8000bb2:	4293      	cmp	r3, r2
 8000bb4:	f001 817c 	beq.w	8001eb0 <HAL_DMA_IRQHandler+0x1650>
 8000bb8:	f5a2 7268 	sub.w	r2, r2, #928	; 0x3a0
 8000bbc:	4293      	cmp	r3, r2
 8000bbe:	f001 8177 	beq.w	8001eb0 <HAL_DMA_IRQHandler+0x1650>
 8000bc2:	f502 6280 	add.w	r2, r2, #1024	; 0x400
 8000bc6:	4293      	cmp	r3, r2
 8000bc8:	bf0c      	ite	eq
 8000bca:	f44f 2280 	moveq.w	r2, #262144	; 0x40000
 8000bce:	f04f 7280 	movne.w	r2, #16777216	; 0x1000000
 8000bd2:	e009      	b.n	8000be8 <HAL_DMA_IRQHandler+0x388>
 8000bd4:	4a7a      	ldr	r2, [pc, #488]	; (8000dc0 <HAL_DMA_IRQHandler+0x560>)
 8000bd6:	4293      	cmp	r3, r2
 8000bd8:	f240 82ca 	bls.w	8001170 <HAL_DMA_IRQHandler+0x910>
 8000bdc:	4a77      	ldr	r2, [pc, #476]	; (8000dbc <HAL_DMA_IRQHandler+0x55c>)
 8000bde:	4975      	ldr	r1, [pc, #468]	; (8000db4 <HAL_DMA_IRQHandler+0x554>)
 8000be0:	4293      	cmp	r3, r2
 8000be2:	6809      	ldr	r1, [r1, #0]
 8000be4:	d1be      	bne.n	8000b64 <HAL_DMA_IRQHandler+0x304>
 8000be6:	4a77      	ldr	r2, [pc, #476]	; (8000dc4 <HAL_DMA_IRQHandler+0x564>)
 8000be8:	4211      	tst	r1, r2
 8000bea:	bf14      	ite	ne
 8000bec:	2201      	movne	r2, #1
 8000bee:	2200      	moveq	r2, #0
 8000bf0:	2a00      	cmp	r2, #0
 8000bf2:	d056      	beq.n	8000ca2 <HAL_DMA_IRQHandler+0x442>
 8000bf4:	681a      	ldr	r2, [r3, #0]
 8000bf6:	0791      	lsls	r1, r2, #30
 8000bf8:	d553      	bpl.n	8000ca2 <HAL_DMA_IRQHandler+0x442>
 8000bfa:	681a      	ldr	r2, [r3, #0]
 8000bfc:	496e      	ldr	r1, [pc, #440]	; (8000db8 <HAL_DMA_IRQHandler+0x558>)
 8000bfe:	f022 0202 	bic.w	r2, r2, #2
 8000c02:	428b      	cmp	r3, r1
 8000c04:	601a      	str	r2, [r3, #0]
 8000c06:	f240 8125 	bls.w	8000e54 <HAL_DMA_IRQHandler+0x5f4>
 8000c0a:	4a6c      	ldr	r2, [pc, #432]	; (8000dbc <HAL_DMA_IRQHandler+0x55c>)
 8000c0c:	4293      	cmp	r3, r2
 8000c0e:	d036      	beq.n	8000c7e <HAL_DMA_IRQHandler+0x41e>
 8000c10:	f502 6280 	add.w	r2, r2, #1024	; 0x400
 8000c14:	4293      	cmp	r3, r2
 8000c16:	d032      	beq.n	8000c7e <HAL_DMA_IRQHandler+0x41e>
 8000c18:	f5a2 7268 	sub.w	r2, r2, #928	; 0x3a0
 8000c1c:	4293      	cmp	r3, r2
 8000c1e:	d02e      	beq.n	8000c7e <HAL_DMA_IRQHandler+0x41e>
 8000c20:	f502 6280 	add.w	r2, r2, #1024	; 0x400
 8000c24:	4293      	cmp	r3, r2
 8000c26:	d02a      	beq.n	8000c7e <HAL_DMA_IRQHandler+0x41e>
 8000c28:	f5a2 6289 	sub.w	r2, r2, #1096	; 0x448
 8000c2c:	4293      	cmp	r3, r2
 8000c2e:	f001 8155 	beq.w	8001edc <HAL_DMA_IRQHandler+0x167c>
 8000c32:	f502 6280 	add.w	r2, r2, #1024	; 0x400
 8000c36:	4293      	cmp	r3, r2
 8000c38:	f001 8150 	beq.w	8001edc <HAL_DMA_IRQHandler+0x167c>
 8000c3c:	f5a2 7268 	sub.w	r2, r2, #928	; 0x3a0
 8000c40:	4293      	cmp	r3, r2
 8000c42:	f001 814b 	beq.w	8001edc <HAL_DMA_IRQHandler+0x167c>
 8000c46:	f502 6280 	add.w	r2, r2, #1024	; 0x400
 8000c4a:	4293      	cmp	r3, r2
 8000c4c:	f001 8146 	beq.w	8001edc <HAL_DMA_IRQHandler+0x167c>
 8000c50:	f5a2 6289 	sub.w	r2, r2, #1096	; 0x448
 8000c54:	4293      	cmp	r3, r2
 8000c56:	f001 830f 	beq.w	8002278 <HAL_DMA_IRQHandler+0x1a18>
 8000c5a:	f502 6280 	add.w	r2, r2, #1024	; 0x400
 8000c5e:	4293      	cmp	r3, r2
 8000c60:	f001 830a 	beq.w	8002278 <HAL_DMA_IRQHandler+0x1a18>
 8000c64:	f5a2 7268 	sub.w	r2, r2, #928	; 0x3a0
 8000c68:	4293      	cmp	r3, r2
 8000c6a:	f001 8305 	beq.w	8002278 <HAL_DMA_IRQHandler+0x1a18>
 8000c6e:	4856      	ldr	r0, [pc, #344]	; (8000dc8 <HAL_DMA_IRQHandler+0x568>)
 8000c70:	4283      	cmp	r3, r0
 8000c72:	bf0c      	ite	eq
 8000c74:	f44f 2080 	moveq.w	r0, #262144	; 0x40000
 8000c78:	f04f 7080 	movne.w	r0, #16777216	; 0x1000000
 8000c7c:	e000      	b.n	8000c80 <HAL_DMA_IRQHandler+0x420>
 8000c7e:	4851      	ldr	r0, [pc, #324]	; (8000dc4 <HAL_DMA_IRQHandler+0x564>)
 8000c80:	494c      	ldr	r1, [pc, #304]	; (8000db4 <HAL_DMA_IRQHandler+0x554>)
 8000c82:	6ca2      	ldr	r2, [r4, #72]	; 0x48
 8000c84:	60c8      	str	r0, [r1, #12]
 8000c86:	6ce1      	ldr	r1, [r4, #76]	; 0x4c
 8000c88:	2004      	movs	r0, #4
 8000c8a:	4301      	orrs	r1, r0
 8000c8c:	f04f 0c00 	mov.w	ip, #0
 8000c90:	64e1      	str	r1, [r4, #76]	; 0x4c
 8000c92:	f884 c034 	strb.w	ip, [r4, #52]	; 0x34
 8000c96:	f884 0035 	strb.w	r0, [r4, #53]	; 0x35
 8000c9a:	b132      	cbz	r2, 8000caa <HAL_DMA_IRQHandler+0x44a>
 8000c9c:	4620      	mov	r0, r4
 8000c9e:	4790      	blx	r2
 8000ca0:	6823      	ldr	r3, [r4, #0]
 8000ca2:	4a45      	ldr	r2, [pc, #276]	; (8000db8 <HAL_DMA_IRQHandler+0x558>)
 8000ca4:	4293      	cmp	r3, r2
 8000ca6:	f240 8091 	bls.w	8000dcc <HAL_DMA_IRQHandler+0x56c>
 8000caa:	4a44      	ldr	r2, [pc, #272]	; (8000dbc <HAL_DMA_IRQHandler+0x55c>)
 8000cac:	4941      	ldr	r1, [pc, #260]	; (8000db4 <HAL_DMA_IRQHandler+0x554>)
 8000cae:	4293      	cmp	r3, r2
 8000cb0:	6849      	ldr	r1, [r1, #4]
 8000cb2:	d037      	beq.n	8000d24 <HAL_DMA_IRQHandler+0x4c4>
 8000cb4:	f502 6280 	add.w	r2, r2, #1024	; 0x400
 8000cb8:	4293      	cmp	r3, r2
 8000cba:	d033      	beq.n	8000d24 <HAL_DMA_IRQHandler+0x4c4>
 8000cbc:	f5a2 7268 	sub.w	r2, r2, #928	; 0x3a0
 8000cc0:	4293      	cmp	r3, r2
 8000cc2:	d02f      	beq.n	8000d24 <HAL_DMA_IRQHandler+0x4c4>
 8000cc4:	f502 6280 	add.w	r2, r2, #1024	; 0x400
 8000cc8:	4293      	cmp	r3, r2
 8000cca:	d02b      	beq.n	8000d24 <HAL_DMA_IRQHandler+0x4c4>
 8000ccc:	f5a2 6289 	sub.w	r2, r2, #1096	; 0x448
 8000cd0:	4293      	cmp	r3, r2
 8000cd2:	f000 8532 	beq.w	800173a <HAL_DMA_IRQHandler+0xeda>
 8000cd6:	f502 6280 	add.w	r2, r2, #1024	; 0x400
 8000cda:	4293      	cmp	r3, r2
 8000cdc:	f000 852d 	beq.w	800173a <HAL_DMA_IRQHandler+0xeda>
 8000ce0:	f5a2 7268 	sub.w	r2, r2, #928	; 0x3a0
 8000ce4:	4293      	cmp	r3, r2
 8000ce6:	f000 8528 	beq.w	800173a <HAL_DMA_IRQHandler+0xeda>
 8000cea:	f502 6280 	add.w	r2, r2, #1024	; 0x400
 8000cee:	4293      	cmp	r3, r2
 8000cf0:	f000 8523 	beq.w	800173a <HAL_DMA_IRQHandler+0xeda>
 8000cf4:	f5a2 6289 	sub.w	r2, r2, #1096	; 0x448
 8000cf8:	4293      	cmp	r3, r2
 8000cfa:	f001 80fc 	beq.w	8001ef6 <HAL_DMA_IRQHandler+0x1696>
 8000cfe:	f502 6280 	add.w	r2, r2, #1024	; 0x400
 8000d02:	4293      	cmp	r3, r2
 8000d04:	f001 80f7 	beq.w	8001ef6 <HAL_DMA_IRQHandler+0x1696>
 8000d08:	f5a2 7268 	sub.w	r2, r2, #928	; 0x3a0
 8000d0c:	4293      	cmp	r3, r2
 8000d0e:	f001 80f2 	beq.w	8001ef6 <HAL_DMA_IRQHandler+0x1696>
 8000d12:	f502 6280 	add.w	r2, r2, #1024	; 0x400
 8000d16:	4293      	cmp	r3, r2
 8000d18:	bf0c      	ite	eq
 8000d1a:	f44f 1280 	moveq.w	r2, #1048576	; 0x100000
 8000d1e:	f04f 6280 	movne.w	r2, #67108864	; 0x4000000
 8000d22:	e000      	b.n	8000d26 <HAL_DMA_IRQHandler+0x4c6>
 8000d24:	2210      	movs	r2, #16
 8000d26:	4211      	tst	r1, r2
 8000d28:	f040 8156 	bne.w	8000fd8 <HAL_DMA_IRQHandler+0x778>
 8000d2c:	4a23      	ldr	r2, [pc, #140]	; (8000dbc <HAL_DMA_IRQHandler+0x55c>)
 8000d2e:	4921      	ldr	r1, [pc, #132]	; (8000db4 <HAL_DMA_IRQHandler+0x554>)
 8000d30:	4293      	cmp	r3, r2
 8000d32:	6849      	ldr	r1, [r1, #4]
 8000d34:	f000 80e9 	beq.w	8000f0a <HAL_DMA_IRQHandler+0x6aa>
 8000d38:	f502 6280 	add.w	r2, r2, #1024	; 0x400
 8000d3c:	4293      	cmp	r3, r2
 8000d3e:	f000 80e4 	beq.w	8000f0a <HAL_DMA_IRQHandler+0x6aa>
 8000d42:	f5a2 7268 	sub.w	r2, r2, #928	; 0x3a0
 8000d46:	4293      	cmp	r3, r2
 8000d48:	f000 80df 	beq.w	8000f0a <HAL_DMA_IRQHandler+0x6aa>
 8000d4c:	f502 6280 	add.w	r2, r2, #1024	; 0x400
 8000d50:	4293      	cmp	r3, r2
 8000d52:	f000 80da 	beq.w	8000f0a <HAL_DMA_IRQHandler+0x6aa>
 8000d56:	f5a2 6289 	sub.w	r2, r2, #1096	; 0x448
 8000d5a:	4293      	cmp	r3, r2
 8000d5c:	f000 84b3 	beq.w	80016c6 <HAL_DMA_IRQHandler+0xe66>
 8000d60:	f502 6280 	add.w	r2, r2, #1024	; 0x400
 8000d64:	4293      	cmp	r3, r2
 8000d66:	f000 84ae 	beq.w	80016c6 <HAL_DMA_IRQHandler+0xe66>
 8000d6a:	f5a2 7268 	sub.w	r2, r2, #928	; 0x3a0
 8000d6e:	4293      	cmp	r3, r2
 8000d70:	f000 84a9 	beq.w	80016c6 <HAL_DMA_IRQHandler+0xe66>
 8000d74:	f502 6280 	add.w	r2, r2, #1024	; 0x400
 8000d78:	4293      	cmp	r3, r2
 8000d7a:	f000 84a4 	beq.w	80016c6 <HAL_DMA_IRQHandler+0xe66>
 8000d7e:	f5a2 6289 	sub.w	r2, r2, #1096	; 0x448
 8000d82:	4293      	cmp	r3, r2
 8000d84:	f001 807c 	beq.w	8001e80 <HAL_DMA_IRQHandler+0x1620>
 8000d88:	f502 6280 	add.w	r2, r2, #1024	; 0x400
 8000d8c:	4293      	cmp	r3, r2
 8000d8e:	f001 8077 	beq.w	8001e80 <HAL_DMA_IRQHandler+0x1620>
 8000d92:	f5a2 7268 	sub.w	r2, r2, #928	; 0x3a0
 8000d96:	4293      	cmp	r3, r2
 8000d98:	f001 8072 	beq.w	8001e80 <HAL_DMA_IRQHandler+0x1620>
 8000d9c:	f502 6280 	add.w	r2, r2, #1024	; 0x400
 8000da0:	4293      	cmp	r3, r2
 8000da2:	bf0c      	ite	eq
 8000da4:	f44f 1200 	moveq.w	r2, #2097152	; 0x200000
 8000da8:	f04f 6200 	movne.w	r2, #134217728	; 0x8000000
 8000dac:	e0ae      	b.n	8000f0c <HAL_DMA_IRQHandler+0x6ac>
 8000dae:	bf00      	nop
 8000db0:	00800001 	.word	0x00800001
 8000db4:	40026400 	.word	0x40026400
 8000db8:	40026458 	.word	0x40026458
 8000dbc:	40026010 	.word	0x40026010
 8000dc0:	400260b8 	.word	0x400260b8
 8000dc4:	00800004 	.word	0x00800004
 8000dc8:	400264a0 	.word	0x400264a0
 8000dcc:	4ab9      	ldr	r2, [pc, #740]	; (80010b4 <HAL_DMA_IRQHandler+0x854>)
 8000dce:	4293      	cmp	r3, r2
 8000dd0:	f240 817e 	bls.w	80010d0 <HAL_DMA_IRQHandler+0x870>
 8000dd4:	4ab8      	ldr	r2, [pc, #736]	; (80010b8 <HAL_DMA_IRQHandler+0x858>)
 8000dd6:	49b9      	ldr	r1, [pc, #740]	; (80010bc <HAL_DMA_IRQHandler+0x85c>)
 8000dd8:	4293      	cmp	r3, r2
 8000dda:	6809      	ldr	r1, [r1, #0]
 8000ddc:	f000 808c 	beq.w	8000ef8 <HAL_DMA_IRQHandler+0x698>
 8000de0:	f502 6280 	add.w	r2, r2, #1024	; 0x400
 8000de4:	4293      	cmp	r3, r2
 8000de6:	f000 8087 	beq.w	8000ef8 <HAL_DMA_IRQHandler+0x698>
 8000dea:	f5a2 7268 	sub.w	r2, r2, #928	; 0x3a0
 8000dee:	4293      	cmp	r3, r2
 8000df0:	f000 8082 	beq.w	8000ef8 <HAL_DMA_IRQHandler+0x698>
 8000df4:	f502 6280 	add.w	r2, r2, #1024	; 0x400
 8000df8:	4293      	cmp	r3, r2
 8000dfa:	d07d      	beq.n	8000ef8 <HAL_DMA_IRQHandler+0x698>
 8000dfc:	f5a2 6289 	sub.w	r2, r2, #1096	; 0x448
 8000e00:	4293      	cmp	r3, r2
 8000e02:	f001 8031 	beq.w	8001e68 <HAL_DMA_IRQHandler+0x1608>
 8000e06:	f502 6280 	add.w	r2, r2, #1024	; 0x400
 8000e0a:	4293      	cmp	r3, r2
 8000e0c:	f001 802c 	beq.w	8001e68 <HAL_DMA_IRQHandler+0x1608>
 8000e10:	f5a2 7268 	sub.w	r2, r2, #928	; 0x3a0
 8000e14:	4293      	cmp	r3, r2
 8000e16:	f001 8027 	beq.w	8001e68 <HAL_DMA_IRQHandler+0x1608>
 8000e1a:	f502 6280 	add.w	r2, r2, #1024	; 0x400
 8000e1e:	4293      	cmp	r3, r2
 8000e20:	f001 8022 	beq.w	8001e68 <HAL_DMA_IRQHandler+0x1608>
 8000e24:	f5a2 6289 	sub.w	r2, r2, #1096	; 0x448
 8000e28:	4293      	cmp	r3, r2
 8000e2a:	f001 81ec 	beq.w	8002206 <HAL_DMA_IRQHandler+0x19a6>
 8000e2e:	f502 6280 	add.w	r2, r2, #1024	; 0x400
 8000e32:	4293      	cmp	r3, r2
 8000e34:	f001 81e7 	beq.w	8002206 <HAL_DMA_IRQHandler+0x19a6>
 8000e38:	f5a2 7268 	sub.w	r2, r2, #928	; 0x3a0
 8000e3c:	4293      	cmp	r3, r2
 8000e3e:	f001 81e2 	beq.w	8002206 <HAL_DMA_IRQHandler+0x19a6>
 8000e42:	f502 6280 	add.w	r2, r2, #1024	; 0x400
 8000e46:	4293      	cmp	r3, r2
 8000e48:	bf0c      	ite	eq
 8000e4a:	f44f 1280 	moveq.w	r2, #1048576	; 0x100000
 8000e4e:	f04f 6280 	movne.w	r2, #67108864	; 0x4000000
 8000e52:	e052      	b.n	8000efa <HAL_DMA_IRQHandler+0x69a>
 8000e54:	4a97      	ldr	r2, [pc, #604]	; (80010b4 <HAL_DMA_IRQHandler+0x854>)
 8000e56:	4293      	cmp	r3, r2
 8000e58:	f240 83a1 	bls.w	800159e <HAL_DMA_IRQHandler+0xd3e>
 8000e5c:	3aa8      	subs	r2, #168	; 0xa8
 8000e5e:	4293      	cmp	r3, r2
 8000e60:	f000 87d3 	beq.w	8001e0a <HAL_DMA_IRQHandler+0x15aa>
 8000e64:	f502 6280 	add.w	r2, r2, #1024	; 0x400
 8000e68:	4293      	cmp	r3, r2
 8000e6a:	f000 87ce 	beq.w	8001e0a <HAL_DMA_IRQHandler+0x15aa>
 8000e6e:	f5a2 7268 	sub.w	r2, r2, #928	; 0x3a0
 8000e72:	4293      	cmp	r3, r2
 8000e74:	f000 87c9 	beq.w	8001e0a <HAL_DMA_IRQHandler+0x15aa>
 8000e78:	f502 6280 	add.w	r2, r2, #1024	; 0x400
 8000e7c:	4293      	cmp	r3, r2
 8000e7e:	f000 87c4 	beq.w	8001e0a <HAL_DMA_IRQHandler+0x15aa>
 8000e82:	f5a2 6289 	sub.w	r2, r2, #1096	; 0x448
 8000e86:	4293      	cmp	r3, r2
 8000e88:	f001 81b7 	beq.w	80021fa <HAL_DMA_IRQHandler+0x199a>
 8000e8c:	f502 6280 	add.w	r2, r2, #1024	; 0x400
 8000e90:	4293      	cmp	r3, r2
 8000e92:	f001 81b2 	beq.w	80021fa <HAL_DMA_IRQHandler+0x199a>
 8000e96:	f5a2 7268 	sub.w	r2, r2, #928	; 0x3a0
 8000e9a:	4293      	cmp	r3, r2
 8000e9c:	f001 81ad 	beq.w	80021fa <HAL_DMA_IRQHandler+0x199a>
 8000ea0:	f502 6280 	add.w	r2, r2, #1024	; 0x400
 8000ea4:	4293      	cmp	r3, r2
 8000ea6:	f001 81a8 	beq.w	80021fa <HAL_DMA_IRQHandler+0x199a>
 8000eaa:	f5a2 6289 	sub.w	r2, r2, #1096	; 0x448
 8000eae:	4293      	cmp	r3, r2
 8000eb0:	f001 82c0 	beq.w	8002434 <HAL_DMA_IRQHandler+0x1bd4>
 8000eb4:	f502 6280 	add.w	r2, r2, #1024	; 0x400
 8000eb8:	4293      	cmp	r3, r2
 8000eba:	f001 82bb 	beq.w	8002434 <HAL_DMA_IRQHandler+0x1bd4>
 8000ebe:	f5a2 7268 	sub.w	r2, r2, #928	; 0x3a0
 8000ec2:	4293      	cmp	r3, r2
 8000ec4:	f001 82b6 	beq.w	8002434 <HAL_DMA_IRQHandler+0x1bd4>
 8000ec8:	487d      	ldr	r0, [pc, #500]	; (80010c0 <HAL_DMA_IRQHandler+0x860>)
 8000eca:	4283      	cmp	r3, r0
 8000ecc:	bf0c      	ite	eq
 8000ece:	f44f 2080 	moveq.w	r0, #262144	; 0x40000
 8000ed2:	f04f 7080 	movne.w	r0, #16777216	; 0x1000000
 8000ed6:	4979      	ldr	r1, [pc, #484]	; (80010bc <HAL_DMA_IRQHandler+0x85c>)
 8000ed8:	6ca2      	ldr	r2, [r4, #72]	; 0x48
 8000eda:	6088      	str	r0, [r1, #8]
 8000edc:	6ce1      	ldr	r1, [r4, #76]	; 0x4c
 8000ede:	2004      	movs	r0, #4
 8000ee0:	4301      	orrs	r1, r0
 8000ee2:	f04f 0c00 	mov.w	ip, #0
 8000ee6:	64e1      	str	r1, [r4, #76]	; 0x4c
 8000ee8:	f884 c034 	strb.w	ip, [r4, #52]	; 0x34
 8000eec:	f884 0035 	strb.w	r0, [r4, #53]	; 0x35
 8000ef0:	2a00      	cmp	r2, #0
 8000ef2:	f47f aed3 	bne.w	8000c9c <HAL_DMA_IRQHandler+0x43c>
 8000ef6:	e76d      	b.n	8000dd4 <HAL_DMA_IRQHandler+0x574>
 8000ef8:	2210      	movs	r2, #16
 8000efa:	4211      	tst	r1, r2
 8000efc:	d16c      	bne.n	8000fd8 <HAL_DMA_IRQHandler+0x778>
 8000efe:	4a6e      	ldr	r2, [pc, #440]	; (80010b8 <HAL_DMA_IRQHandler+0x858>)
 8000f00:	496e      	ldr	r1, [pc, #440]	; (80010bc <HAL_DMA_IRQHandler+0x85c>)
 8000f02:	4293      	cmp	r3, r2
 8000f04:	6809      	ldr	r1, [r1, #0]
 8000f06:	f47f af17 	bne.w	8000d38 <HAL_DMA_IRQHandler+0x4d8>
 8000f0a:	2220      	movs	r2, #32
 8000f0c:	4211      	tst	r1, r2
 8000f0e:	bf14      	ite	ne
 8000f10:	2201      	movne	r2, #1
 8000f12:	2200      	moveq	r2, #0
 8000f14:	2a00      	cmp	r2, #0
 8000f16:	d05e      	beq.n	8000fd6 <HAL_DMA_IRQHandler+0x776>
 8000f18:	681a      	ldr	r2, [r3, #0]
 8000f1a:	06d2      	lsls	r2, r2, #27
 8000f1c:	d55b      	bpl.n	8000fd6 <HAL_DMA_IRQHandler+0x776>
 8000f1e:	681a      	ldr	r2, [r3, #0]
 8000f20:	0356      	lsls	r6, r2, #13
 8000f22:	f100 8227 	bmi.w	8001374 <HAL_DMA_IRQHandler+0xb14>
 8000f26:	681a      	ldr	r2, [r3, #0]
 8000f28:	05d1      	lsls	r1, r2, #23
 8000f2a:	d403      	bmi.n	8000f34 <HAL_DMA_IRQHandler+0x6d4>
 8000f2c:	681a      	ldr	r2, [r3, #0]
 8000f2e:	f022 0210 	bic.w	r2, r2, #16
 8000f32:	601a      	str	r2, [r3, #0]
 8000f34:	4a63      	ldr	r2, [pc, #396]	; (80010c4 <HAL_DMA_IRQHandler+0x864>)
 8000f36:	4293      	cmp	r3, r2
 8000f38:	f240 845a 	bls.w	80017f0 <HAL_DMA_IRQHandler+0xf90>
 8000f3c:	f5a2 6289 	sub.w	r2, r2, #1096	; 0x448
 8000f40:	4293      	cmp	r3, r2
 8000f42:	f000 8779 	beq.w	8001e38 <HAL_DMA_IRQHandler+0x15d8>
 8000f46:	f502 6280 	add.w	r2, r2, #1024	; 0x400
 8000f4a:	4293      	cmp	r3, r2
 8000f4c:	f000 8774 	beq.w	8001e38 <HAL_DMA_IRQHandler+0x15d8>
 8000f50:	f5a2 7268 	sub.w	r2, r2, #928	; 0x3a0
 8000f54:	4293      	cmp	r3, r2
 8000f56:	f000 876f 	beq.w	8001e38 <HAL_DMA_IRQHandler+0x15d8>
 8000f5a:	f502 6280 	add.w	r2, r2, #1024	; 0x400
 8000f5e:	4293      	cmp	r3, r2
 8000f60:	f000 876a 	beq.w	8001e38 <HAL_DMA_IRQHandler+0x15d8>
 8000f64:	f5a2 6289 	sub.w	r2, r2, #1096	; 0x448
 8000f68:	4293      	cmp	r3, r2
 8000f6a:	f001 8133 	beq.w	80021d4 <HAL_DMA_IRQHandler+0x1974>
 8000f6e:	f502 6280 	add.w	r2, r2, #1024	; 0x400
 8000f72:	4293      	cmp	r3, r2
 8000f74:	f001 812e 	beq.w	80021d4 <HAL_DMA_IRQHandler+0x1974>
 8000f78:	f5a2 7268 	sub.w	r2, r2, #928	; 0x3a0
 8000f7c:	4293      	cmp	r3, r2
 8000f7e:	f001 8129 	beq.w	80021d4 <HAL_DMA_IRQHandler+0x1974>
 8000f82:	f502 6280 	add.w	r2, r2, #1024	; 0x400
 8000f86:	4293      	cmp	r3, r2
 8000f88:	f001 8124 	beq.w	80021d4 <HAL_DMA_IRQHandler+0x1974>
 8000f8c:	f5a2 6289 	sub.w	r2, r2, #1096	; 0x448
 8000f90:	4293      	cmp	r3, r2
 8000f92:	f001 8253 	beq.w	800243c <HAL_DMA_IRQHandler+0x1bdc>
 8000f96:	f502 6280 	add.w	r2, r2, #1024	; 0x400
 8000f9a:	4293      	cmp	r3, r2
 8000f9c:	f001 824e 	beq.w	800243c <HAL_DMA_IRQHandler+0x1bdc>
 8000fa0:	f5a2 7268 	sub.w	r2, r2, #928	; 0x3a0
 8000fa4:	4293      	cmp	r3, r2
 8000fa6:	f001 8249 	beq.w	800243c <HAL_DMA_IRQHandler+0x1bdc>
 8000faa:	f502 6280 	add.w	r2, r2, #1024	; 0x400
 8000fae:	4293      	cmp	r3, r2
 8000fb0:	bf0c      	ite	eq
 8000fb2:	f44f 1200 	moveq.w	r2, #2097152	; 0x200000
 8000fb6:	f04f 6200 	movne.w	r2, #134217728	; 0x8000000
 8000fba:	4b40      	ldr	r3, [pc, #256]	; (80010bc <HAL_DMA_IRQHandler+0x85c>)
 8000fbc:	60da      	str	r2, [r3, #12]
 8000fbe:	6be3      	ldr	r3, [r4, #60]	; 0x3c
 8000fc0:	6ce0      	ldr	r0, [r4, #76]	; 0x4c
 8000fc2:	64e0      	str	r0, [r4, #76]	; 0x4c
 8000fc4:	2211      	movs	r2, #17
 8000fc6:	2100      	movs	r1, #0
 8000fc8:	f884 1034 	strb.w	r1, [r4, #52]	; 0x34
 8000fcc:	f884 2035 	strb.w	r2, [r4, #53]	; 0x35
 8000fd0:	2b00      	cmp	r3, #0
 8000fd2:	f040 821b 	bne.w	800140c <HAL_DMA_IRQHandler+0xbac>
 8000fd6:	bd70      	pop	{r4, r5, r6, pc}
 8000fd8:	681a      	ldr	r2, [r3, #0]
 8000fda:	0712      	lsls	r2, r2, #28
 8000fdc:	d40b      	bmi.n	8000ff6 <HAL_DMA_IRQHandler+0x796>
 8000fde:	4a39      	ldr	r2, [pc, #228]	; (80010c4 <HAL_DMA_IRQHandler+0x864>)
 8000fe0:	4293      	cmp	r3, r2
 8000fe2:	f63f aea3 	bhi.w	8000d2c <HAL_DMA_IRQHandler+0x4cc>
 8000fe6:	4a33      	ldr	r2, [pc, #204]	; (80010b4 <HAL_DMA_IRQHandler+0x854>)
 8000fe8:	4293      	cmp	r3, r2
 8000fea:	d888      	bhi.n	8000efe <HAL_DMA_IRQHandler+0x69e>
 8000fec:	4a36      	ldr	r2, [pc, #216]	; (80010c8 <HAL_DMA_IRQHandler+0x868>)
 8000fee:	4293      	cmp	r3, r2
 8000ff0:	f200 839b 	bhi.w	800172a <HAL_DMA_IRQHandler+0xeca>
 8000ff4:	e38d      	b.n	8001712 <HAL_DMA_IRQHandler+0xeb2>
 8000ff6:	681a      	ldr	r2, [r3, #0]
 8000ff8:	0356      	lsls	r6, r2, #13
 8000ffa:	f100 820b 	bmi.w	8001414 <HAL_DMA_IRQHandler+0xbb4>
 8000ffe:	681a      	ldr	r2, [r3, #0]
 8001000:	05d1      	lsls	r1, r2, #23
 8001002:	d403      	bmi.n	800100c <HAL_DMA_IRQHandler+0x7ac>
 8001004:	681a      	ldr	r2, [r3, #0]
 8001006:	f022 0208 	bic.w	r2, r2, #8
 800100a:	601a      	str	r2, [r3, #0]
 800100c:	4a2d      	ldr	r2, [pc, #180]	; (80010c4 <HAL_DMA_IRQHandler+0x864>)
 800100e:	4293      	cmp	r3, r2
 8001010:	f240 8481 	bls.w	8001916 <HAL_DMA_IRQHandler+0x10b6>
 8001014:	f5a2 6289 	sub.w	r2, r2, #1096	; 0x448
 8001018:	4293      	cmp	r3, r2
 800101a:	f000 86f9 	beq.w	8001e10 <HAL_DMA_IRQHandler+0x15b0>
 800101e:	f502 6280 	add.w	r2, r2, #1024	; 0x400
 8001022:	4293      	cmp	r3, r2
 8001024:	f000 86f4 	beq.w	8001e10 <HAL_DMA_IRQHandler+0x15b0>
 8001028:	f5a2 7268 	sub.w	r2, r2, #928	; 0x3a0
 800102c:	4293      	cmp	r3, r2
 800102e:	f000 86ef 	beq.w	8001e10 <HAL_DMA_IRQHandler+0x15b0>
 8001032:	f502 6280 	add.w	r2, r2, #1024	; 0x400
 8001036:	4293      	cmp	r3, r2
 8001038:	f000 86ea 	beq.w	8001e10 <HAL_DMA_IRQHandler+0x15b0>
 800103c:	f5a2 6289 	sub.w	r2, r2, #1096	; 0x448
 8001040:	4293      	cmp	r3, r2
 8001042:	f001 80cf 	beq.w	80021e4 <HAL_DMA_IRQHandler+0x1984>
 8001046:	f502 6280 	add.w	r2, r2, #1024	; 0x400
 800104a:	4293      	cmp	r3, r2
 800104c:	f001 80ca 	beq.w	80021e4 <HAL_DMA_IRQHandler+0x1984>
 8001050:	f5a2 7268 	sub.w	r2, r2, #928	; 0x3a0
 8001054:	4293      	cmp	r3, r2
 8001056:	f001 80c5 	beq.w	80021e4 <HAL_DMA_IRQHandler+0x1984>
 800105a:	f502 6280 	add.w	r2, r2, #1024	; 0x400
 800105e:	4293      	cmp	r3, r2
 8001060:	f001 80c0 	beq.w	80021e4 <HAL_DMA_IRQHandler+0x1984>
 8001064:	f5a2 6289 	sub.w	r2, r2, #1096	; 0x448
 8001068:	4293      	cmp	r3, r2
 800106a:	f001 81d7 	beq.w	800241c <HAL_DMA_IRQHandler+0x1bbc>
 800106e:	f502 6280 	add.w	r2, r2, #1024	; 0x400
 8001072:	4293      	cmp	r3, r2
 8001074:	f001 81d2 	beq.w	800241c <HAL_DMA_IRQHandler+0x1bbc>
 8001078:	f5a2 7268 	sub.w	r2, r2, #928	; 0x3a0
 800107c:	4293      	cmp	r3, r2
 800107e:	f001 81cd 	beq.w	800241c <HAL_DMA_IRQHandler+0x1bbc>
 8001082:	490f      	ldr	r1, [pc, #60]	; (80010c0 <HAL_DMA_IRQHandler+0x860>)
 8001084:	428b      	cmp	r3, r1
 8001086:	bf0c      	ite	eq
 8001088:	f44f 1180 	moveq.w	r1, #1048576	; 0x100000
 800108c:	f04f 6180 	movne.w	r1, #67108864	; 0x4000000
 8001090:	4a0a      	ldr	r2, [pc, #40]	; (80010bc <HAL_DMA_IRQHandler+0x85c>)
 8001092:	60d1      	str	r1, [r2, #12]
 8001094:	2231      	movs	r2, #49	; 0x31
 8001096:	f884 2035 	strb.w	r2, [r4, #53]	; 0x35
 800109a:	e209      	b.n	80014b0 <HAL_DMA_IRQHandler+0xc50>
 800109c:	4a0a      	ldr	r2, [pc, #40]	; (80010c8 <HAL_DMA_IRQHandler+0x868>)
 800109e:	480b      	ldr	r0, [pc, #44]	; (80010cc <HAL_DMA_IRQHandler+0x86c>)
 80010a0:	4293      	cmp	r3, r2
 80010a2:	f240 80fd 	bls.w	80012a0 <HAL_DMA_IRQHandler+0xa40>
 80010a6:	3a48      	subs	r2, #72	; 0x48
 80010a8:	4293      	cmp	r3, r2
 80010aa:	6840      	ldr	r0, [r0, #4]
 80010ac:	f47f abe5 	bne.w	800087a <HAL_DMA_IRQHandler+0x1a>
 80010b0:	e424      	b.n	80008fc <HAL_DMA_IRQHandler+0x9c>
 80010b2:	bf00      	nop
 80010b4:	400260b8 	.word	0x400260b8
 80010b8:	40026010 	.word	0x40026010
 80010bc:	40026400 	.word	0x40026400
 80010c0:	400264a0 	.word	0x400264a0
 80010c4:	40026458 	.word	0x40026458
 80010c8:	40026058 	.word	0x40026058
 80010cc:	40026000 	.word	0x40026000
 80010d0:	4aa2      	ldr	r2, [pc, #648]	; (800135c <HAL_DMA_IRQHandler+0xafc>)
 80010d2:	4293      	cmp	r3, r2
 80010d4:	f240 82b3 	bls.w	800163e <HAL_DMA_IRQHandler+0xdde>
 80010d8:	4aa1      	ldr	r2, [pc, #644]	; (8001360 <HAL_DMA_IRQHandler+0xb00>)
 80010da:	49a2      	ldr	r1, [pc, #648]	; (8001364 <HAL_DMA_IRQHandler+0xb04>)
 80010dc:	4293      	cmp	r3, r2
 80010de:	6849      	ldr	r1, [r1, #4]
 80010e0:	f000 831f 	beq.w	8001722 <HAL_DMA_IRQHandler+0xec2>
 80010e4:	f502 6280 	add.w	r2, r2, #1024	; 0x400
 80010e8:	4293      	cmp	r3, r2
 80010ea:	f000 831a 	beq.w	8001722 <HAL_DMA_IRQHandler+0xec2>
 80010ee:	f5a2 7268 	sub.w	r2, r2, #928	; 0x3a0
 80010f2:	4293      	cmp	r3, r2
 80010f4:	f000 8315 	beq.w	8001722 <HAL_DMA_IRQHandler+0xec2>
 80010f8:	f502 6280 	add.w	r2, r2, #1024	; 0x400
 80010fc:	4293      	cmp	r3, r2
 80010fe:	f000 8310 	beq.w	8001722 <HAL_DMA_IRQHandler+0xec2>
 8001102:	f5a2 6289 	sub.w	r2, r2, #1096	; 0x448
 8001106:	4293      	cmp	r3, r2
 8001108:	f000 86f2 	beq.w	8001ef0 <HAL_DMA_IRQHandler+0x1690>
 800110c:	f502 6280 	add.w	r2, r2, #1024	; 0x400
 8001110:	4293      	cmp	r3, r2
 8001112:	f000 86ed 	beq.w	8001ef0 <HAL_DMA_IRQHandler+0x1690>
 8001116:	f5a2 7268 	sub.w	r2, r2, #928	; 0x3a0
 800111a:	4293      	cmp	r3, r2
 800111c:	f000 86e8 	beq.w	8001ef0 <HAL_DMA_IRQHandler+0x1690>
 8001120:	f502 6280 	add.w	r2, r2, #1024	; 0x400
 8001124:	4293      	cmp	r3, r2
 8001126:	f000 86e3 	beq.w	8001ef0 <HAL_DMA_IRQHandler+0x1690>
 800112a:	f5a2 6289 	sub.w	r2, r2, #1096	; 0x448
 800112e:	4293      	cmp	r3, r2
 8001130:	f001 80c6 	beq.w	80022c0 <HAL_DMA_IRQHandler+0x1a60>
 8001134:	f502 6280 	add.w	r2, r2, #1024	; 0x400
 8001138:	4293      	cmp	r3, r2
 800113a:	f001 80c1 	beq.w	80022c0 <HAL_DMA_IRQHandler+0x1a60>
 800113e:	f5a2 7268 	sub.w	r2, r2, #928	; 0x3a0
 8001142:	4293      	cmp	r3, r2
 8001144:	f001 80bc 	beq.w	80022c0 <HAL_DMA_IRQHandler+0x1a60>
 8001148:	f502 6280 	add.w	r2, r2, #1024	; 0x400
 800114c:	4293      	cmp	r3, r2
 800114e:	bf0c      	ite	eq
 8001150:	f44f 1280 	moveq.w	r2, #1048576	; 0x100000
 8001154:	f04f 6280 	movne.w	r2, #67108864	; 0x4000000
 8001158:	e2e4      	b.n	8001724 <HAL_DMA_IRQHandler+0xec4>
 800115a:	4a80      	ldr	r2, [pc, #512]	; (800135c <HAL_DMA_IRQHandler+0xafc>)
 800115c:	4881      	ldr	r0, [pc, #516]	; (8001364 <HAL_DMA_IRQHandler+0xb04>)
 800115e:	4293      	cmp	r3, r2
 8001160:	f240 82aa 	bls.w	80016b8 <HAL_DMA_IRQHandler+0xe58>
 8001164:	3a48      	subs	r2, #72	; 0x48
 8001166:	4293      	cmp	r3, r2
 8001168:	6840      	ldr	r0, [r0, #4]
 800116a:	f47f ac45 	bne.w	80009f8 <HAL_DMA_IRQHandler+0x198>
 800116e:	e484      	b.n	8000a7a <HAL_DMA_IRQHandler+0x21a>
 8001170:	4a7a      	ldr	r2, [pc, #488]	; (800135c <HAL_DMA_IRQHandler+0xafc>)
 8001172:	4293      	cmp	r3, r2
 8001174:	f200 81fd 	bhi.w	8001572 <HAL_DMA_IRQHandler+0xd12>
 8001178:	4a79      	ldr	r2, [pc, #484]	; (8001360 <HAL_DMA_IRQHandler+0xb00>)
 800117a:	497a      	ldr	r1, [pc, #488]	; (8001364 <HAL_DMA_IRQHandler+0xb04>)
 800117c:	4293      	cmp	r3, r2
 800117e:	6809      	ldr	r1, [r1, #0]
 8001180:	f000 81fd 	beq.w	800157e <HAL_DMA_IRQHandler+0xd1e>
 8001184:	f502 6280 	add.w	r2, r2, #1024	; 0x400
 8001188:	4293      	cmp	r3, r2
 800118a:	f000 81f8 	beq.w	800157e <HAL_DMA_IRQHandler+0xd1e>
 800118e:	f5a2 7268 	sub.w	r2, r2, #928	; 0x3a0
 8001192:	4293      	cmp	r3, r2
 8001194:	f000 81f3 	beq.w	800157e <HAL_DMA_IRQHandler+0xd1e>
 8001198:	f502 6280 	add.w	r2, r2, #1024	; 0x400
 800119c:	4293      	cmp	r3, r2
 800119e:	f000 81ee 	beq.w	800157e <HAL_DMA_IRQHandler+0xd1e>
 80011a2:	f5a2 6289 	sub.w	r2, r2, #1096	; 0x448
 80011a6:	4293      	cmp	r3, r2
 80011a8:	f000 8662 	beq.w	8001e70 <HAL_DMA_IRQHandler+0x1610>
 80011ac:	f502 6280 	add.w	r2, r2, #1024	; 0x400
 80011b0:	4293      	cmp	r3, r2
 80011b2:	f000 865d 	beq.w	8001e70 <HAL_DMA_IRQHandler+0x1610>
 80011b6:	f5a2 7268 	sub.w	r2, r2, #928	; 0x3a0
 80011ba:	4293      	cmp	r3, r2
 80011bc:	f000 8658 	beq.w	8001e70 <HAL_DMA_IRQHandler+0x1610>
 80011c0:	f502 6280 	add.w	r2, r2, #1024	; 0x400
 80011c4:	4293      	cmp	r3, r2
 80011c6:	f000 8653 	beq.w	8001e70 <HAL_DMA_IRQHandler+0x1610>
 80011ca:	f5a2 6289 	sub.w	r2, r2, #1096	; 0x448
 80011ce:	4293      	cmp	r3, r2
 80011d0:	f001 801d 	beq.w	800220e <HAL_DMA_IRQHandler+0x19ae>
 80011d4:	f502 6280 	add.w	r2, r2, #1024	; 0x400
 80011d8:	4293      	cmp	r3, r2
 80011da:	f001 8018 	beq.w	800220e <HAL_DMA_IRQHandler+0x19ae>
 80011de:	f5a2 7268 	sub.w	r2, r2, #928	; 0x3a0
 80011e2:	4293      	cmp	r3, r2
 80011e4:	f001 8013 	beq.w	800220e <HAL_DMA_IRQHandler+0x19ae>
 80011e8:	f502 6280 	add.w	r2, r2, #1024	; 0x400
 80011ec:	4293      	cmp	r3, r2
 80011ee:	bf0c      	ite	eq
 80011f0:	f44f 2280 	moveq.w	r2, #262144	; 0x40000
 80011f4:	f04f 7280 	movne.w	r2, #16777216	; 0x1000000
 80011f8:	e1c2      	b.n	8001580 <HAL_DMA_IRQHandler+0xd20>
 80011fa:	4a5b      	ldr	r2, [pc, #364]	; (8001368 <HAL_DMA_IRQHandler+0xb08>)
 80011fc:	4291      	cmp	r1, r2
 80011fe:	f240 8165 	bls.w	80014cc <HAL_DMA_IRQHandler+0xc6c>
 8001202:	3aa8      	subs	r2, #168	; 0xa8
 8001204:	4293      	cmp	r3, r2
 8001206:	f000 8614 	beq.w	8001e32 <HAL_DMA_IRQHandler+0x15d2>
 800120a:	f502 6280 	add.w	r2, r2, #1024	; 0x400
 800120e:	4293      	cmp	r3, r2
 8001210:	f000 860f 	beq.w	8001e32 <HAL_DMA_IRQHandler+0x15d2>
 8001214:	f5a2 7268 	sub.w	r2, r2, #928	; 0x3a0
 8001218:	4293      	cmp	r3, r2
 800121a:	f000 860a 	beq.w	8001e32 <HAL_DMA_IRQHandler+0x15d2>
 800121e:	f502 6280 	add.w	r2, r2, #1024	; 0x400
 8001222:	4293      	cmp	r3, r2
 8001224:	f000 8605 	beq.w	8001e32 <HAL_DMA_IRQHandler+0x15d2>
 8001228:	f5a2 6289 	sub.w	r2, r2, #1096	; 0x448
 800122c:	4293      	cmp	r3, r2
 800122e:	f000 87dd 	beq.w	80021ec <HAL_DMA_IRQHandler+0x198c>
 8001232:	f502 6280 	add.w	r2, r2, #1024	; 0x400
 8001236:	4293      	cmp	r3, r2
 8001238:	f000 87d8 	beq.w	80021ec <HAL_DMA_IRQHandler+0x198c>
 800123c:	f5a2 7268 	sub.w	r2, r2, #928	; 0x3a0
 8001240:	4293      	cmp	r3, r2
 8001242:	f000 87d3 	beq.w	80021ec <HAL_DMA_IRQHandler+0x198c>
 8001246:	f502 6280 	add.w	r2, r2, #1024	; 0x400
 800124a:	4293      	cmp	r3, r2
 800124c:	f000 87ce 	beq.w	80021ec <HAL_DMA_IRQHandler+0x198c>
 8001250:	f5a2 6289 	sub.w	r2, r2, #1096	; 0x448
 8001254:	4293      	cmp	r3, r2
 8001256:	f001 80e9 	beq.w	800242c <HAL_DMA_IRQHandler+0x1bcc>
 800125a:	f502 6280 	add.w	r2, r2, #1024	; 0x400
 800125e:	4293      	cmp	r3, r2
 8001260:	f001 80e4 	beq.w	800242c <HAL_DMA_IRQHandler+0x1bcc>
 8001264:	f5a2 7268 	sub.w	r2, r2, #928	; 0x3a0
 8001268:	4293      	cmp	r3, r2
 800126a:	f001 80df 	beq.w	800242c <HAL_DMA_IRQHandler+0x1bcc>
 800126e:	493f      	ldr	r1, [pc, #252]	; (800136c <HAL_DMA_IRQHandler+0xb0c>)
 8001270:	428b      	cmp	r3, r1
 8001272:	bf0c      	ite	eq
 8001274:	f44f 3180 	moveq.w	r1, #65536	; 0x10000
 8001278:	f44f 0180 	movne.w	r1, #4194304	; 0x400000
 800127c:	4a3c      	ldr	r2, [pc, #240]	; (8001370 <HAL_DMA_IRQHandler+0xb10>)
 800127e:	6ca3      	ldr	r3, [r4, #72]	; 0x48
 8001280:	6091      	str	r1, [r2, #8]
 8001282:	6ce2      	ldr	r2, [r4, #76]	; 0x4c
 8001284:	2104      	movs	r1, #4
 8001286:	f042 0202 	orr.w	r2, r2, #2
 800128a:	2000      	movs	r0, #0
 800128c:	64e2      	str	r2, [r4, #76]	; 0x4c
 800128e:	f884 0034 	strb.w	r0, [r4, #52]	; 0x34
 8001292:	f884 1035 	strb.w	r1, [r4, #53]	; 0x35
 8001296:	2b00      	cmp	r3, #0
 8001298:	f47f ac59 	bne.w	8000b4e <HAL_DMA_IRQHandler+0x2ee>
 800129c:	6823      	ldr	r3, [r4, #0]
 800129e:	e49d      	b.n	8000bdc <HAL_DMA_IRQHandler+0x37c>
 80012a0:	4a2f      	ldr	r2, [pc, #188]	; (8001360 <HAL_DMA_IRQHandler+0xb00>)
 80012a2:	6800      	ldr	r0, [r0, #0]
 80012a4:	4293      	cmp	r3, r2
 80012a6:	f47f aae8 	bne.w	800087a <HAL_DMA_IRQHandler+0x1a>
 80012aa:	f7ff bb27 	b.w	80008fc <HAL_DMA_IRQHandler+0x9c>
 80012ae:	4a2e      	ldr	r2, [pc, #184]	; (8001368 <HAL_DMA_IRQHandler+0xb08>)
 80012b0:	4293      	cmp	r3, r2
 80012b2:	f240 837a 	bls.w	80019aa <HAL_DMA_IRQHandler+0x114a>
 80012b6:	3aa8      	subs	r2, #168	; 0xa8
 80012b8:	4293      	cmp	r3, r2
 80012ba:	f000 85c0 	beq.w	8001e3e <HAL_DMA_IRQHandler+0x15de>
 80012be:	f502 6280 	add.w	r2, r2, #1024	; 0x400
 80012c2:	4293      	cmp	r3, r2
 80012c4:	f000 8746 	beq.w	8002154 <HAL_DMA_IRQHandler+0x18f4>
 80012c8:	f5a2 7268 	sub.w	r2, r2, #928	; 0x3a0
 80012cc:	4293      	cmp	r3, r2
 80012ce:	f000 85b6 	beq.w	8001e3e <HAL_DMA_IRQHandler+0x15de>
 80012d2:	f502 6280 	add.w	r2, r2, #1024	; 0x400
 80012d6:	4293      	cmp	r3, r2
 80012d8:	f000 85b1 	beq.w	8001e3e <HAL_DMA_IRQHandler+0x15de>
 80012dc:	f5a2 6289 	sub.w	r2, r2, #1096	; 0x448
 80012e0:	4293      	cmp	r3, r2
 80012e2:	f001 8009 	beq.w	80022f8 <HAL_DMA_IRQHandler+0x1a98>
 80012e6:	f502 6280 	add.w	r2, r2, #1024	; 0x400
 80012ea:	4293      	cmp	r3, r2
 80012ec:	f001 801e 	beq.w	800232c <HAL_DMA_IRQHandler+0x1acc>
 80012f0:	f5a2 7268 	sub.w	r2, r2, #928	; 0x3a0
 80012f4:	4293      	cmp	r3, r2
 80012f6:	f000 81ed 	beq.w	80016d4 <HAL_DMA_IRQHandler+0xe74>
 80012fa:	f502 6280 	add.w	r2, r2, #1024	; 0x400
 80012fe:	4293      	cmp	r3, r2
 8001300:	f000 81e8 	beq.w	80016d4 <HAL_DMA_IRQHandler+0xe74>
 8001304:	f5a2 6289 	sub.w	r2, r2, #1096	; 0x448
 8001308:	4293      	cmp	r3, r2
 800130a:	f001 80bb 	beq.w	8002484 <HAL_DMA_IRQHandler+0x1c24>
 800130e:	f502 6280 	add.w	r2, r2, #1024	; 0x400
 8001312:	4293      	cmp	r3, r2
 8001314:	f001 80ef 	beq.w	80024f6 <HAL_DMA_IRQHandler+0x1c96>
 8001318:	f5a2 7268 	sub.w	r2, r2, #928	; 0x3a0
 800131c:	4293      	cmp	r3, r2
 800131e:	f001 80b1 	beq.w	8002484 <HAL_DMA_IRQHandler+0x1c24>
 8001322:	f502 6280 	add.w	r2, r2, #1024	; 0x400
 8001326:	4293      	cmp	r3, r2
 8001328:	f001 80ac 	beq.w	8002484 <HAL_DMA_IRQHandler+0x1c24>
 800132c:	4d10      	ldr	r5, [pc, #64]	; (8001370 <HAL_DMA_IRQHandler+0xb10>)
 800132e:	f04f 7200 	mov.w	r2, #33554432	; 0x2000000
 8001332:	60aa      	str	r2, [r5, #8]
 8001334:	6ce0      	ldr	r0, [r4, #76]	; 0x4c
 8001336:	6ca2      	ldr	r2, [r4, #72]	; 0x48
 8001338:	f040 0001 	orr.w	r0, r0, #1
 800133c:	64e0      	str	r0, [r4, #76]	; 0x4c
 800133e:	f04f 0c04 	mov.w	ip, #4
 8001342:	2000      	movs	r0, #0
 8001344:	f884 c035 	strb.w	ip, [r4, #53]	; 0x35
 8001348:	f884 0034 	strb.w	r0, [r4, #52]	; 0x34
 800134c:	2a00      	cmp	r2, #0
 800134e:	f47f ab46 	bne.w	80009de <HAL_DMA_IRQHandler+0x17e>
 8001352:	6828      	ldr	r0, [r5, #0]
 8001354:	f44f 0280 	mov.w	r2, #4194304	; 0x400000
 8001358:	f7ff bb90 	b.w	8000a7c <HAL_DMA_IRQHandler+0x21c>
 800135c:	40026058 	.word	0x40026058
 8001360:	40026010 	.word	0x40026010
 8001364:	40026000 	.word	0x40026000
 8001368:	400260b8 	.word	0x400260b8
 800136c:	400264a0 	.word	0x400264a0
 8001370:	40026400 	.word	0x40026400
 8001374:	4a52      	ldr	r2, [pc, #328]	; (80014c0 <HAL_DMA_IRQHandler+0xc60>)
 8001376:	4293      	cmp	r3, r2
 8001378:	f240 81e3 	bls.w	8001742 <HAL_DMA_IRQHandler+0xee2>
 800137c:	f5a2 6289 	sub.w	r2, r2, #1096	; 0x448
 8001380:	4293      	cmp	r3, r2
 8001382:	f000 8548 	beq.w	8001e16 <HAL_DMA_IRQHandler+0x15b6>
 8001386:	f502 6280 	add.w	r2, r2, #1024	; 0x400
 800138a:	4293      	cmp	r3, r2
 800138c:	f000 8543 	beq.w	8001e16 <HAL_DMA_IRQHandler+0x15b6>
 8001390:	f5a2 7268 	sub.w	r2, r2, #928	; 0x3a0
 8001394:	4293      	cmp	r3, r2
 8001396:	f000 853e 	beq.w	8001e16 <HAL_DMA_IRQHandler+0x15b6>
 800139a:	f502 6280 	add.w	r2, r2, #1024	; 0x400
 800139e:	4293      	cmp	r3, r2
 80013a0:	f000 8539 	beq.w	8001e16 <HAL_DMA_IRQHandler+0x15b6>
 80013a4:	f5a2 6289 	sub.w	r2, r2, #1096	; 0x448
 80013a8:	4293      	cmp	r3, r2
 80013aa:	f000 8717 	beq.w	80021dc <HAL_DMA_IRQHandler+0x197c>
 80013ae:	f502 6280 	add.w	r2, r2, #1024	; 0x400
 80013b2:	4293      	cmp	r3, r2
 80013b4:	f000 8712 	beq.w	80021dc <HAL_DMA_IRQHandler+0x197c>
 80013b8:	f5a2 7268 	sub.w	r2, r2, #928	; 0x3a0
 80013bc:	4293      	cmp	r3, r2
 80013be:	f000 870d 	beq.w	80021dc <HAL_DMA_IRQHandler+0x197c>
 80013c2:	f502 6280 	add.w	r2, r2, #1024	; 0x400
 80013c6:	4293      	cmp	r3, r2
 80013c8:	f000 8708 	beq.w	80021dc <HAL_DMA_IRQHandler+0x197c>
 80013cc:	f5a2 6289 	sub.w	r2, r2, #1096	; 0x448
 80013d0:	4293      	cmp	r3, r2
 80013d2:	f001 801f 	beq.w	8002414 <HAL_DMA_IRQHandler+0x1bb4>
 80013d6:	f502 6280 	add.w	r2, r2, #1024	; 0x400
 80013da:	4293      	cmp	r3, r2
 80013dc:	f001 801a 	beq.w	8002414 <HAL_DMA_IRQHandler+0x1bb4>
 80013e0:	f5a2 7268 	sub.w	r2, r2, #928	; 0x3a0
 80013e4:	4293      	cmp	r3, r2
 80013e6:	f001 8015 	beq.w	8002414 <HAL_DMA_IRQHandler+0x1bb4>
 80013ea:	4936      	ldr	r1, [pc, #216]	; (80014c4 <HAL_DMA_IRQHandler+0xc64>)
 80013ec:	428b      	cmp	r3, r1
 80013ee:	bf0c      	ite	eq
 80013f0:	f44f 1100 	moveq.w	r1, #2097152	; 0x200000
 80013f4:	f04f 6100 	movne.w	r1, #134217728	; 0x8000000
 80013f8:	4a33      	ldr	r2, [pc, #204]	; (80014c8 <HAL_DMA_IRQHandler+0xc68>)
 80013fa:	60d1      	str	r1, [r2, #12]
 80013fc:	681a      	ldr	r2, [r3, #0]
 80013fe:	0315      	lsls	r5, r2, #12
 8001400:	f100 8546 	bmi.w	8001e90 <HAL_DMA_IRQHandler+0x1630>
 8001404:	6c63      	ldr	r3, [r4, #68]	; 0x44
 8001406:	2b00      	cmp	r3, #0
 8001408:	f43f ade5 	beq.w	8000fd6 <HAL_DMA_IRQHandler+0x776>
 800140c:	4620      	mov	r0, r4
 800140e:	e8bd 4070 	ldmia.w	sp!, {r4, r5, r6, lr}
 8001412:	4718      	bx	r3
 8001414:	4a2a      	ldr	r2, [pc, #168]	; (80014c0 <HAL_DMA_IRQHandler+0xc60>)
 8001416:	4293      	cmp	r3, r2
 8001418:	f240 8234 	bls.w	8001884 <HAL_DMA_IRQHandler+0x1024>
 800141c:	f5a2 6289 	sub.w	r2, r2, #1096	; 0x448
 8001420:	4293      	cmp	r3, r2
 8001422:	f000 8503 	beq.w	8001e2c <HAL_DMA_IRQHandler+0x15cc>
 8001426:	f502 6280 	add.w	r2, r2, #1024	; 0x400
 800142a:	4293      	cmp	r3, r2
 800142c:	f000 84fe 	beq.w	8001e2c <HAL_DMA_IRQHandler+0x15cc>
 8001430:	f5a2 7268 	sub.w	r2, r2, #928	; 0x3a0
 8001434:	4293      	cmp	r3, r2
 8001436:	f000 84f9 	beq.w	8001e2c <HAL_DMA_IRQHandler+0x15cc>
 800143a:	f502 6280 	add.w	r2, r2, #1024	; 0x400
 800143e:	4293      	cmp	r3, r2
 8001440:	f000 84f4 	beq.w	8001e2c <HAL_DMA_IRQHandler+0x15cc>
 8001444:	f5a2 6289 	sub.w	r2, r2, #1096	; 0x448
 8001448:	4293      	cmp	r3, r2
 800144a:	f000 86d2 	beq.w	80021f2 <HAL_DMA_IRQHandler+0x1992>
 800144e:	f502 6280 	add.w	r2, r2, #1024	; 0x400
 8001452:	4293      	cmp	r3, r2
 8001454:	f000 86cd 	beq.w	80021f2 <HAL_DMA_IRQHandler+0x1992>
 8001458:	f5a2 7268 	sub.w	r2, r2, #928	; 0x3a0
 800145c:	4293      	cmp	r3, r2
 800145e:	f000 86c8 	beq.w	80021f2 <HAL_DMA_IRQHandler+0x1992>
 8001462:	f502 6280 	add.w	r2, r2, #1024	; 0x400
 8001466:	4293      	cmp	r3, r2
 8001468:	f000 86c3 	beq.w	80021f2 <HAL_DMA_IRQHandler+0x1992>
 800146c:	f5a2 6289 	sub.w	r2, r2, #1096	; 0x448
 8001470:	4293      	cmp	r3, r2
 8001472:	f000 87d7 	beq.w	8002424 <HAL_DMA_IRQHandler+0x1bc4>
 8001476:	f502 6280 	add.w	r2, r2, #1024	; 0x400
 800147a:	4293      	cmp	r3, r2
 800147c:	f000 87d2 	beq.w	8002424 <HAL_DMA_IRQHandler+0x1bc4>
 8001480:	f5a2 7268 	sub.w	r2, r2, #928	; 0x3a0
 8001484:	4293      	cmp	r3, r2
 8001486:	f000 87cd 	beq.w	8002424 <HAL_DMA_IRQHandler+0x1bc4>
 800148a:	490e      	ldr	r1, [pc, #56]	; (80014c4 <HAL_DMA_IRQHandler+0xc64>)
 800148c:	428b      	cmp	r3, r1
 800148e:	bf0c      	ite	eq
 8001490:	f44f 1180 	moveq.w	r1, #1048576	; 0x100000
 8001494:	f04f 6180 	movne.w	r1, #67108864	; 0x4000000
 8001498:	4a0b      	ldr	r2, [pc, #44]	; (80014c8 <HAL_DMA_IRQHandler+0xc68>)
 800149a:	60d1      	str	r1, [r2, #12]
 800149c:	681a      	ldr	r2, [r3, #0]
 800149e:	0315      	lsls	r5, r2, #12
 80014a0:	f57f adf8 	bpl.w	8001094 <HAL_DMA_IRQHandler+0x834>
 80014a4:	681a      	ldr	r2, [r3, #0]
 80014a6:	0310      	lsls	r0, r2, #12
 80014a8:	d502      	bpl.n	80014b0 <HAL_DMA_IRQHandler+0xc50>
 80014aa:	2241      	movs	r2, #65	; 0x41
 80014ac:	f884 2035 	strb.w	r2, [r4, #53]	; 0x35
 80014b0:	6c22      	ldr	r2, [r4, #64]	; 0x40
 80014b2:	2a00      	cmp	r2, #0
 80014b4:	f43f ad93 	beq.w	8000fde <HAL_DMA_IRQHandler+0x77e>
 80014b8:	4620      	mov	r0, r4
 80014ba:	4790      	blx	r2
 80014bc:	6823      	ldr	r3, [r4, #0]
 80014be:	e58e      	b.n	8000fde <HAL_DMA_IRQHandler+0x77e>
 80014c0:	40026458 	.word	0x40026458
 80014c4:	400264a0 	.word	0x400264a0
 80014c8:	40026400 	.word	0x40026400
 80014cc:	4ac1      	ldr	r2, [pc, #772]	; (80017d4 <HAL_DMA_IRQHandler+0xf74>)
 80014ce:	4291      	cmp	r1, r2
 80014d0:	f240 8408 	bls.w	8001ce4 <HAL_DMA_IRQHandler+0x1484>
 80014d4:	3a48      	subs	r2, #72	; 0x48
 80014d6:	4293      	cmp	r3, r2
 80014d8:	f000 84ee 	beq.w	8001eb8 <HAL_DMA_IRQHandler+0x1658>
 80014dc:	f502 6280 	add.w	r2, r2, #1024	; 0x400
 80014e0:	4293      	cmp	r3, r2
 80014e2:	f000 84e9 	beq.w	8001eb8 <HAL_DMA_IRQHandler+0x1658>
 80014e6:	f5a2 7268 	sub.w	r2, r2, #928	; 0x3a0
 80014ea:	4293      	cmp	r3, r2
 80014ec:	f000 84e4 	beq.w	8001eb8 <HAL_DMA_IRQHandler+0x1658>
 80014f0:	f502 6280 	add.w	r2, r2, #1024	; 0x400
 80014f4:	4293      	cmp	r3, r2
 80014f6:	f000 84df 	beq.w	8001eb8 <HAL_DMA_IRQHandler+0x1658>
 80014fa:	f5a2 6289 	sub.w	r2, r2, #1096	; 0x448
 80014fe:	4293      	cmp	r3, r2
 8001500:	f000 86b5 	beq.w	800226e <HAL_DMA_IRQHandler+0x1a0e>
 8001504:	f502 6280 	add.w	r2, r2, #1024	; 0x400
 8001508:	4293      	cmp	r3, r2
 800150a:	f000 86b0 	beq.w	800226e <HAL_DMA_IRQHandler+0x1a0e>
 800150e:	f5a2 7268 	sub.w	r2, r2, #928	; 0x3a0
 8001512:	4293      	cmp	r3, r2
 8001514:	f000 86ab 	beq.w	800226e <HAL_DMA_IRQHandler+0x1a0e>
 8001518:	f502 6280 	add.w	r2, r2, #1024	; 0x400
 800151c:	4293      	cmp	r3, r2
 800151e:	f000 86a6 	beq.w	800226e <HAL_DMA_IRQHandler+0x1a0e>
 8001522:	f5a2 6289 	sub.w	r2, r2, #1096	; 0x448
 8001526:	4293      	cmp	r3, r2
 8001528:	f000 87d2 	beq.w	80024d0 <HAL_DMA_IRQHandler+0x1c70>
 800152c:	f502 6280 	add.w	r2, r2, #1024	; 0x400
 8001530:	4293      	cmp	r3, r2
 8001532:	f000 87cd 	beq.w	80024d0 <HAL_DMA_IRQHandler+0x1c70>
 8001536:	f5a2 7268 	sub.w	r2, r2, #928	; 0x3a0
 800153a:	4293      	cmp	r3, r2
 800153c:	f000 87c8 	beq.w	80024d0 <HAL_DMA_IRQHandler+0x1c70>
 8001540:	f502 6280 	add.w	r2, r2, #1024	; 0x400
 8001544:	4293      	cmp	r3, r2
 8001546:	bf0c      	ite	eq
 8001548:	f44f 3280 	moveq.w	r2, #65536	; 0x10000
 800154c:	f44f 0280 	movne.w	r2, #4194304	; 0x400000
 8001550:	49a1      	ldr	r1, [pc, #644]	; (80017d8 <HAL_DMA_IRQHandler+0xf78>)
 8001552:	6ca3      	ldr	r3, [r4, #72]	; 0x48
 8001554:	60ca      	str	r2, [r1, #12]
 8001556:	6ce2      	ldr	r2, [r4, #76]	; 0x4c
 8001558:	2104      	movs	r1, #4
 800155a:	f042 0202 	orr.w	r2, r2, #2
 800155e:	2000      	movs	r0, #0
 8001560:	64e2      	str	r2, [r4, #76]	; 0x4c
 8001562:	f884 0034 	strb.w	r0, [r4, #52]	; 0x34
 8001566:	f884 1035 	strb.w	r1, [r4, #53]	; 0x35
 800156a:	2b00      	cmp	r3, #0
 800156c:	f47f aaef 	bne.w	8000b4e <HAL_DMA_IRQHandler+0x2ee>
 8001570:	6823      	ldr	r3, [r4, #0]
 8001572:	4a9a      	ldr	r2, [pc, #616]	; (80017dc <HAL_DMA_IRQHandler+0xf7c>)
 8001574:	4998      	ldr	r1, [pc, #608]	; (80017d8 <HAL_DMA_IRQHandler+0xf78>)
 8001576:	4293      	cmp	r3, r2
 8001578:	6849      	ldr	r1, [r1, #4]
 800157a:	f47f ae03 	bne.w	8001184 <HAL_DMA_IRQHandler+0x924>
 800157e:	4a98      	ldr	r2, [pc, #608]	; (80017e0 <HAL_DMA_IRQHandler+0xf80>)
 8001580:	4211      	tst	r1, r2
 8001582:	bf14      	ite	ne
 8001584:	2201      	movne	r2, #1
 8001586:	2200      	moveq	r2, #0
 8001588:	2a00      	cmp	r2, #0
 800158a:	f43f ada1 	beq.w	80010d0 <HAL_DMA_IRQHandler+0x870>
 800158e:	681a      	ldr	r2, [r3, #0]
 8001590:	0792      	lsls	r2, r2, #30
 8001592:	f57f ab86 	bpl.w	8000ca2 <HAL_DMA_IRQHandler+0x442>
 8001596:	681a      	ldr	r2, [r3, #0]
 8001598:	f022 0202 	bic.w	r2, r2, #2
 800159c:	601a      	str	r2, [r3, #0]
 800159e:	4a8d      	ldr	r2, [pc, #564]	; (80017d4 <HAL_DMA_IRQHandler+0xf74>)
 80015a0:	4293      	cmp	r3, r2
 80015a2:	f200 8244 	bhi.w	8001a2e <HAL_DMA_IRQHandler+0x11ce>
 80015a6:	4a8d      	ldr	r2, [pc, #564]	; (80017dc <HAL_DMA_IRQHandler+0xf7c>)
 80015a8:	4293      	cmp	r3, r2
 80015aa:	f000 8494 	beq.w	8001ed6 <HAL_DMA_IRQHandler+0x1676>
 80015ae:	f502 6280 	add.w	r2, r2, #1024	; 0x400
 80015b2:	4293      	cmp	r3, r2
 80015b4:	f000 848f 	beq.w	8001ed6 <HAL_DMA_IRQHandler+0x1676>
 80015b8:	f5a2 7268 	sub.w	r2, r2, #928	; 0x3a0
 80015bc:	4293      	cmp	r3, r2
 80015be:	f000 848a 	beq.w	8001ed6 <HAL_DMA_IRQHandler+0x1676>
 80015c2:	f502 6280 	add.w	r2, r2, #1024	; 0x400
 80015c6:	4293      	cmp	r3, r2
 80015c8:	f000 8485 	beq.w	8001ed6 <HAL_DMA_IRQHandler+0x1676>
 80015cc:	f5a2 6289 	sub.w	r2, r2, #1096	; 0x448
 80015d0:	4293      	cmp	r3, r2
 80015d2:	f000 863c 	beq.w	800224e <HAL_DMA_IRQHandler+0x19ee>
 80015d6:	f502 6280 	add.w	r2, r2, #1024	; 0x400
 80015da:	4293      	cmp	r3, r2
 80015dc:	f000 8637 	beq.w	800224e <HAL_DMA_IRQHandler+0x19ee>
 80015e0:	f5a2 7268 	sub.w	r2, r2, #928	; 0x3a0
 80015e4:	4293      	cmp	r3, r2
 80015e6:	f000 8632 	beq.w	800224e <HAL_DMA_IRQHandler+0x19ee>
 80015ea:	f502 6280 	add.w	r2, r2, #1024	; 0x400
 80015ee:	4293      	cmp	r3, r2
 80015f0:	f000 862d 	beq.w	800224e <HAL_DMA_IRQHandler+0x19ee>
 80015f4:	f5a2 6289 	sub.w	r2, r2, #1096	; 0x448
 80015f8:	4293      	cmp	r3, r2
 80015fa:	f000 8774 	beq.w	80024e6 <HAL_DMA_IRQHandler+0x1c86>
 80015fe:	f502 6280 	add.w	r2, r2, #1024	; 0x400
 8001602:	4293      	cmp	r3, r2
 8001604:	f000 876f 	beq.w	80024e6 <HAL_DMA_IRQHandler+0x1c86>
 8001608:	f5a2 7268 	sub.w	r2, r2, #928	; 0x3a0
 800160c:	4293      	cmp	r3, r2
 800160e:	f000 876a 	beq.w	80024e6 <HAL_DMA_IRQHandler+0x1c86>
 8001612:	4974      	ldr	r1, [pc, #464]	; (80017e4 <HAL_DMA_IRQHandler+0xf84>)
 8001614:	428b      	cmp	r3, r1
 8001616:	bf0c      	ite	eq
 8001618:	f44f 2180 	moveq.w	r1, #262144	; 0x40000
 800161c:	f04f 7180 	movne.w	r1, #16777216	; 0x1000000
 8001620:	486d      	ldr	r0, [pc, #436]	; (80017d8 <HAL_DMA_IRQHandler+0xf78>)
 8001622:	6ca2      	ldr	r2, [r4, #72]	; 0x48
 8001624:	6081      	str	r1, [r0, #8]
 8001626:	6ce1      	ldr	r1, [r4, #76]	; 0x4c
 8001628:	2004      	movs	r0, #4
 800162a:	4301      	orrs	r1, r0
 800162c:	2500      	movs	r5, #0
 800162e:	64e1      	str	r1, [r4, #76]	; 0x4c
 8001630:	f884 5034 	strb.w	r5, [r4, #52]	; 0x34
 8001634:	f884 0035 	strb.w	r0, [r4, #53]	; 0x35
 8001638:	2a00      	cmp	r2, #0
 800163a:	f47f ab2f 	bne.w	8000c9c <HAL_DMA_IRQHandler+0x43c>
 800163e:	4a67      	ldr	r2, [pc, #412]	; (80017dc <HAL_DMA_IRQHandler+0xf7c>)
 8001640:	4965      	ldr	r1, [pc, #404]	; (80017d8 <HAL_DMA_IRQHandler+0xf78>)
 8001642:	4293      	cmp	r3, r2
 8001644:	6809      	ldr	r1, [r1, #0]
 8001646:	d060      	beq.n	800170a <HAL_DMA_IRQHandler+0xeaa>
 8001648:	f502 6280 	add.w	r2, r2, #1024	; 0x400
 800164c:	4293      	cmp	r3, r2
 800164e:	d05c      	beq.n	800170a <HAL_DMA_IRQHandler+0xeaa>
 8001650:	f5a2 7268 	sub.w	r2, r2, #928	; 0x3a0
 8001654:	4293      	cmp	r3, r2
 8001656:	d058      	beq.n	800170a <HAL_DMA_IRQHandler+0xeaa>
 8001658:	f502 6280 	add.w	r2, r2, #1024	; 0x400
 800165c:	4293      	cmp	r3, r2
 800165e:	d054      	beq.n	800170a <HAL_DMA_IRQHandler+0xeaa>
 8001660:	f5a2 6289 	sub.w	r2, r2, #1096	; 0x448
 8001664:	4293      	cmp	r3, r2
 8001666:	f000 8440 	beq.w	8001eea <HAL_DMA_IRQHandler+0x168a>
 800166a:	f502 6280 	add.w	r2, r2, #1024	; 0x400
 800166e:	4293      	cmp	r3, r2
 8001670:	f000 843b 	beq.w	8001eea <HAL_DMA_IRQHandler+0x168a>
 8001674:	f5a2 7268 	sub.w	r2, r2, #928	; 0x3a0
 8001678:	4293      	cmp	r3, r2
 800167a:	f000 8436 	beq.w	8001eea <HAL_DMA_IRQHandler+0x168a>
 800167e:	f502 6280 	add.w	r2, r2, #1024	; 0x400
 8001682:	4293      	cmp	r3, r2
 8001684:	f000 8431 	beq.w	8001eea <HAL_DMA_IRQHandler+0x168a>
 8001688:	f5a2 6289 	sub.w	r2, r2, #1096	; 0x448
 800168c:	4293      	cmp	r3, r2
 800168e:	f000 8613 	beq.w	80022b8 <HAL_DMA_IRQHandler+0x1a58>
 8001692:	f502 6280 	add.w	r2, r2, #1024	; 0x400
 8001696:	4293      	cmp	r3, r2
 8001698:	f000 860e 	beq.w	80022b8 <HAL_DMA_IRQHandler+0x1a58>
 800169c:	f5a2 7268 	sub.w	r2, r2, #928	; 0x3a0
 80016a0:	4293      	cmp	r3, r2
 80016a2:	f000 8609 	beq.w	80022b8 <HAL_DMA_IRQHandler+0x1a58>
 80016a6:	f502 6280 	add.w	r2, r2, #1024	; 0x400
 80016aa:	4293      	cmp	r3, r2
 80016ac:	bf0c      	ite	eq
 80016ae:	f44f 1280 	moveq.w	r2, #1048576	; 0x100000
 80016b2:	f04f 6280 	movne.w	r2, #67108864	; 0x4000000
 80016b6:	e029      	b.n	800170c <HAL_DMA_IRQHandler+0xeac>
 80016b8:	4a48      	ldr	r2, [pc, #288]	; (80017dc <HAL_DMA_IRQHandler+0xf7c>)
 80016ba:	6800      	ldr	r0, [r0, #0]
 80016bc:	4293      	cmp	r3, r2
 80016be:	f47f a99b 	bne.w	80009f8 <HAL_DMA_IRQHandler+0x198>
 80016c2:	f7ff b9da 	b.w	8000a7a <HAL_DMA_IRQHandler+0x21a>
 80016c6:	f44f 6200 	mov.w	r2, #2048	; 0x800
 80016ca:	e41f      	b.n	8000f0c <HAL_DMA_IRQHandler+0x6ac>
 80016cc:	f44f 7200 	mov.w	r2, #512	; 0x200
 80016d0:	f7ff b915 	b.w	80008fe <HAL_DMA_IRQHandler+0x9e>
 80016d4:	4d44      	ldr	r5, [pc, #272]	; (80017e8 <HAL_DMA_IRQHandler+0xf88>)
 80016d6:	f44f 7200 	mov.w	r2, #512	; 0x200
 80016da:	60aa      	str	r2, [r5, #8]
 80016dc:	6ce0      	ldr	r0, [r4, #76]	; 0x4c
 80016de:	6ca2      	ldr	r2, [r4, #72]	; 0x48
 80016e0:	f040 0001 	orr.w	r0, r0, #1
 80016e4:	64e0      	str	r0, [r4, #76]	; 0x4c
 80016e6:	f04f 0c04 	mov.w	ip, #4
 80016ea:	2000      	movs	r0, #0
 80016ec:	f884 c035 	strb.w	ip, [r4, #53]	; 0x35
 80016f0:	f884 0034 	strb.w	r0, [r4, #52]	; 0x34
 80016f4:	2a00      	cmp	r2, #0
 80016f6:	f47f a972 	bne.w	80009de <HAL_DMA_IRQHandler+0x17e>
 80016fa:	6828      	ldr	r0, [r5, #0]
 80016fc:	2240      	movs	r2, #64	; 0x40
 80016fe:	f7ff b9bd 	b.w	8000a7c <HAL_DMA_IRQHandler+0x21c>
 8001702:	f44f 7280 	mov.w	r2, #256	; 0x100
 8001706:	f7ff ba6f 	b.w	8000be8 <HAL_DMA_IRQHandler+0x388>
 800170a:	2210      	movs	r2, #16
 800170c:	4211      	tst	r1, r2
 800170e:	f47f ac63 	bne.w	8000fd8 <HAL_DMA_IRQHandler+0x778>
 8001712:	4a32      	ldr	r2, [pc, #200]	; (80017dc <HAL_DMA_IRQHandler+0xf7c>)
 8001714:	4930      	ldr	r1, [pc, #192]	; (80017d8 <HAL_DMA_IRQHandler+0xf78>)
 8001716:	4293      	cmp	r3, r2
 8001718:	6809      	ldr	r1, [r1, #0]
 800171a:	f47f ab0d 	bne.w	8000d38 <HAL_DMA_IRQHandler+0x4d8>
 800171e:	f7ff bbf4 	b.w	8000f0a <HAL_DMA_IRQHandler+0x6aa>
 8001722:	2210      	movs	r2, #16
 8001724:	4211      	tst	r1, r2
 8001726:	f47f ac57 	bne.w	8000fd8 <HAL_DMA_IRQHandler+0x778>
 800172a:	4a2c      	ldr	r2, [pc, #176]	; (80017dc <HAL_DMA_IRQHandler+0xf7c>)
 800172c:	492a      	ldr	r1, [pc, #168]	; (80017d8 <HAL_DMA_IRQHandler+0xf78>)
 800172e:	4293      	cmp	r3, r2
 8001730:	6849      	ldr	r1, [r1, #4]
 8001732:	f47f ab01 	bne.w	8000d38 <HAL_DMA_IRQHandler+0x4d8>
 8001736:	f7ff bbe8 	b.w	8000f0a <HAL_DMA_IRQHandler+0x6aa>
 800173a:	f44f 6280 	mov.w	r2, #1024	; 0x400
 800173e:	f7ff baf2 	b.w	8000d26 <HAL_DMA_IRQHandler+0x4c6>
 8001742:	4a2a      	ldr	r2, [pc, #168]	; (80017ec <HAL_DMA_IRQHandler+0xf8c>)
 8001744:	4293      	cmp	r3, r2
 8001746:	f200 8249 	bhi.w	8001bdc <HAL_DMA_IRQHandler+0x137c>
 800174a:	4a22      	ldr	r2, [pc, #136]	; (80017d4 <HAL_DMA_IRQHandler+0xf74>)
 800174c:	4293      	cmp	r3, r2
 800174e:	f240 845d 	bls.w	800200c <HAL_DMA_IRQHandler+0x17ac>
 8001752:	3a48      	subs	r2, #72	; 0x48
 8001754:	4293      	cmp	r3, r2
 8001756:	f000 8530 	beq.w	80021ba <HAL_DMA_IRQHandler+0x195a>
 800175a:	f502 6280 	add.w	r2, r2, #1024	; 0x400
 800175e:	4293      	cmp	r3, r2
 8001760:	f000 852b 	beq.w	80021ba <HAL_DMA_IRQHandler+0x195a>
 8001764:	f5a2 7268 	sub.w	r2, r2, #928	; 0x3a0
 8001768:	4293      	cmp	r3, r2
 800176a:	f000 8526 	beq.w	80021ba <HAL_DMA_IRQHandler+0x195a>
 800176e:	f502 6280 	add.w	r2, r2, #1024	; 0x400
 8001772:	4293      	cmp	r3, r2
 8001774:	f000 8521 	beq.w	80021ba <HAL_DMA_IRQHandler+0x195a>
 8001778:	f5a2 6289 	sub.w	r2, r2, #1096	; 0x448
 800177c:	4293      	cmp	r3, r2
 800177e:	f000 863b 	beq.w	80023f8 <HAL_DMA_IRQHandler+0x1b98>
 8001782:	f502 6280 	add.w	r2, r2, #1024	; 0x400
 8001786:	4293      	cmp	r3, r2
 8001788:	f000 8636 	beq.w	80023f8 <HAL_DMA_IRQHandler+0x1b98>
 800178c:	f5a2 7268 	sub.w	r2, r2, #928	; 0x3a0
 8001790:	4293      	cmp	r3, r2
 8001792:	f000 8631 	beq.w	80023f8 <HAL_DMA_IRQHandler+0x1b98>
 8001796:	f502 6280 	add.w	r2, r2, #1024	; 0x400
 800179a:	4293      	cmp	r3, r2
 800179c:	f000 862c 	beq.w	80023f8 <HAL_DMA_IRQHandler+0x1b98>
 80017a0:	f5a2 6289 	sub.w	r2, r2, #1096	; 0x448
 80017a4:	4293      	cmp	r3, r2
 80017a6:	f000 86ec 	beq.w	8002582 <HAL_DMA_IRQHandler+0x1d22>
 80017aa:	f502 6280 	add.w	r2, r2, #1024	; 0x400
 80017ae:	4293      	cmp	r3, r2
 80017b0:	f000 86e7 	beq.w	8002582 <HAL_DMA_IRQHandler+0x1d22>
 80017b4:	f5a2 7268 	sub.w	r2, r2, #928	; 0x3a0
 80017b8:	4293      	cmp	r3, r2
 80017ba:	f000 86e2 	beq.w	8002582 <HAL_DMA_IRQHandler+0x1d22>
 80017be:	f502 6280 	add.w	r2, r2, #1024	; 0x400
 80017c2:	4293      	cmp	r3, r2
 80017c4:	bf0c      	ite	eq
 80017c6:	f44f 1200 	moveq.w	r2, #2097152	; 0x200000
 80017ca:	f04f 6200 	movne.w	r2, #134217728	; 0x8000000
 80017ce:	4902      	ldr	r1, [pc, #8]	; (80017d8 <HAL_DMA_IRQHandler+0xf78>)
 80017d0:	60ca      	str	r2, [r1, #12]
 80017d2:	e613      	b.n	80013fc <HAL_DMA_IRQHandler+0xb9c>
 80017d4:	40026058 	.word	0x40026058
 80017d8:	40026000 	.word	0x40026000
 80017dc:	40026010 	.word	0x40026010
 80017e0:	00800004 	.word	0x00800004
 80017e4:	400264a0 	.word	0x400264a0
 80017e8:	40026400 	.word	0x40026400
 80017ec:	400260b8 	.word	0x400260b8
 80017f0:	4ab6      	ldr	r2, [pc, #728]	; (8001acc <HAL_DMA_IRQHandler+0x126c>)
 80017f2:	4293      	cmp	r3, r2
 80017f4:	f200 81b0 	bhi.w	8001b58 <HAL_DMA_IRQHandler+0x12f8>
 80017f8:	4ab5      	ldr	r2, [pc, #724]	; (8001ad0 <HAL_DMA_IRQHandler+0x1270>)
 80017fa:	4293      	cmp	r3, r2
 80017fc:	f240 8448 	bls.w	8002090 <HAL_DMA_IRQHandler+0x1830>
 8001800:	3a48      	subs	r2, #72	; 0x48
 8001802:	4293      	cmp	r3, r2
 8001804:	f000 84d4 	beq.w	80021b0 <HAL_DMA_IRQHandler+0x1950>
 8001808:	f502 6280 	add.w	r2, r2, #1024	; 0x400
 800180c:	4293      	cmp	r3, r2
 800180e:	f000 84cf 	beq.w	80021b0 <HAL_DMA_IRQHandler+0x1950>
 8001812:	f5a2 7268 	sub.w	r2, r2, #928	; 0x3a0
 8001816:	4293      	cmp	r3, r2
 8001818:	f000 84ca 	beq.w	80021b0 <HAL_DMA_IRQHandler+0x1950>
 800181c:	f502 6280 	add.w	r2, r2, #1024	; 0x400
 8001820:	4293      	cmp	r3, r2
 8001822:	f000 84c5 	beq.w	80021b0 <HAL_DMA_IRQHandler+0x1950>
 8001826:	f5a2 6289 	sub.w	r2, r2, #1096	; 0x448
 800182a:	4293      	cmp	r3, r2
 800182c:	f000 85e8 	beq.w	8002400 <HAL_DMA_IRQHandler+0x1ba0>
 8001830:	f502 6280 	add.w	r2, r2, #1024	; 0x400
 8001834:	4293      	cmp	r3, r2
 8001836:	f000 85e3 	beq.w	8002400 <HAL_DMA_IRQHandler+0x1ba0>
 800183a:	f5a2 7268 	sub.w	r2, r2, #928	; 0x3a0
 800183e:	4293      	cmp	r3, r2
 8001840:	f000 85de 	beq.w	8002400 <HAL_DMA_IRQHandler+0x1ba0>
 8001844:	f502 6280 	add.w	r2, r2, #1024	; 0x400
 8001848:	4293      	cmp	r3, r2
 800184a:	f000 85d9 	beq.w	8002400 <HAL_DMA_IRQHandler+0x1ba0>
 800184e:	f5a2 6289 	sub.w	r2, r2, #1096	; 0x448
 8001852:	4293      	cmp	r3, r2
 8001854:	f000 8699 	beq.w	800258a <HAL_DMA_IRQHandler+0x1d2a>
 8001858:	f502 6280 	add.w	r2, r2, #1024	; 0x400
 800185c:	4293      	cmp	r3, r2
 800185e:	f000 8694 	beq.w	800258a <HAL_DMA_IRQHandler+0x1d2a>
 8001862:	f5a2 7268 	sub.w	r2, r2, #928	; 0x3a0
 8001866:	4293      	cmp	r3, r2
 8001868:	f000 868f 	beq.w	800258a <HAL_DMA_IRQHandler+0x1d2a>
 800186c:	f502 6280 	add.w	r2, r2, #1024	; 0x400
 8001870:	4293      	cmp	r3, r2
 8001872:	bf0c      	ite	eq
 8001874:	f44f 1300 	moveq.w	r3, #2097152	; 0x200000
 8001878:	f04f 6300 	movne.w	r3, #134217728	; 0x8000000
 800187c:	4a95      	ldr	r2, [pc, #596]	; (8001ad4 <HAL_DMA_IRQHandler+0x1274>)
 800187e:	60d3      	str	r3, [r2, #12]
 8001880:	f7ff bb9d 	b.w	8000fbe <HAL_DMA_IRQHandler+0x75e>
 8001884:	4a91      	ldr	r2, [pc, #580]	; (8001acc <HAL_DMA_IRQHandler+0x126c>)
 8001886:	4293      	cmp	r3, r2
 8001888:	f200 827d 	bhi.w	8001d86 <HAL_DMA_IRQHandler+0x1526>
 800188c:	4a90      	ldr	r2, [pc, #576]	; (8001ad0 <HAL_DMA_IRQHandler+0x1270>)
 800188e:	4293      	cmp	r3, r2
 8001890:	f240 837a 	bls.w	8001f88 <HAL_DMA_IRQHandler+0x1728>
 8001894:	3a48      	subs	r2, #72	; 0x48
 8001896:	4293      	cmp	r3, r2
 8001898:	f000 8494 	beq.w	80021c4 <HAL_DMA_IRQHandler+0x1964>
 800189c:	f502 6280 	add.w	r2, r2, #1024	; 0x400
 80018a0:	4293      	cmp	r3, r2
 80018a2:	f000 848f 	beq.w	80021c4 <HAL_DMA_IRQHandler+0x1964>
 80018a6:	f5a2 7268 	sub.w	r2, r2, #928	; 0x3a0
 80018aa:	4293      	cmp	r3, r2
 80018ac:	f000 848a 	beq.w	80021c4 <HAL_DMA_IRQHandler+0x1964>
 80018b0:	f502 6280 	add.w	r2, r2, #1024	; 0x400
 80018b4:	4293      	cmp	r3, r2
 80018b6:	f000 8485 	beq.w	80021c4 <HAL_DMA_IRQHandler+0x1964>
 80018ba:	f5a2 6289 	sub.w	r2, r2, #1096	; 0x448
 80018be:	4293      	cmp	r3, r2
 80018c0:	f000 8596 	beq.w	80023f0 <HAL_DMA_IRQHandler+0x1b90>
 80018c4:	f502 6280 	add.w	r2, r2, #1024	; 0x400
 80018c8:	4293      	cmp	r3, r2
 80018ca:	f000 8591 	beq.w	80023f0 <HAL_DMA_IRQHandler+0x1b90>
 80018ce:	f5a2 7268 	sub.w	r2, r2, #928	; 0x3a0
 80018d2:	4293      	cmp	r3, r2
 80018d4:	f000 858c 	beq.w	80023f0 <HAL_DMA_IRQHandler+0x1b90>
 80018d8:	f502 6280 	add.w	r2, r2, #1024	; 0x400
 80018dc:	4293      	cmp	r3, r2
 80018de:	f000 8587 	beq.w	80023f0 <HAL_DMA_IRQHandler+0x1b90>
 80018e2:	f5a2 6289 	sub.w	r2, r2, #1096	; 0x448
 80018e6:	4293      	cmp	r3, r2
 80018e8:	f000 863b 	beq.w	8002562 <HAL_DMA_IRQHandler+0x1d02>
 80018ec:	f502 6280 	add.w	r2, r2, #1024	; 0x400
 80018f0:	4293      	cmp	r3, r2
 80018f2:	f000 8636 	beq.w	8002562 <HAL_DMA_IRQHandler+0x1d02>
 80018f6:	f5a2 7268 	sub.w	r2, r2, #928	; 0x3a0
 80018fa:	4293      	cmp	r3, r2
 80018fc:	f000 8631 	beq.w	8002562 <HAL_DMA_IRQHandler+0x1d02>
 8001900:	f502 6280 	add.w	r2, r2, #1024	; 0x400
 8001904:	4293      	cmp	r3, r2
 8001906:	bf0c      	ite	eq
 8001908:	f44f 1280 	moveq.w	r2, #1048576	; 0x100000
 800190c:	f04f 6280 	movne.w	r2, #67108864	; 0x4000000
 8001910:	4970      	ldr	r1, [pc, #448]	; (8001ad4 <HAL_DMA_IRQHandler+0x1274>)
 8001912:	60ca      	str	r2, [r1, #12]
 8001914:	e5c2      	b.n	800149c <HAL_DMA_IRQHandler+0xc3c>
 8001916:	4a6d      	ldr	r2, [pc, #436]	; (8001acc <HAL_DMA_IRQHandler+0x126c>)
 8001918:	4293      	cmp	r3, r2
 800191a:	f200 81a1 	bhi.w	8001c60 <HAL_DMA_IRQHandler+0x1400>
 800191e:	4a6c      	ldr	r2, [pc, #432]	; (8001ad0 <HAL_DMA_IRQHandler+0x1270>)
 8001920:	4293      	cmp	r3, r2
 8001922:	f240 82ef 	bls.w	8001f04 <HAL_DMA_IRQHandler+0x16a4>
 8001926:	3a48      	subs	r2, #72	; 0x48
 8001928:	4293      	cmp	r3, r2
 800192a:	f000 8450 	beq.w	80021ce <HAL_DMA_IRQHandler+0x196e>
 800192e:	f502 6280 	add.w	r2, r2, #1024	; 0x400
 8001932:	4293      	cmp	r3, r2
 8001934:	f000 844b 	beq.w	80021ce <HAL_DMA_IRQHandler+0x196e>
 8001938:	f5a2 7268 	sub.w	r2, r2, #928	; 0x3a0
 800193c:	4293      	cmp	r3, r2
 800193e:	f000 8446 	beq.w	80021ce <HAL_DMA_IRQHandler+0x196e>
 8001942:	f502 6280 	add.w	r2, r2, #1024	; 0x400
 8001946:	4293      	cmp	r3, r2
 8001948:	f000 8441 	beq.w	80021ce <HAL_DMA_IRQHandler+0x196e>
 800194c:	f5a2 6289 	sub.w	r2, r2, #1096	; 0x448
 8001950:	4293      	cmp	r3, r2
 8001952:	f000 8549 	beq.w	80023e8 <HAL_DMA_IRQHandler+0x1b88>
 8001956:	f502 6280 	add.w	r2, r2, #1024	; 0x400
 800195a:	4293      	cmp	r3, r2
 800195c:	f000 8544 	beq.w	80023e8 <HAL_DMA_IRQHandler+0x1b88>
 8001960:	f5a2 7268 	sub.w	r2, r2, #928	; 0x3a0
 8001964:	4293      	cmp	r3, r2
 8001966:	f000 853f 	beq.w	80023e8 <HAL_DMA_IRQHandler+0x1b88>
 800196a:	f502 6280 	add.w	r2, r2, #1024	; 0x400
 800196e:	4293      	cmp	r3, r2
 8001970:	f000 853a 	beq.w	80023e8 <HAL_DMA_IRQHandler+0x1b88>
 8001974:	f5a2 6289 	sub.w	r2, r2, #1096	; 0x448
 8001978:	4293      	cmp	r3, r2
 800197a:	f000 85ee 	beq.w	800255a <HAL_DMA_IRQHandler+0x1cfa>
 800197e:	f502 6280 	add.w	r2, r2, #1024	; 0x400
 8001982:	4293      	cmp	r3, r2
 8001984:	f000 85e9 	beq.w	800255a <HAL_DMA_IRQHandler+0x1cfa>
 8001988:	f5a2 7268 	sub.w	r2, r2, #928	; 0x3a0
 800198c:	4293      	cmp	r3, r2
 800198e:	f000 85e4 	beq.w	800255a <HAL_DMA_IRQHandler+0x1cfa>
 8001992:	f502 6280 	add.w	r2, r2, #1024	; 0x400
 8001996:	4293      	cmp	r3, r2
 8001998:	bf0c      	ite	eq
 800199a:	f44f 1280 	moveq.w	r2, #1048576	; 0x100000
 800199e:	f04f 6280 	movne.w	r2, #67108864	; 0x4000000
 80019a2:	494c      	ldr	r1, [pc, #304]	; (8001ad4 <HAL_DMA_IRQHandler+0x1274>)
 80019a4:	60ca      	str	r2, [r1, #12]
 80019a6:	f7ff bb75 	b.w	8001094 <HAL_DMA_IRQHandler+0x834>
 80019aa:	4a49      	ldr	r2, [pc, #292]	; (8001ad0 <HAL_DMA_IRQHandler+0x1270>)
 80019ac:	4293      	cmp	r3, r2
 80019ae:	f240 8095 	bls.w	8001adc <HAL_DMA_IRQHandler+0x127c>
 80019b2:	3a48      	subs	r2, #72	; 0x48
 80019b4:	4293      	cmp	r3, r2
 80019b6:	f000 82a2 	beq.w	8001efe <HAL_DMA_IRQHandler+0x169e>
 80019ba:	f502 6280 	add.w	r2, r2, #1024	; 0x400
 80019be:	4293      	cmp	r3, r2
 80019c0:	f000 829d 	beq.w	8001efe <HAL_DMA_IRQHandler+0x169e>
 80019c4:	f5a2 7268 	sub.w	r2, r2, #928	; 0x3a0
 80019c8:	4293      	cmp	r3, r2
 80019ca:	f000 8493 	beq.w	80022f4 <HAL_DMA_IRQHandler+0x1a94>
 80019ce:	f502 6280 	add.w	r2, r2, #1024	; 0x400
 80019d2:	4293      	cmp	r3, r2
 80019d4:	f000 84c0 	beq.w	8002358 <HAL_DMA_IRQHandler+0x1af8>
 80019d8:	f5a2 6289 	sub.w	r2, r2, #1096	; 0x448
 80019dc:	4293      	cmp	r3, r2
 80019de:	f000 8473 	beq.w	80022c8 <HAL_DMA_IRQHandler+0x1a68>
 80019e2:	f502 6280 	add.w	r2, r2, #1024	; 0x400
 80019e6:	4293      	cmp	r3, r2
 80019e8:	f000 846e 	beq.w	80022c8 <HAL_DMA_IRQHandler+0x1a68>
 80019ec:	f5a2 7268 	sub.w	r2, r2, #928	; 0x3a0
 80019f0:	4293      	cmp	r3, r2
 80019f2:	f000 857e 	beq.w	80024f2 <HAL_DMA_IRQHandler+0x1c92>
 80019f6:	f502 6280 	add.w	r2, r2, #1024	; 0x400
 80019fa:	4293      	cmp	r3, r2
 80019fc:	f000 8464 	beq.w	80022c8 <HAL_DMA_IRQHandler+0x1a68>
 8001a00:	f5a2 6289 	sub.w	r2, r2, #1096	; 0x448
 8001a04:	4293      	cmp	r3, r2
 8001a06:	f000 8572 	beq.w	80024ee <HAL_DMA_IRQHandler+0x1c8e>
 8001a0a:	f502 6280 	add.w	r2, r2, #1024	; 0x400
 8001a0e:	4293      	cmp	r3, r2
 8001a10:	f000 856d 	beq.w	80024ee <HAL_DMA_IRQHandler+0x1c8e>
 8001a14:	f5a2 7268 	sub.w	r2, r2, #928	; 0x3a0
 8001a18:	4293      	cmp	r3, r2
 8001a1a:	f000 85bc 	beq.w	8002596 <HAL_DMA_IRQHandler+0x1d36>
 8001a1e:	f502 6280 	add.w	r2, r2, #1024	; 0x400
 8001a22:	4293      	cmp	r3, r2
 8001a24:	f000 8563 	beq.w	80024ee <HAL_DMA_IRQHandler+0x1c8e>
 8001a28:	4d2a      	ldr	r5, [pc, #168]	; (8001ad4 <HAL_DMA_IRQHandler+0x1274>)
 8001a2a:	f7fe bfb2 	b.w	8000992 <HAL_DMA_IRQHandler+0x132>
 8001a2e:	3a48      	subs	r2, #72	; 0x48
 8001a30:	4293      	cmp	r3, r2
 8001a32:	f000 824c 	beq.w	8001ece <HAL_DMA_IRQHandler+0x166e>
 8001a36:	f502 6280 	add.w	r2, r2, #1024	; 0x400
 8001a3a:	4293      	cmp	r3, r2
 8001a3c:	f000 8247 	beq.w	8001ece <HAL_DMA_IRQHandler+0x166e>
 8001a40:	f5a2 7268 	sub.w	r2, r2, #928	; 0x3a0
 8001a44:	4293      	cmp	r3, r2
 8001a46:	f000 8242 	beq.w	8001ece <HAL_DMA_IRQHandler+0x166e>
 8001a4a:	f502 6280 	add.w	r2, r2, #1024	; 0x400
 8001a4e:	4293      	cmp	r3, r2
 8001a50:	f000 823d 	beq.w	8001ece <HAL_DMA_IRQHandler+0x166e>
 8001a54:	f5a2 6289 	sub.w	r2, r2, #1096	; 0x448
 8001a58:	4293      	cmp	r3, r2
 8001a5a:	f000 83ff 	beq.w	800225c <HAL_DMA_IRQHandler+0x19fc>
 8001a5e:	f502 6280 	add.w	r2, r2, #1024	; 0x400
 8001a62:	4293      	cmp	r3, r2
 8001a64:	f000 83fa 	beq.w	800225c <HAL_DMA_IRQHandler+0x19fc>
 8001a68:	f5a2 7268 	sub.w	r2, r2, #928	; 0x3a0
 8001a6c:	4293      	cmp	r3, r2
 8001a6e:	f000 83f5 	beq.w	800225c <HAL_DMA_IRQHandler+0x19fc>
 8001a72:	f502 6280 	add.w	r2, r2, #1024	; 0x400
 8001a76:	4293      	cmp	r3, r2
 8001a78:	f000 83f0 	beq.w	800225c <HAL_DMA_IRQHandler+0x19fc>
 8001a7c:	f5a2 6289 	sub.w	r2, r2, #1096	; 0x448
 8001a80:	4293      	cmp	r3, r2
 8001a82:	f000 852c 	beq.w	80024de <HAL_DMA_IRQHandler+0x1c7e>
 8001a86:	f502 6280 	add.w	r2, r2, #1024	; 0x400
 8001a8a:	4293      	cmp	r3, r2
 8001a8c:	f000 8527 	beq.w	80024de <HAL_DMA_IRQHandler+0x1c7e>
 8001a90:	f5a2 7268 	sub.w	r2, r2, #928	; 0x3a0
 8001a94:	4293      	cmp	r3, r2
 8001a96:	f000 8522 	beq.w	80024de <HAL_DMA_IRQHandler+0x1c7e>
 8001a9a:	490f      	ldr	r1, [pc, #60]	; (8001ad8 <HAL_DMA_IRQHandler+0x1278>)
 8001a9c:	428b      	cmp	r3, r1
 8001a9e:	bf0c      	ite	eq
 8001aa0:	f44f 2180 	moveq.w	r1, #262144	; 0x40000
 8001aa4:	f04f 7180 	movne.w	r1, #16777216	; 0x1000000
 8001aa8:	480a      	ldr	r0, [pc, #40]	; (8001ad4 <HAL_DMA_IRQHandler+0x1274>)
 8001aaa:	6ca2      	ldr	r2, [r4, #72]	; 0x48
 8001aac:	60c1      	str	r1, [r0, #12]
 8001aae:	6ce1      	ldr	r1, [r4, #76]	; 0x4c
 8001ab0:	2004      	movs	r0, #4
 8001ab2:	4301      	orrs	r1, r0
 8001ab4:	2500      	movs	r5, #0
 8001ab6:	64e1      	str	r1, [r4, #76]	; 0x4c
 8001ab8:	f884 5034 	strb.w	r5, [r4, #52]	; 0x34
 8001abc:	f884 0035 	strb.w	r0, [r4, #53]	; 0x35
 8001ac0:	2a00      	cmp	r2, #0
 8001ac2:	f47f a8eb 	bne.w	8000c9c <HAL_DMA_IRQHandler+0x43c>
 8001ac6:	f7ff bb07 	b.w	80010d8 <HAL_DMA_IRQHandler+0x878>
 8001aca:	bf00      	nop
 8001acc:	400260b8 	.word	0x400260b8
 8001ad0:	40026058 	.word	0x40026058
 8001ad4:	40026000 	.word	0x40026000
 8001ad8:	400264a0 	.word	0x400264a0
 8001adc:	4acf      	ldr	r2, [pc, #828]	; (8001e1c <HAL_DMA_IRQHandler+0x15bc>)
 8001ade:	4293      	cmp	r3, r2
 8001ae0:	f000 8399 	beq.w	8002216 <HAL_DMA_IRQHandler+0x19b6>
 8001ae4:	f502 6280 	add.w	r2, r2, #1024	; 0x400
 8001ae8:	4293      	cmp	r3, r2
 8001aea:	f000 838a 	beq.w	8002202 <HAL_DMA_IRQHandler+0x19a2>
 8001aee:	f5a2 7268 	sub.w	r2, r2, #928	; 0x3a0
 8001af2:	4293      	cmp	r3, r2
 8001af4:	f000 8385 	beq.w	8002202 <HAL_DMA_IRQHandler+0x19a2>
 8001af8:	f502 6280 	add.w	r2, r2, #1024	; 0x400
 8001afc:	4293      	cmp	r3, r2
 8001afe:	f000 8441 	beq.w	8002384 <HAL_DMA_IRQHandler+0x1b24>
 8001b02:	f5a2 6289 	sub.w	r2, r2, #1096	; 0x448
 8001b06:	4293      	cmp	r3, r2
 8001b08:	f000 849c 	beq.w	8002444 <HAL_DMA_IRQHandler+0x1be4>
 8001b0c:	f502 6280 	add.w	r2, r2, #1024	; 0x400
 8001b10:	4293      	cmp	r3, r2
 8001b12:	f000 8408 	beq.w	8002326 <HAL_DMA_IRQHandler+0x1ac6>
 8001b16:	f5a2 7268 	sub.w	r2, r2, #928	; 0x3a0
 8001b1a:	4293      	cmp	r3, r2
 8001b1c:	f000 8403 	beq.w	8002326 <HAL_DMA_IRQHandler+0x1ac6>
 8001b20:	f502 6280 	add.w	r2, r2, #1024	; 0x400
 8001b24:	4293      	cmp	r3, r2
 8001b26:	f000 83fe 	beq.w	8002326 <HAL_DMA_IRQHandler+0x1ac6>
 8001b2a:	f5a2 6289 	sub.w	r2, r2, #1096	; 0x448
 8001b2e:	4293      	cmp	r3, r2
 8001b30:	f000 852f 	beq.w	8002592 <HAL_DMA_IRQHandler+0x1d32>
 8001b34:	f502 6280 	add.w	r2, r2, #1024	; 0x400
 8001b38:	4293      	cmp	r3, r2
 8001b3a:	f000 84f4 	beq.w	8002526 <HAL_DMA_IRQHandler+0x1cc6>
 8001b3e:	f5a2 7268 	sub.w	r2, r2, #928	; 0x3a0
 8001b42:	4293      	cmp	r3, r2
 8001b44:	f000 84ef 	beq.w	8002526 <HAL_DMA_IRQHandler+0x1cc6>
 8001b48:	f502 6280 	add.w	r2, r2, #1024	; 0x400
 8001b4c:	4293      	cmp	r3, r2
 8001b4e:	f000 84ea 	beq.w	8002526 <HAL_DMA_IRQHandler+0x1cc6>
 8001b52:	4db3      	ldr	r5, [pc, #716]	; (8001e20 <HAL_DMA_IRQHandler+0x15c0>)
 8001b54:	f7ff bbeb 	b.w	800132e <HAL_DMA_IRQHandler+0xace>
 8001b58:	3aa8      	subs	r2, #168	; 0xa8
 8001b5a:	4293      	cmp	r3, r2
 8001b5c:	f000 81b5 	beq.w	8001eca <HAL_DMA_IRQHandler+0x166a>
 8001b60:	f502 6280 	add.w	r2, r2, #1024	; 0x400
 8001b64:	4293      	cmp	r3, r2
 8001b66:	f000 81b0 	beq.w	8001eca <HAL_DMA_IRQHandler+0x166a>
 8001b6a:	f5a2 7268 	sub.w	r2, r2, #928	; 0x3a0
 8001b6e:	4293      	cmp	r3, r2
 8001b70:	f000 81ab 	beq.w	8001eca <HAL_DMA_IRQHandler+0x166a>
 8001b74:	f502 6280 	add.w	r2, r2, #1024	; 0x400
 8001b78:	4293      	cmp	r3, r2
 8001b7a:	f000 81a6 	beq.w	8001eca <HAL_DMA_IRQHandler+0x166a>
 8001b7e:	f5a2 6289 	sub.w	r2, r2, #1096	; 0x448
 8001b82:	4293      	cmp	r3, r2
 8001b84:	f000 8367 	beq.w	8002256 <HAL_DMA_IRQHandler+0x19f6>
 8001b88:	f502 6280 	add.w	r2, r2, #1024	; 0x400
 8001b8c:	4293      	cmp	r3, r2
 8001b8e:	f000 8362 	beq.w	8002256 <HAL_DMA_IRQHandler+0x19f6>
 8001b92:	f5a2 7268 	sub.w	r2, r2, #928	; 0x3a0
 8001b96:	4293      	cmp	r3, r2
 8001b98:	f000 835d 	beq.w	8002256 <HAL_DMA_IRQHandler+0x19f6>
 8001b9c:	f502 6280 	add.w	r2, r2, #1024	; 0x400
 8001ba0:	4293      	cmp	r3, r2
 8001ba2:	f000 8358 	beq.w	8002256 <HAL_DMA_IRQHandler+0x19f6>
 8001ba6:	f5a2 6289 	sub.w	r2, r2, #1096	; 0x448
 8001baa:	4293      	cmp	r3, r2
 8001bac:	f000 8485 	beq.w	80024ba <HAL_DMA_IRQHandler+0x1c5a>
 8001bb0:	f502 6280 	add.w	r2, r2, #1024	; 0x400
 8001bb4:	4293      	cmp	r3, r2
 8001bb6:	f000 8480 	beq.w	80024ba <HAL_DMA_IRQHandler+0x1c5a>
 8001bba:	f5a2 7268 	sub.w	r2, r2, #928	; 0x3a0
 8001bbe:	4293      	cmp	r3, r2
 8001bc0:	f000 847b 	beq.w	80024ba <HAL_DMA_IRQHandler+0x1c5a>
 8001bc4:	f502 6280 	add.w	r2, r2, #1024	; 0x400
 8001bc8:	4293      	cmp	r3, r2
 8001bca:	bf0c      	ite	eq
 8001bcc:	f44f 1300 	moveq.w	r3, #2097152	; 0x200000
 8001bd0:	f04f 6300 	movne.w	r3, #134217728	; 0x8000000
 8001bd4:	4a93      	ldr	r2, [pc, #588]	; (8001e24 <HAL_DMA_IRQHandler+0x15c4>)
 8001bd6:	6093      	str	r3, [r2, #8]
 8001bd8:	f7ff b9f1 	b.w	8000fbe <HAL_DMA_IRQHandler+0x75e>
 8001bdc:	3aa8      	subs	r2, #168	; 0xa8
 8001bde:	4293      	cmp	r3, r2
 8001be0:	f000 816f 	beq.w	8001ec2 <HAL_DMA_IRQHandler+0x1662>
 8001be4:	f502 6280 	add.w	r2, r2, #1024	; 0x400
 8001be8:	4293      	cmp	r3, r2
 8001bea:	f000 816a 	beq.w	8001ec2 <HAL_DMA_IRQHandler+0x1662>
 8001bee:	f5a2 7268 	sub.w	r2, r2, #928	; 0x3a0
 8001bf2:	4293      	cmp	r3, r2
 8001bf4:	f000 8165 	beq.w	8001ec2 <HAL_DMA_IRQHandler+0x1662>
 8001bf8:	f502 6280 	add.w	r2, r2, #1024	; 0x400
 8001bfc:	4293      	cmp	r3, r2
 8001bfe:	f000 8160 	beq.w	8001ec2 <HAL_DMA_IRQHandler+0x1662>
 8001c02:	f5a2 6289 	sub.w	r2, r2, #1096	; 0x448
 8001c06:	4293      	cmp	r3, r2
 8001c08:	f000 832b 	beq.w	8002262 <HAL_DMA_IRQHandler+0x1a02>
 8001c0c:	f502 6280 	add.w	r2, r2, #1024	; 0x400
 8001c10:	4293      	cmp	r3, r2
 8001c12:	f000 8326 	beq.w	8002262 <HAL_DMA_IRQHandler+0x1a02>
 8001c16:	f5a2 7268 	sub.w	r2, r2, #928	; 0x3a0
 8001c1a:	4293      	cmp	r3, r2
 8001c1c:	f000 8321 	beq.w	8002262 <HAL_DMA_IRQHandler+0x1a02>
 8001c20:	f502 6280 	add.w	r2, r2, #1024	; 0x400
 8001c24:	4293      	cmp	r3, r2
 8001c26:	f000 831c 	beq.w	8002262 <HAL_DMA_IRQHandler+0x1a02>
 8001c2a:	f5a2 6289 	sub.w	r2, r2, #1096	; 0x448
 8001c2e:	4293      	cmp	r3, r2
 8001c30:	f000 844a 	beq.w	80024c8 <HAL_DMA_IRQHandler+0x1c68>
 8001c34:	f502 6280 	add.w	r2, r2, #1024	; 0x400
 8001c38:	4293      	cmp	r3, r2
 8001c3a:	f000 8445 	beq.w	80024c8 <HAL_DMA_IRQHandler+0x1c68>
 8001c3e:	f5a2 7268 	sub.w	r2, r2, #928	; 0x3a0
 8001c42:	4293      	cmp	r3, r2
 8001c44:	f000 8440 	beq.w	80024c8 <HAL_DMA_IRQHandler+0x1c68>
 8001c48:	f502 6280 	add.w	r2, r2, #1024	; 0x400
 8001c4c:	4293      	cmp	r3, r2
 8001c4e:	bf0c      	ite	eq
 8001c50:	f44f 1200 	moveq.w	r2, #2097152	; 0x200000
 8001c54:	f04f 6200 	movne.w	r2, #134217728	; 0x8000000
 8001c58:	4972      	ldr	r1, [pc, #456]	; (8001e24 <HAL_DMA_IRQHandler+0x15c4>)
 8001c5a:	608a      	str	r2, [r1, #8]
 8001c5c:	f7ff bbce 	b.w	80013fc <HAL_DMA_IRQHandler+0xb9c>
 8001c60:	3aa8      	subs	r2, #168	; 0xa8
 8001c62:	4293      	cmp	r3, r2
 8001c64:	f000 8135 	beq.w	8001ed2 <HAL_DMA_IRQHandler+0x1672>
 8001c68:	f502 6280 	add.w	r2, r2, #1024	; 0x400
 8001c6c:	4293      	cmp	r3, r2
 8001c6e:	f000 8130 	beq.w	8001ed2 <HAL_DMA_IRQHandler+0x1672>
 8001c72:	f5a2 7268 	sub.w	r2, r2, #928	; 0x3a0
 8001c76:	4293      	cmp	r3, r2
 8001c78:	f000 812b 	beq.w	8001ed2 <HAL_DMA_IRQHandler+0x1672>
 8001c7c:	f502 6280 	add.w	r2, r2, #1024	; 0x400
 8001c80:	4293      	cmp	r3, r2
 8001c82:	f000 8126 	beq.w	8001ed2 <HAL_DMA_IRQHandler+0x1672>
 8001c86:	f5a2 6289 	sub.w	r2, r2, #1096	; 0x448
 8001c8a:	4293      	cmp	r3, r2
 8001c8c:	f000 82dc 	beq.w	8002248 <HAL_DMA_IRQHandler+0x19e8>
 8001c90:	f502 6280 	add.w	r2, r2, #1024	; 0x400
 8001c94:	4293      	cmp	r3, r2
 8001c96:	f000 82d7 	beq.w	8002248 <HAL_DMA_IRQHandler+0x19e8>
 8001c9a:	f5a2 7268 	sub.w	r2, r2, #928	; 0x3a0
 8001c9e:	4293      	cmp	r3, r2
 8001ca0:	f000 82d2 	beq.w	8002248 <HAL_DMA_IRQHandler+0x19e8>
 8001ca4:	f502 6280 	add.w	r2, r2, #1024	; 0x400
 8001ca8:	4293      	cmp	r3, r2
 8001caa:	f000 82cd 	beq.w	8002248 <HAL_DMA_IRQHandler+0x19e8>
 8001cae:	f5a2 6289 	sub.w	r2, r2, #1096	; 0x448
 8001cb2:	4293      	cmp	r3, r2
 8001cb4:	f000 83fe 	beq.w	80024b4 <HAL_DMA_IRQHandler+0x1c54>
 8001cb8:	f502 6280 	add.w	r2, r2, #1024	; 0x400
 8001cbc:	4293      	cmp	r3, r2
 8001cbe:	f000 83f9 	beq.w	80024b4 <HAL_DMA_IRQHandler+0x1c54>
 8001cc2:	f5a2 7268 	sub.w	r2, r2, #928	; 0x3a0
 8001cc6:	4293      	cmp	r3, r2
 8001cc8:	f000 83f4 	beq.w	80024b4 <HAL_DMA_IRQHandler+0x1c54>
 8001ccc:	f502 6280 	add.w	r2, r2, #1024	; 0x400
 8001cd0:	4293      	cmp	r3, r2
 8001cd2:	bf0c      	ite	eq
 8001cd4:	f44f 1280 	moveq.w	r2, #1048576	; 0x100000
 8001cd8:	f04f 6280 	movne.w	r2, #67108864	; 0x4000000
 8001cdc:	4951      	ldr	r1, [pc, #324]	; (8001e24 <HAL_DMA_IRQHandler+0x15c4>)
 8001cde:	608a      	str	r2, [r1, #8]
 8001ce0:	f7ff b9d8 	b.w	8001094 <HAL_DMA_IRQHandler+0x834>
 8001ce4:	4a4d      	ldr	r2, [pc, #308]	; (8001e1c <HAL_DMA_IRQHandler+0x15bc>)
 8001ce6:	4293      	cmp	r3, r2
 8001ce8:	f000 80e9 	beq.w	8001ebe <HAL_DMA_IRQHandler+0x165e>
 8001cec:	f502 6280 	add.w	r2, r2, #1024	; 0x400
 8001cf0:	4293      	cmp	r3, r2
 8001cf2:	f000 80e4 	beq.w	8001ebe <HAL_DMA_IRQHandler+0x165e>
 8001cf6:	f5a2 7268 	sub.w	r2, r2, #928	; 0x3a0
 8001cfa:	4293      	cmp	r3, r2
 8001cfc:	f000 80df 	beq.w	8001ebe <HAL_DMA_IRQHandler+0x165e>
 8001d00:	f502 6280 	add.w	r2, r2, #1024	; 0x400
 8001d04:	4293      	cmp	r3, r2
 8001d06:	f000 80da 	beq.w	8001ebe <HAL_DMA_IRQHandler+0x165e>
 8001d0a:	f5a2 6289 	sub.w	r2, r2, #1096	; 0x448
 8001d0e:	4293      	cmp	r3, r2
 8001d10:	f000 82b0 	beq.w	8002274 <HAL_DMA_IRQHandler+0x1a14>
 8001d14:	f502 6280 	add.w	r2, r2, #1024	; 0x400
 8001d18:	4293      	cmp	r3, r2
 8001d1a:	f000 82ab 	beq.w	8002274 <HAL_DMA_IRQHandler+0x1a14>
 8001d1e:	f5a2 7268 	sub.w	r2, r2, #928	; 0x3a0
 8001d22:	4293      	cmp	r3, r2
 8001d24:	f000 82a6 	beq.w	8002274 <HAL_DMA_IRQHandler+0x1a14>
 8001d28:	f502 6280 	add.w	r2, r2, #1024	; 0x400
 8001d2c:	4293      	cmp	r3, r2
 8001d2e:	f000 82a1 	beq.w	8002274 <HAL_DMA_IRQHandler+0x1a14>
 8001d32:	f5a2 6289 	sub.w	r2, r2, #1096	; 0x448
 8001d36:	4293      	cmp	r3, r2
 8001d38:	f000 83c3 	beq.w	80024c2 <HAL_DMA_IRQHandler+0x1c62>
 8001d3c:	f502 6280 	add.w	r2, r2, #1024	; 0x400
 8001d40:	4293      	cmp	r3, r2
 8001d42:	f000 83be 	beq.w	80024c2 <HAL_DMA_IRQHandler+0x1c62>
 8001d46:	f5a2 7268 	sub.w	r2, r2, #928	; 0x3a0
 8001d4a:	4293      	cmp	r3, r2
 8001d4c:	f000 83b9 	beq.w	80024c2 <HAL_DMA_IRQHandler+0x1c62>
 8001d50:	f502 6280 	add.w	r2, r2, #1024	; 0x400
 8001d54:	4293      	cmp	r3, r2
 8001d56:	bf0c      	ite	eq
 8001d58:	f44f 3280 	moveq.w	r2, #65536	; 0x10000
 8001d5c:	f44f 0280 	movne.w	r2, #4194304	; 0x400000
 8001d60:	492f      	ldr	r1, [pc, #188]	; (8001e20 <HAL_DMA_IRQHandler+0x15c0>)
 8001d62:	6ca3      	ldr	r3, [r4, #72]	; 0x48
 8001d64:	608a      	str	r2, [r1, #8]
 8001d66:	6ce2      	ldr	r2, [r4, #76]	; 0x4c
 8001d68:	2104      	movs	r1, #4
 8001d6a:	f042 0202 	orr.w	r2, r2, #2
 8001d6e:	2000      	movs	r0, #0
 8001d70:	64e2      	str	r2, [r4, #76]	; 0x4c
 8001d72:	f884 0034 	strb.w	r0, [r4, #52]	; 0x34
 8001d76:	f884 1035 	strb.w	r1, [r4, #53]	; 0x35
 8001d7a:	2b00      	cmp	r3, #0
 8001d7c:	f47e aee7 	bne.w	8000b4e <HAL_DMA_IRQHandler+0x2ee>
 8001d80:	6823      	ldr	r3, [r4, #0]
 8001d82:	f7ff b9f9 	b.w	8001178 <HAL_DMA_IRQHandler+0x918>
 8001d86:	3aa8      	subs	r2, #168	; 0xa8
 8001d88:	4293      	cmp	r3, r2
 8001d8a:	f000 809c 	beq.w	8001ec6 <HAL_DMA_IRQHandler+0x1666>
 8001d8e:	f502 6280 	add.w	r2, r2, #1024	; 0x400
 8001d92:	4293      	cmp	r3, r2
 8001d94:	f000 8097 	beq.w	8001ec6 <HAL_DMA_IRQHandler+0x1666>
 8001d98:	f5a2 7268 	sub.w	r2, r2, #928	; 0x3a0
 8001d9c:	4293      	cmp	r3, r2
 8001d9e:	f000 8092 	beq.w	8001ec6 <HAL_DMA_IRQHandler+0x1666>
 8001da2:	f502 6280 	add.w	r2, r2, #1024	; 0x400
 8001da6:	4293      	cmp	r3, r2
 8001da8:	f000 808d 	beq.w	8001ec6 <HAL_DMA_IRQHandler+0x1666>
 8001dac:	f5a2 6289 	sub.w	r2, r2, #1096	; 0x448
 8001db0:	4293      	cmp	r3, r2
 8001db2:	f000 8259 	beq.w	8002268 <HAL_DMA_IRQHandler+0x1a08>
 8001db6:	f502 6280 	add.w	r2, r2, #1024	; 0x400
 8001dba:	4293      	cmp	r3, r2
 8001dbc:	f000 8254 	beq.w	8002268 <HAL_DMA_IRQHandler+0x1a08>
 8001dc0:	f5a2 7268 	sub.w	r2, r2, #928	; 0x3a0
 8001dc4:	4293      	cmp	r3, r2
 8001dc6:	f000 824f 	beq.w	8002268 <HAL_DMA_IRQHandler+0x1a08>
 8001dca:	f502 6280 	add.w	r2, r2, #1024	; 0x400
 8001dce:	4293      	cmp	r3, r2
 8001dd0:	f000 824a 	beq.w	8002268 <HAL_DMA_IRQHandler+0x1a08>
 8001dd4:	f5a2 6289 	sub.w	r2, r2, #1096	; 0x448
 8001dd8:	4293      	cmp	r3, r2
 8001dda:	f000 837d 	beq.w	80024d8 <HAL_DMA_IRQHandler+0x1c78>
 8001dde:	f502 6280 	add.w	r2, r2, #1024	; 0x400
 8001de2:	4293      	cmp	r3, r2
 8001de4:	f000 8378 	beq.w	80024d8 <HAL_DMA_IRQHandler+0x1c78>
 8001de8:	f5a2 7268 	sub.w	r2, r2, #928	; 0x3a0
 8001dec:	4293      	cmp	r3, r2
 8001dee:	f000 8373 	beq.w	80024d8 <HAL_DMA_IRQHandler+0x1c78>
 8001df2:	f502 6280 	add.w	r2, r2, #1024	; 0x400
 8001df6:	4293      	cmp	r3, r2
 8001df8:	bf0c      	ite	eq
 8001dfa:	f44f 1280 	moveq.w	r2, #1048576	; 0x100000
 8001dfe:	f04f 6280 	movne.w	r2, #67108864	; 0x4000000
 8001e02:	4908      	ldr	r1, [pc, #32]	; (8001e24 <HAL_DMA_IRQHandler+0x15c4>)
 8001e04:	608a      	str	r2, [r1, #8]
 8001e06:	f7ff bb49 	b.w	800149c <HAL_DMA_IRQHandler+0xc3c>
 8001e0a:	4807      	ldr	r0, [pc, #28]	; (8001e28 <HAL_DMA_IRQHandler+0x15c8>)
 8001e0c:	f7ff b863 	b.w	8000ed6 <HAL_DMA_IRQHandler+0x676>
 8001e10:	2110      	movs	r1, #16
 8001e12:	f7ff b93d 	b.w	8001090 <HAL_DMA_IRQHandler+0x830>
 8001e16:	2120      	movs	r1, #32
 8001e18:	f7ff baee 	b.w	80013f8 <HAL_DMA_IRQHandler+0xb98>
 8001e1c:	40026010 	.word	0x40026010
 8001e20:	40026000 	.word	0x40026000
 8001e24:	40026400 	.word	0x40026400
 8001e28:	00800004 	.word	0x00800004
 8001e2c:	2110      	movs	r1, #16
 8001e2e:	f7ff bb33 	b.w	8001498 <HAL_DMA_IRQHandler+0xc38>
 8001e32:	49c3      	ldr	r1, [pc, #780]	; (8002140 <HAL_DMA_IRQHandler+0x18e0>)
 8001e34:	f7ff ba22 	b.w	800127c <HAL_DMA_IRQHandler+0xa1c>
 8001e38:	2220      	movs	r2, #32
 8001e3a:	f7ff b8be 	b.w	8000fba <HAL_DMA_IRQHandler+0x75a>
 8001e3e:	4dc1      	ldr	r5, [pc, #772]	; (8002144 <HAL_DMA_IRQHandler+0x18e4>)
 8001e40:	2208      	movs	r2, #8
 8001e42:	60aa      	str	r2, [r5, #8]
 8001e44:	6ce0      	ldr	r0, [r4, #76]	; 0x4c
 8001e46:	6ca2      	ldr	r2, [r4, #72]	; 0x48
 8001e48:	f040 0001 	orr.w	r0, r0, #1
 8001e4c:	64e0      	str	r0, [r4, #76]	; 0x4c
 8001e4e:	f04f 0c04 	mov.w	ip, #4
 8001e52:	2000      	movs	r0, #0
 8001e54:	f884 c035 	strb.w	ip, [r4, #53]	; 0x35
 8001e58:	f884 0034 	strb.w	r0, [r4, #52]	; 0x34
 8001e5c:	2a00      	cmp	r2, #0
 8001e5e:	f47e adbe 	bne.w	80009de <HAL_DMA_IRQHandler+0x17e>
 8001e62:	6828      	ldr	r0, [r5, #0]
 8001e64:	f7fe be09 	b.w	8000a7a <HAL_DMA_IRQHandler+0x21a>
 8001e68:	f44f 6280 	mov.w	r2, #1024	; 0x400
 8001e6c:	f7ff b845 	b.w	8000efa <HAL_DMA_IRQHandler+0x69a>
 8001e70:	f44f 7280 	mov.w	r2, #256	; 0x100
 8001e74:	f7ff bb84 	b.w	8001580 <HAL_DMA_IRQHandler+0xd20>
 8001e78:	f44f 2200 	mov.w	r2, #524288	; 0x80000
 8001e7c:	f7fe bd3f 	b.w	80008fe <HAL_DMA_IRQHandler+0x9e>
 8001e80:	f44f 1200 	mov.w	r2, #2097152	; 0x200000
 8001e84:	f7ff b842 	b.w	8000f0c <HAL_DMA_IRQHandler+0x6ac>
 8001e88:	f44f 3280 	mov.w	r2, #65536	; 0x10000
 8001e8c:	f7fe bdf6 	b.w	8000a7c <HAL_DMA_IRQHandler+0x21c>
 8001e90:	681b      	ldr	r3, [r3, #0]
 8001e92:	0318      	lsls	r0, r3, #12
 8001e94:	f57f a89f 	bpl.w	8000fd6 <HAL_DMA_IRQHandler+0x776>
 8001e98:	6be3      	ldr	r3, [r4, #60]	; 0x3c
 8001e9a:	2b00      	cmp	r3, #0
 8001e9c:	f47f aab6 	bne.w	800140c <HAL_DMA_IRQHandler+0xbac>
 8001ea0:	f7ff b899 	b.w	8000fd6 <HAL_DMA_IRQHandler+0x776>
 8001ea4:	6823      	ldr	r3, [r4, #0]
 8001ea6:	f7fe be58 	b.w	8000b5a <HAL_DMA_IRQHandler+0x2fa>
 8001eaa:	6868      	ldr	r0, [r5, #4]
 8001eac:	f7fe bde5 	b.w	8000a7a <HAL_DMA_IRQHandler+0x21a>
 8001eb0:	f44f 2280 	mov.w	r2, #262144	; 0x40000
 8001eb4:	f7fe be98 	b.w	8000be8 <HAL_DMA_IRQHandler+0x388>
 8001eb8:	4aa1      	ldr	r2, [pc, #644]	; (8002140 <HAL_DMA_IRQHandler+0x18e0>)
 8001eba:	f7ff bb49 	b.w	8001550 <HAL_DMA_IRQHandler+0xcf0>
 8001ebe:	4aa0      	ldr	r2, [pc, #640]	; (8002140 <HAL_DMA_IRQHandler+0x18e0>)
 8001ec0:	e74e      	b.n	8001d60 <HAL_DMA_IRQHandler+0x1500>
 8001ec2:	2220      	movs	r2, #32
 8001ec4:	e6c8      	b.n	8001c58 <HAL_DMA_IRQHandler+0x13f8>
 8001ec6:	2210      	movs	r2, #16
 8001ec8:	e79b      	b.n	8001e02 <HAL_DMA_IRQHandler+0x15a2>
 8001eca:	2320      	movs	r3, #32
 8001ecc:	e682      	b.n	8001bd4 <HAL_DMA_IRQHandler+0x1374>
 8001ece:	499e      	ldr	r1, [pc, #632]	; (8002148 <HAL_DMA_IRQHandler+0x18e8>)
 8001ed0:	e5ea      	b.n	8001aa8 <HAL_DMA_IRQHandler+0x1248>
 8001ed2:	2210      	movs	r2, #16
 8001ed4:	e702      	b.n	8001cdc <HAL_DMA_IRQHandler+0x147c>
 8001ed6:	499c      	ldr	r1, [pc, #624]	; (8002148 <HAL_DMA_IRQHandler+0x18e8>)
 8001ed8:	f7ff bba2 	b.w	8001620 <HAL_DMA_IRQHandler+0xdc0>
 8001edc:	f44f 7080 	mov.w	r0, #256	; 0x100
 8001ee0:	f7fe bece 	b.w	8000c80 <HAL_DMA_IRQHandler+0x420>
 8001ee4:	2140      	movs	r1, #64	; 0x40
 8001ee6:	f7fe be22 	b.w	8000b2e <HAL_DMA_IRQHandler+0x2ce>
 8001eea:	f44f 6280 	mov.w	r2, #1024	; 0x400
 8001eee:	e40d      	b.n	800170c <HAL_DMA_IRQHandler+0xeac>
 8001ef0:	f44f 6280 	mov.w	r2, #1024	; 0x400
 8001ef4:	e416      	b.n	8001724 <HAL_DMA_IRQHandler+0xec4>
 8001ef6:	f44f 1280 	mov.w	r2, #1048576	; 0x100000
 8001efa:	f7fe bf14 	b.w	8000d26 <HAL_DMA_IRQHandler+0x4c6>
 8001efe:	4d93      	ldr	r5, [pc, #588]	; (800214c <HAL_DMA_IRQHandler+0x18ec>)
 8001f00:	f7fe bd5c 	b.w	80009bc <HAL_DMA_IRQHandler+0x15c>
 8001f04:	4a92      	ldr	r2, [pc, #584]	; (8002150 <HAL_DMA_IRQHandler+0x18f0>)
 8001f06:	4293      	cmp	r3, r2
 8001f08:	f000 815f 	beq.w	80021ca <HAL_DMA_IRQHandler+0x196a>
 8001f0c:	f502 6280 	add.w	r2, r2, #1024	; 0x400
 8001f10:	4293      	cmp	r3, r2
 8001f12:	f000 815a 	beq.w	80021ca <HAL_DMA_IRQHandler+0x196a>
 8001f16:	f5a2 7268 	sub.w	r2, r2, #928	; 0x3a0
 8001f1a:	4293      	cmp	r3, r2
 8001f1c:	f000 8155 	beq.w	80021ca <HAL_DMA_IRQHandler+0x196a>
 8001f20:	f502 6280 	add.w	r2, r2, #1024	; 0x400
 8001f24:	4293      	cmp	r3, r2
 8001f26:	f000 8150 	beq.w	80021ca <HAL_DMA_IRQHandler+0x196a>
 8001f2a:	f5a2 6289 	sub.w	r2, r2, #1096	; 0x448
 8001f2e:	4293      	cmp	r3, r2
 8001f30:	f000 8257 	beq.w	80023e2 <HAL_DMA_IRQHandler+0x1b82>
 8001f34:	f502 6280 	add.w	r2, r2, #1024	; 0x400
 8001f38:	4293      	cmp	r3, r2
 8001f3a:	f000 8252 	beq.w	80023e2 <HAL_DMA_IRQHandler+0x1b82>
 8001f3e:	f5a2 7268 	sub.w	r2, r2, #928	; 0x3a0
 8001f42:	4293      	cmp	r3, r2
 8001f44:	f000 824d 	beq.w	80023e2 <HAL_DMA_IRQHandler+0x1b82>
 8001f48:	f502 6280 	add.w	r2, r2, #1024	; 0x400
 8001f4c:	4293      	cmp	r3, r2
 8001f4e:	f000 8248 	beq.w	80023e2 <HAL_DMA_IRQHandler+0x1b82>
 8001f52:	f5a2 6289 	sub.w	r2, r2, #1096	; 0x448
 8001f56:	4293      	cmp	r3, r2
 8001f58:	f000 830a 	beq.w	8002570 <HAL_DMA_IRQHandler+0x1d10>
 8001f5c:	f502 6280 	add.w	r2, r2, #1024	; 0x400
 8001f60:	4293      	cmp	r3, r2
 8001f62:	f000 8305 	beq.w	8002570 <HAL_DMA_IRQHandler+0x1d10>
 8001f66:	f5a2 7268 	sub.w	r2, r2, #928	; 0x3a0
 8001f6a:	4293      	cmp	r3, r2
 8001f6c:	f000 8300 	beq.w	8002570 <HAL_DMA_IRQHandler+0x1d10>
 8001f70:	f502 6280 	add.w	r2, r2, #1024	; 0x400
 8001f74:	4293      	cmp	r3, r2
 8001f76:	bf0c      	ite	eq
 8001f78:	f44f 1280 	moveq.w	r2, #1048576	; 0x100000
 8001f7c:	f04f 6280 	movne.w	r2, #67108864	; 0x4000000
 8001f80:	4972      	ldr	r1, [pc, #456]	; (800214c <HAL_DMA_IRQHandler+0x18ec>)
 8001f82:	608a      	str	r2, [r1, #8]
 8001f84:	f7ff b886 	b.w	8001094 <HAL_DMA_IRQHandler+0x834>
 8001f88:	4a71      	ldr	r2, [pc, #452]	; (8002150 <HAL_DMA_IRQHandler+0x18f0>)
 8001f8a:	4293      	cmp	r3, r2
 8001f8c:	f000 8118 	beq.w	80021c0 <HAL_DMA_IRQHandler+0x1960>
 8001f90:	f502 6280 	add.w	r2, r2, #1024	; 0x400
 8001f94:	4293      	cmp	r3, r2
 8001f96:	f000 8113 	beq.w	80021c0 <HAL_DMA_IRQHandler+0x1960>
 8001f9a:	f5a2 7268 	sub.w	r2, r2, #928	; 0x3a0
 8001f9e:	4293      	cmp	r3, r2
 8001fa0:	f000 810e 	beq.w	80021c0 <HAL_DMA_IRQHandler+0x1960>
 8001fa4:	f502 6280 	add.w	r2, r2, #1024	; 0x400
 8001fa8:	4293      	cmp	r3, r2
 8001faa:	f000 8109 	beq.w	80021c0 <HAL_DMA_IRQHandler+0x1960>
 8001fae:	f5a2 6289 	sub.w	r2, r2, #1096	; 0x448
 8001fb2:	4293      	cmp	r3, r2
 8001fb4:	f000 8228 	beq.w	8002408 <HAL_DMA_IRQHandler+0x1ba8>
 8001fb8:	f502 6280 	add.w	r2, r2, #1024	; 0x400
 8001fbc:	4293      	cmp	r3, r2
 8001fbe:	f000 8223 	beq.w	8002408 <HAL_DMA_IRQHandler+0x1ba8>
 8001fc2:	f5a2 7268 	sub.w	r2, r2, #928	; 0x3a0
 8001fc6:	4293      	cmp	r3, r2
 8001fc8:	f000 821e 	beq.w	8002408 <HAL_DMA_IRQHandler+0x1ba8>
 8001fcc:	f502 6280 	add.w	r2, r2, #1024	; 0x400
 8001fd0:	4293      	cmp	r3, r2
 8001fd2:	f000 8219 	beq.w	8002408 <HAL_DMA_IRQHandler+0x1ba8>
 8001fd6:	f5a2 6289 	sub.w	r2, r2, #1096	; 0x448
 8001fda:	4293      	cmp	r3, r2
 8001fdc:	f000 82cb 	beq.w	8002576 <HAL_DMA_IRQHandler+0x1d16>
 8001fe0:	f502 6280 	add.w	r2, r2, #1024	; 0x400
 8001fe4:	4293      	cmp	r3, r2
 8001fe6:	f000 82c6 	beq.w	8002576 <HAL_DMA_IRQHandler+0x1d16>
 8001fea:	f5a2 7268 	sub.w	r2, r2, #928	; 0x3a0
 8001fee:	4293      	cmp	r3, r2
 8001ff0:	f000 82c1 	beq.w	8002576 <HAL_DMA_IRQHandler+0x1d16>
 8001ff4:	f502 6280 	add.w	r2, r2, #1024	; 0x400
 8001ff8:	4293      	cmp	r3, r2
 8001ffa:	bf0c      	ite	eq
 8001ffc:	f44f 1280 	moveq.w	r2, #1048576	; 0x100000
 8002000:	f04f 6280 	movne.w	r2, #67108864	; 0x4000000
 8002004:	4951      	ldr	r1, [pc, #324]	; (800214c <HAL_DMA_IRQHandler+0x18ec>)
 8002006:	608a      	str	r2, [r1, #8]
 8002008:	f7ff ba48 	b.w	800149c <HAL_DMA_IRQHandler+0xc3c>
 800200c:	4a50      	ldr	r2, [pc, #320]	; (8002150 <HAL_DMA_IRQHandler+0x18f0>)
 800200e:	4293      	cmp	r3, r2
 8002010:	f000 80d1 	beq.w	80021b6 <HAL_DMA_IRQHandler+0x1956>
 8002014:	f502 6280 	add.w	r2, r2, #1024	; 0x400
 8002018:	4293      	cmp	r3, r2
 800201a:	f000 80cc 	beq.w	80021b6 <HAL_DMA_IRQHandler+0x1956>
 800201e:	f5a2 7268 	sub.w	r2, r2, #928	; 0x3a0
 8002022:	4293      	cmp	r3, r2
 8002024:	f000 80c7 	beq.w	80021b6 <HAL_DMA_IRQHandler+0x1956>
 8002028:	f502 6280 	add.w	r2, r2, #1024	; 0x400
 800202c:	4293      	cmp	r3, r2
 800202e:	f000 80c2 	beq.w	80021b6 <HAL_DMA_IRQHandler+0x1956>
 8002032:	f5a2 6289 	sub.w	r2, r2, #1096	; 0x448
 8002036:	4293      	cmp	r3, r2
 8002038:	f000 81e9 	beq.w	800240e <HAL_DMA_IRQHandler+0x1bae>
 800203c:	f502 6280 	add.w	r2, r2, #1024	; 0x400
 8002040:	4293      	cmp	r3, r2
 8002042:	f000 81e4 	beq.w	800240e <HAL_DMA_IRQHandler+0x1bae>
 8002046:	f5a2 7268 	sub.w	r2, r2, #928	; 0x3a0
 800204a:	4293      	cmp	r3, r2
 800204c:	f000 81df 	beq.w	800240e <HAL_DMA_IRQHandler+0x1bae>
 8002050:	f502 6280 	add.w	r2, r2, #1024	; 0x400
 8002054:	4293      	cmp	r3, r2
 8002056:	f000 81da 	beq.w	800240e <HAL_DMA_IRQHandler+0x1bae>
 800205a:	f5a2 6289 	sub.w	r2, r2, #1096	; 0x448
 800205e:	4293      	cmp	r3, r2
 8002060:	f000 828c 	beq.w	800257c <HAL_DMA_IRQHandler+0x1d1c>
 8002064:	f502 6280 	add.w	r2, r2, #1024	; 0x400
 8002068:	4293      	cmp	r3, r2
 800206a:	f000 8287 	beq.w	800257c <HAL_DMA_IRQHandler+0x1d1c>
 800206e:	f5a2 7268 	sub.w	r2, r2, #928	; 0x3a0
 8002072:	4293      	cmp	r3, r2
 8002074:	f000 8282 	beq.w	800257c <HAL_DMA_IRQHandler+0x1d1c>
 8002078:	f502 6280 	add.w	r2, r2, #1024	; 0x400
 800207c:	4293      	cmp	r3, r2
 800207e:	bf0c      	ite	eq
 8002080:	f44f 1200 	moveq.w	r2, #2097152	; 0x200000
 8002084:	f04f 6200 	movne.w	r2, #134217728	; 0x8000000
 8002088:	4930      	ldr	r1, [pc, #192]	; (800214c <HAL_DMA_IRQHandler+0x18ec>)
 800208a:	608a      	str	r2, [r1, #8]
 800208c:	f7ff b9b6 	b.w	80013fc <HAL_DMA_IRQHandler+0xb9c>
 8002090:	4a2f      	ldr	r2, [pc, #188]	; (8002150 <HAL_DMA_IRQHandler+0x18f0>)
 8002092:	4293      	cmp	r3, r2
 8002094:	f000 808a 	beq.w	80021ac <HAL_DMA_IRQHandler+0x194c>
 8002098:	f502 6280 	add.w	r2, r2, #1024	; 0x400
 800209c:	4293      	cmp	r3, r2
 800209e:	f000 8085 	beq.w	80021ac <HAL_DMA_IRQHandler+0x194c>
 80020a2:	f5a2 7268 	sub.w	r2, r2, #928	; 0x3a0
 80020a6:	4293      	cmp	r3, r2
 80020a8:	f000 8080 	beq.w	80021ac <HAL_DMA_IRQHandler+0x194c>
 80020ac:	f502 6280 	add.w	r2, r2, #1024	; 0x400
 80020b0:	4293      	cmp	r3, r2
 80020b2:	d07b      	beq.n	80021ac <HAL_DMA_IRQHandler+0x194c>
 80020b4:	f5a2 6289 	sub.w	r2, r2, #1096	; 0x448
 80020b8:	4293      	cmp	r3, r2
 80020ba:	f000 818f 	beq.w	80023dc <HAL_DMA_IRQHandler+0x1b7c>
 80020be:	f502 6280 	add.w	r2, r2, #1024	; 0x400
 80020c2:	4293      	cmp	r3, r2
 80020c4:	f000 818a 	beq.w	80023dc <HAL_DMA_IRQHandler+0x1b7c>
 80020c8:	f5a2 7268 	sub.w	r2, r2, #928	; 0x3a0
 80020cc:	4293      	cmp	r3, r2
 80020ce:	f000 8185 	beq.w	80023dc <HAL_DMA_IRQHandler+0x1b7c>
 80020d2:	f502 6280 	add.w	r2, r2, #1024	; 0x400
 80020d6:	4293      	cmp	r3, r2
 80020d8:	f000 8180 	beq.w	80023dc <HAL_DMA_IRQHandler+0x1b7c>
 80020dc:	f5a2 6289 	sub.w	r2, r2, #1096	; 0x448
 80020e0:	4293      	cmp	r3, r2
 80020e2:	f000 8242 	beq.w	800256a <HAL_DMA_IRQHandler+0x1d0a>
 80020e6:	f502 6280 	add.w	r2, r2, #1024	; 0x400
 80020ea:	4293      	cmp	r3, r2
 80020ec:	f000 823d 	beq.w	800256a <HAL_DMA_IRQHandler+0x1d0a>
 80020f0:	f5a2 7268 	sub.w	r2, r2, #928	; 0x3a0
 80020f4:	4293      	cmp	r3, r2
 80020f6:	f000 8238 	beq.w	800256a <HAL_DMA_IRQHandler+0x1d0a>
 80020fa:	f502 6280 	add.w	r2, r2, #1024	; 0x400
 80020fe:	4293      	cmp	r3, r2
 8002100:	bf0c      	ite	eq
 8002102:	f44f 1300 	moveq.w	r3, #2097152	; 0x200000
 8002106:	f04f 6300 	movne.w	r3, #134217728	; 0x8000000
 800210a:	4a10      	ldr	r2, [pc, #64]	; (800214c <HAL_DMA_IRQHandler+0x18ec>)
 800210c:	6093      	str	r3, [r2, #8]
 800210e:	f7fe bf56 	b.w	8000fbe <HAL_DMA_IRQHandler+0x75e>
 8002112:	4d0c      	ldr	r5, [pc, #48]	; (8002144 <HAL_DMA_IRQHandler+0x18e4>)
 8002114:	f44f 7200 	mov.w	r2, #512	; 0x200
 8002118:	60ea      	str	r2, [r5, #12]
 800211a:	6ce0      	ldr	r0, [r4, #76]	; 0x4c
 800211c:	6ca2      	ldr	r2, [r4, #72]	; 0x48
 800211e:	f040 0001 	orr.w	r0, r0, #1
 8002122:	64e0      	str	r0, [r4, #76]	; 0x4c
 8002124:	f04f 0c04 	mov.w	ip, #4
 8002128:	2000      	movs	r0, #0
 800212a:	f884 c035 	strb.w	ip, [r4, #53]	; 0x35
 800212e:	f884 0034 	strb.w	r0, [r4, #52]	; 0x34
 8002132:	2a00      	cmp	r2, #0
 8002134:	f47e ac53 	bne.w	80009de <HAL_DMA_IRQHandler+0x17e>
 8002138:	6868      	ldr	r0, [r5, #4]
 800213a:	2240      	movs	r2, #64	; 0x40
 800213c:	f7fe bc9e 	b.w	8000a7c <HAL_DMA_IRQHandler+0x21c>
 8002140:	00800001 	.word	0x00800001
 8002144:	40026400 	.word	0x40026400
 8002148:	00800004 	.word	0x00800004
 800214c:	40026000 	.word	0x40026000
 8002150:	40026010 	.word	0x40026010
 8002154:	48c6      	ldr	r0, [pc, #792]	; (8002470 <HAL_DMA_IRQHandler+0x1c10>)
 8002156:	2208      	movs	r2, #8
 8002158:	6082      	str	r2, [r0, #8]
 800215a:	6ce1      	ldr	r1, [r4, #76]	; 0x4c
 800215c:	6ca2      	ldr	r2, [r4, #72]	; 0x48
 800215e:	f041 0101 	orr.w	r1, r1, #1
 8002162:	64e1      	str	r1, [r4, #76]	; 0x4c
 8002164:	2504      	movs	r5, #4
 8002166:	2100      	movs	r1, #0
 8002168:	f884 5035 	strb.w	r5, [r4, #53]	; 0x35
 800216c:	f884 1034 	strb.w	r1, [r4, #52]	; 0x34
 8002170:	2a00      	cmp	r2, #0
 8002172:	f47e ac34 	bne.w	80009de <HAL_DMA_IRQHandler+0x17e>
 8002176:	6800      	ldr	r0, [r0, #0]
 8002178:	4abe      	ldr	r2, [pc, #760]	; (8002474 <HAL_DMA_IRQHandler+0x1c14>)
 800217a:	4619      	mov	r1, r3
 800217c:	f7fe bc7e 	b.w	8000a7c <HAL_DMA_IRQHandler+0x21c>
 8002180:	48bb      	ldr	r0, [pc, #748]	; (8002470 <HAL_DMA_IRQHandler+0x1c10>)
 8002182:	2208      	movs	r2, #8
 8002184:	60c2      	str	r2, [r0, #12]
 8002186:	6ce1      	ldr	r1, [r4, #76]	; 0x4c
 8002188:	6ca2      	ldr	r2, [r4, #72]	; 0x48
 800218a:	f041 0101 	orr.w	r1, r1, #1
 800218e:	64e1      	str	r1, [r4, #76]	; 0x4c
 8002190:	2504      	movs	r5, #4
 8002192:	2100      	movs	r1, #0
 8002194:	f884 5035 	strb.w	r5, [r4, #53]	; 0x35
 8002198:	f884 1034 	strb.w	r1, [r4, #52]	; 0x34
 800219c:	2a00      	cmp	r2, #0
 800219e:	f47e ac1e 	bne.w	80009de <HAL_DMA_IRQHandler+0x17e>
 80021a2:	6840      	ldr	r0, [r0, #4]
 80021a4:	4ab3      	ldr	r2, [pc, #716]	; (8002474 <HAL_DMA_IRQHandler+0x1c14>)
 80021a6:	4619      	mov	r1, r3
 80021a8:	f7fe bc68 	b.w	8000a7c <HAL_DMA_IRQHandler+0x21c>
 80021ac:	2320      	movs	r3, #32
 80021ae:	e7ac      	b.n	800210a <HAL_DMA_IRQHandler+0x18aa>
 80021b0:	2320      	movs	r3, #32
 80021b2:	f7ff bb63 	b.w	800187c <HAL_DMA_IRQHandler+0x101c>
 80021b6:	2220      	movs	r2, #32
 80021b8:	e766      	b.n	8002088 <HAL_DMA_IRQHandler+0x1828>
 80021ba:	2220      	movs	r2, #32
 80021bc:	f7ff bb07 	b.w	80017ce <HAL_DMA_IRQHandler+0xf6e>
 80021c0:	2210      	movs	r2, #16
 80021c2:	e71f      	b.n	8002004 <HAL_DMA_IRQHandler+0x17a4>
 80021c4:	2210      	movs	r2, #16
 80021c6:	f7ff bba3 	b.w	8001910 <HAL_DMA_IRQHandler+0x10b0>
 80021ca:	2210      	movs	r2, #16
 80021cc:	e6d8      	b.n	8001f80 <HAL_DMA_IRQHandler+0x1720>
 80021ce:	2210      	movs	r2, #16
 80021d0:	f7ff bbe7 	b.w	80019a2 <HAL_DMA_IRQHandler+0x1142>
 80021d4:	f44f 6200 	mov.w	r2, #2048	; 0x800
 80021d8:	f7fe beef 	b.w	8000fba <HAL_DMA_IRQHandler+0x75a>
 80021dc:	f44f 6100 	mov.w	r1, #2048	; 0x800
 80021e0:	f7ff b90a 	b.w	80013f8 <HAL_DMA_IRQHandler+0xb98>
 80021e4:	f44f 6180 	mov.w	r1, #1024	; 0x400
 80021e8:	f7fe bf52 	b.w	8001090 <HAL_DMA_IRQHandler+0x830>
 80021ec:	2140      	movs	r1, #64	; 0x40
 80021ee:	f7ff b845 	b.w	800127c <HAL_DMA_IRQHandler+0xa1c>
 80021f2:	f44f 6180 	mov.w	r1, #1024	; 0x400
 80021f6:	f7ff b94f 	b.w	8001498 <HAL_DMA_IRQHandler+0xc38>
 80021fa:	f44f 7080 	mov.w	r0, #256	; 0x100
 80021fe:	f7fe be6a 	b.w	8000ed6 <HAL_DMA_IRQHandler+0x676>
 8002202:	4d9d      	ldr	r5, [pc, #628]	; (8002478 <HAL_DMA_IRQHandler+0x1c18>)
 8002204:	e61c      	b.n	8001e40 <HAL_DMA_IRQHandler+0x15e0>
 8002206:	f44f 1280 	mov.w	r2, #1048576	; 0x100000
 800220a:	f7fe be76 	b.w	8000efa <HAL_DMA_IRQHandler+0x69a>
 800220e:	f44f 2280 	mov.w	r2, #262144	; 0x40000
 8002212:	f7ff b9b5 	b.w	8001580 <HAL_DMA_IRQHandler+0xd20>
 8002216:	4898      	ldr	r0, [pc, #608]	; (8002478 <HAL_DMA_IRQHandler+0x1c18>)
 8002218:	e79d      	b.n	8002156 <HAL_DMA_IRQHandler+0x18f6>
 800221a:	4a95      	ldr	r2, [pc, #596]	; (8002470 <HAL_DMA_IRQHandler+0x1c10>)
 800221c:	f44f 7000 	mov.w	r0, #512	; 0x200
 8002220:	60d0      	str	r0, [r2, #12]
 8002222:	6ce0      	ldr	r0, [r4, #76]	; 0x4c
 8002224:	6ca2      	ldr	r2, [r4, #72]	; 0x48
 8002226:	f040 0001 	orr.w	r0, r0, #1
 800222a:	64e0      	str	r0, [r4, #76]	; 0x4c
 800222c:	2504      	movs	r5, #4
 800222e:	2000      	movs	r0, #0
 8002230:	f884 5035 	strb.w	r5, [r4, #53]	; 0x35
 8002234:	f884 0034 	strb.w	r0, [r4, #52]	; 0x34
 8002238:	2a00      	cmp	r2, #0
 800223a:	f47e abd0 	bne.w	80009de <HAL_DMA_IRQHandler+0x17e>
 800223e:	488c      	ldr	r0, [pc, #560]	; (8002470 <HAL_DMA_IRQHandler+0x1c10>)
 8002240:	2240      	movs	r2, #64	; 0x40
 8002242:	6840      	ldr	r0, [r0, #4]
 8002244:	f7fe bc1a 	b.w	8000a7c <HAL_DMA_IRQHandler+0x21c>
 8002248:	f44f 6280 	mov.w	r2, #1024	; 0x400
 800224c:	e546      	b.n	8001cdc <HAL_DMA_IRQHandler+0x147c>
 800224e:	f44f 7180 	mov.w	r1, #256	; 0x100
 8002252:	f7ff b9e5 	b.w	8001620 <HAL_DMA_IRQHandler+0xdc0>
 8002256:	f44f 6300 	mov.w	r3, #2048	; 0x800
 800225a:	e4bb      	b.n	8001bd4 <HAL_DMA_IRQHandler+0x1374>
 800225c:	f44f 7180 	mov.w	r1, #256	; 0x100
 8002260:	e422      	b.n	8001aa8 <HAL_DMA_IRQHandler+0x1248>
 8002262:	f44f 6200 	mov.w	r2, #2048	; 0x800
 8002266:	e4f7      	b.n	8001c58 <HAL_DMA_IRQHandler+0x13f8>
 8002268:	f44f 6280 	mov.w	r2, #1024	; 0x400
 800226c:	e5c9      	b.n	8001e02 <HAL_DMA_IRQHandler+0x15a2>
 800226e:	2240      	movs	r2, #64	; 0x40
 8002270:	f7ff b96e 	b.w	8001550 <HAL_DMA_IRQHandler+0xcf0>
 8002274:	2240      	movs	r2, #64	; 0x40
 8002276:	e573      	b.n	8001d60 <HAL_DMA_IRQHandler+0x1500>
 8002278:	f44f 2080 	mov.w	r0, #262144	; 0x40000
 800227c:	f7fe bd00 	b.w	8000c80 <HAL_DMA_IRQHandler+0x420>
 8002280:	f44f 3180 	mov.w	r1, #65536	; 0x10000
 8002284:	f7fe bc53 	b.w	8000b2e <HAL_DMA_IRQHandler+0x2ce>
 8002288:	4d79      	ldr	r5, [pc, #484]	; (8002470 <HAL_DMA_IRQHandler+0x1c10>)
 800228a:	f44f 2200 	mov.w	r2, #524288	; 0x80000
 800228e:	60ea      	str	r2, [r5, #12]
 8002290:	6ce0      	ldr	r0, [r4, #76]	; 0x4c
 8002292:	6ca2      	ldr	r2, [r4, #72]	; 0x48
 8002294:	f040 0001 	orr.w	r0, r0, #1
 8002298:	64e0      	str	r0, [r4, #76]	; 0x4c
 800229a:	f04f 0c04 	mov.w	ip, #4
 800229e:	2000      	movs	r0, #0
 80022a0:	f884 c035 	strb.w	ip, [r4, #53]	; 0x35
 80022a4:	f884 0034 	strb.w	r0, [r4, #52]	; 0x34
 80022a8:	2a00      	cmp	r2, #0
 80022aa:	f47e ab98 	bne.w	80009de <HAL_DMA_IRQHandler+0x17e>
 80022ae:	6868      	ldr	r0, [r5, #4]
 80022b0:	f44f 3280 	mov.w	r2, #65536	; 0x10000
 80022b4:	f7fe bbe2 	b.w	8000a7c <HAL_DMA_IRQHandler+0x21c>
 80022b8:	f44f 1280 	mov.w	r2, #1048576	; 0x100000
 80022bc:	f7ff ba26 	b.w	800170c <HAL_DMA_IRQHandler+0xeac>
 80022c0:	f44f 1280 	mov.w	r2, #1048576	; 0x100000
 80022c4:	f7ff ba2e 	b.w	8001724 <HAL_DMA_IRQHandler+0xec4>
 80022c8:	4d6b      	ldr	r5, [pc, #428]	; (8002478 <HAL_DMA_IRQHandler+0x1c18>)
 80022ca:	f44f 7200 	mov.w	r2, #512	; 0x200
 80022ce:	60ea      	str	r2, [r5, #12]
 80022d0:	6ce0      	ldr	r0, [r4, #76]	; 0x4c
 80022d2:	6ca2      	ldr	r2, [r4, #72]	; 0x48
 80022d4:	f040 0001 	orr.w	r0, r0, #1
 80022d8:	64e0      	str	r0, [r4, #76]	; 0x4c
 80022da:	f04f 0c04 	mov.w	ip, #4
 80022de:	2000      	movs	r0, #0
 80022e0:	f884 c035 	strb.w	ip, [r4, #53]	; 0x35
 80022e4:	f884 0034 	strb.w	r0, [r4, #52]	; 0x34
 80022e8:	2a00      	cmp	r2, #0
 80022ea:	f47e ab78 	bne.w	80009de <HAL_DMA_IRQHandler+0x17e>
 80022ee:	6868      	ldr	r0, [r5, #4]
 80022f0:	f7ff ba04 	b.w	80016fc <HAL_DMA_IRQHandler+0xe9c>
 80022f4:	4860      	ldr	r0, [pc, #384]	; (8002478 <HAL_DMA_IRQHandler+0x1c18>)
 80022f6:	e744      	b.n	8002182 <HAL_DMA_IRQHandler+0x1922>
 80022f8:	4a5d      	ldr	r2, [pc, #372]	; (8002470 <HAL_DMA_IRQHandler+0x1c10>)
 80022fa:	f44f 7000 	mov.w	r0, #512	; 0x200
 80022fe:	6090      	str	r0, [r2, #8]
 8002300:	6ce0      	ldr	r0, [r4, #76]	; 0x4c
 8002302:	6ca2      	ldr	r2, [r4, #72]	; 0x48
 8002304:	f040 0001 	orr.w	r0, r0, #1
 8002308:	64e0      	str	r0, [r4, #76]	; 0x4c
 800230a:	2504      	movs	r5, #4
 800230c:	2000      	movs	r0, #0
 800230e:	f884 5035 	strb.w	r5, [r4, #53]	; 0x35
 8002312:	f884 0034 	strb.w	r0, [r4, #52]	; 0x34
 8002316:	2a00      	cmp	r2, #0
 8002318:	f47e ab61 	bne.w	80009de <HAL_DMA_IRQHandler+0x17e>
 800231c:	4854      	ldr	r0, [pc, #336]	; (8002470 <HAL_DMA_IRQHandler+0x1c10>)
 800231e:	2240      	movs	r2, #64	; 0x40
 8002320:	6800      	ldr	r0, [r0, #0]
 8002322:	f7fe bbab 	b.w	8000a7c <HAL_DMA_IRQHandler+0x21c>
 8002326:	4d54      	ldr	r5, [pc, #336]	; (8002478 <HAL_DMA_IRQHandler+0x1c18>)
 8002328:	f7ff b9d5 	b.w	80016d6 <HAL_DMA_IRQHandler+0xe76>
 800232c:	4850      	ldr	r0, [pc, #320]	; (8002470 <HAL_DMA_IRQHandler+0x1c10>)
 800232e:	f44f 7200 	mov.w	r2, #512	; 0x200
 8002332:	6082      	str	r2, [r0, #8]
 8002334:	6ce1      	ldr	r1, [r4, #76]	; 0x4c
 8002336:	6ca2      	ldr	r2, [r4, #72]	; 0x48
 8002338:	f041 0101 	orr.w	r1, r1, #1
 800233c:	64e1      	str	r1, [r4, #76]	; 0x4c
 800233e:	2504      	movs	r5, #4
 8002340:	2100      	movs	r1, #0
 8002342:	f884 5035 	strb.w	r5, [r4, #53]	; 0x35
 8002346:	f884 1034 	strb.w	r1, [r4, #52]	; 0x34
 800234a:	2a00      	cmp	r2, #0
 800234c:	f47e ab47 	bne.w	80009de <HAL_DMA_IRQHandler+0x17e>
 8002350:	6800      	ldr	r0, [r0, #0]
 8002352:	494a      	ldr	r1, [pc, #296]	; (800247c <HAL_DMA_IRQHandler+0x1c1c>)
 8002354:	f7ff b9d2 	b.w	80016fc <HAL_DMA_IRQHandler+0xe9c>
 8002358:	4a47      	ldr	r2, [pc, #284]	; (8002478 <HAL_DMA_IRQHandler+0x1c18>)
 800235a:	2008      	movs	r0, #8
 800235c:	60d0      	str	r0, [r2, #12]
 800235e:	6ce0      	ldr	r0, [r4, #76]	; 0x4c
 8002360:	6ca2      	ldr	r2, [r4, #72]	; 0x48
 8002362:	f040 0001 	orr.w	r0, r0, #1
 8002366:	64e0      	str	r0, [r4, #76]	; 0x4c
 8002368:	2504      	movs	r5, #4
 800236a:	2000      	movs	r0, #0
 800236c:	f884 5035 	strb.w	r5, [r4, #53]	; 0x35
 8002370:	f884 0034 	strb.w	r0, [r4, #52]	; 0x34
 8002374:	2a00      	cmp	r2, #0
 8002376:	f47e ab32 	bne.w	80009de <HAL_DMA_IRQHandler+0x17e>
 800237a:	483f      	ldr	r0, [pc, #252]	; (8002478 <HAL_DMA_IRQHandler+0x1c18>)
 800237c:	4a3d      	ldr	r2, [pc, #244]	; (8002474 <HAL_DMA_IRQHandler+0x1c14>)
 800237e:	6840      	ldr	r0, [r0, #4]
 8002380:	f7fe bb7c 	b.w	8000a7c <HAL_DMA_IRQHandler+0x21c>
 8002384:	4a3c      	ldr	r2, [pc, #240]	; (8002478 <HAL_DMA_IRQHandler+0x1c18>)
 8002386:	2008      	movs	r0, #8
 8002388:	6090      	str	r0, [r2, #8]
 800238a:	6ce0      	ldr	r0, [r4, #76]	; 0x4c
 800238c:	6ca2      	ldr	r2, [r4, #72]	; 0x48
 800238e:	f040 0001 	orr.w	r0, r0, #1
 8002392:	64e0      	str	r0, [r4, #76]	; 0x4c
 8002394:	2504      	movs	r5, #4
 8002396:	2000      	movs	r0, #0
 8002398:	f884 5035 	strb.w	r5, [r4, #53]	; 0x35
 800239c:	f884 0034 	strb.w	r0, [r4, #52]	; 0x34
 80023a0:	2a00      	cmp	r2, #0
 80023a2:	f47e ab1c 	bne.w	80009de <HAL_DMA_IRQHandler+0x17e>
 80023a6:	4834      	ldr	r0, [pc, #208]	; (8002478 <HAL_DMA_IRQHandler+0x1c18>)
 80023a8:	4a32      	ldr	r2, [pc, #200]	; (8002474 <HAL_DMA_IRQHandler+0x1c14>)
 80023aa:	6800      	ldr	r0, [r0, #0]
 80023ac:	f7fe bb66 	b.w	8000a7c <HAL_DMA_IRQHandler+0x21c>
 80023b0:	482f      	ldr	r0, [pc, #188]	; (8002470 <HAL_DMA_IRQHandler+0x1c10>)
 80023b2:	f44f 7200 	mov.w	r2, #512	; 0x200
 80023b6:	60c2      	str	r2, [r0, #12]
 80023b8:	6ce1      	ldr	r1, [r4, #76]	; 0x4c
 80023ba:	6ca2      	ldr	r2, [r4, #72]	; 0x48
 80023bc:	f041 0101 	orr.w	r1, r1, #1
 80023c0:	64e1      	str	r1, [r4, #76]	; 0x4c
 80023c2:	2504      	movs	r5, #4
 80023c4:	2100      	movs	r1, #0
 80023c6:	f884 5035 	strb.w	r5, [r4, #53]	; 0x35
 80023ca:	f884 1034 	strb.w	r1, [r4, #52]	; 0x34
 80023ce:	2a00      	cmp	r2, #0
 80023d0:	f47e ab05 	bne.w	80009de <HAL_DMA_IRQHandler+0x17e>
 80023d4:	6840      	ldr	r0, [r0, #4]
 80023d6:	4619      	mov	r1, r3
 80023d8:	f7ff b990 	b.w	80016fc <HAL_DMA_IRQHandler+0xe9c>
 80023dc:	f44f 6300 	mov.w	r3, #2048	; 0x800
 80023e0:	e693      	b.n	800210a <HAL_DMA_IRQHandler+0x18aa>
 80023e2:	f44f 6280 	mov.w	r2, #1024	; 0x400
 80023e6:	e5cb      	b.n	8001f80 <HAL_DMA_IRQHandler+0x1720>
 80023e8:	f44f 6280 	mov.w	r2, #1024	; 0x400
 80023ec:	f7ff bad9 	b.w	80019a2 <HAL_DMA_IRQHandler+0x1142>
 80023f0:	f44f 6280 	mov.w	r2, #1024	; 0x400
 80023f4:	f7ff ba8c 	b.w	8001910 <HAL_DMA_IRQHandler+0x10b0>
 80023f8:	f44f 6200 	mov.w	r2, #2048	; 0x800
 80023fc:	f7ff b9e7 	b.w	80017ce <HAL_DMA_IRQHandler+0xf6e>
 8002400:	f44f 6300 	mov.w	r3, #2048	; 0x800
 8002404:	f7ff ba3a 	b.w	800187c <HAL_DMA_IRQHandler+0x101c>
 8002408:	f44f 6280 	mov.w	r2, #1024	; 0x400
 800240c:	e5fa      	b.n	8002004 <HAL_DMA_IRQHandler+0x17a4>
 800240e:	f44f 6200 	mov.w	r2, #2048	; 0x800
 8002412:	e639      	b.n	8002088 <HAL_DMA_IRQHandler+0x1828>
 8002414:	f44f 1100 	mov.w	r1, #2097152	; 0x200000
 8002418:	f7fe bfee 	b.w	80013f8 <HAL_DMA_IRQHandler+0xb98>
 800241c:	f44f 1180 	mov.w	r1, #1048576	; 0x100000
 8002420:	f7fe be36 	b.w	8001090 <HAL_DMA_IRQHandler+0x830>
 8002424:	f44f 1180 	mov.w	r1, #1048576	; 0x100000
 8002428:	f7ff b836 	b.w	8001498 <HAL_DMA_IRQHandler+0xc38>
 800242c:	f44f 3180 	mov.w	r1, #65536	; 0x10000
 8002430:	f7fe bf24 	b.w	800127c <HAL_DMA_IRQHandler+0xa1c>
 8002434:	f44f 2080 	mov.w	r0, #262144	; 0x40000
 8002438:	f7fe bd4d 	b.w	8000ed6 <HAL_DMA_IRQHandler+0x676>
 800243c:	f44f 1200 	mov.w	r2, #2097152	; 0x200000
 8002440:	f7fe bdbb 	b.w	8000fba <HAL_DMA_IRQHandler+0x75a>
 8002444:	480c      	ldr	r0, [pc, #48]	; (8002478 <HAL_DMA_IRQHandler+0x1c18>)
 8002446:	f44f 7200 	mov.w	r2, #512	; 0x200
 800244a:	6082      	str	r2, [r0, #8]
 800244c:	6ce1      	ldr	r1, [r4, #76]	; 0x4c
 800244e:	6ca2      	ldr	r2, [r4, #72]	; 0x48
 8002450:	f041 0101 	orr.w	r1, r1, #1
 8002454:	64e1      	str	r1, [r4, #76]	; 0x4c
 8002456:	2504      	movs	r5, #4
 8002458:	2100      	movs	r1, #0
 800245a:	f884 5035 	strb.w	r5, [r4, #53]	; 0x35
 800245e:	f884 1034 	strb.w	r1, [r4, #52]	; 0x34
 8002462:	2a00      	cmp	r2, #0
 8002464:	f47e aabb 	bne.w	80009de <HAL_DMA_IRQHandler+0x17e>
 8002468:	6800      	ldr	r0, [r0, #0]
 800246a:	4905      	ldr	r1, [pc, #20]	; (8002480 <HAL_DMA_IRQHandler+0x1c20>)
 800246c:	f7ff b946 	b.w	80016fc <HAL_DMA_IRQHandler+0xe9c>
 8002470:	40026400 	.word	0x40026400
 8002474:	00800001 	.word	0x00800001
 8002478:	40026000 	.word	0x40026000
 800247c:	40026428 	.word	0x40026428
 8002480:	40026028 	.word	0x40026028
 8002484:	4d45      	ldr	r5, [pc, #276]	; (800259c <HAL_DMA_IRQHandler+0x1d3c>)
 8002486:	f44f 2200 	mov.w	r2, #524288	; 0x80000
 800248a:	60aa      	str	r2, [r5, #8]
 800248c:	6ce0      	ldr	r0, [r4, #76]	; 0x4c
 800248e:	6ca2      	ldr	r2, [r4, #72]	; 0x48
 8002490:	f040 0001 	orr.w	r0, r0, #1
 8002494:	64e0      	str	r0, [r4, #76]	; 0x4c
 8002496:	f04f 0c04 	mov.w	ip, #4
 800249a:	2000      	movs	r0, #0
 800249c:	f884 c035 	strb.w	ip, [r4, #53]	; 0x35
 80024a0:	f884 0034 	strb.w	r0, [r4, #52]	; 0x34
 80024a4:	2a00      	cmp	r2, #0
 80024a6:	f47e aa9a 	bne.w	80009de <HAL_DMA_IRQHandler+0x17e>
 80024aa:	6828      	ldr	r0, [r5, #0]
 80024ac:	f44f 3280 	mov.w	r2, #65536	; 0x10000
 80024b0:	f7fe bae4 	b.w	8000a7c <HAL_DMA_IRQHandler+0x21c>
 80024b4:	f44f 1280 	mov.w	r2, #1048576	; 0x100000
 80024b8:	e410      	b.n	8001cdc <HAL_DMA_IRQHandler+0x147c>
 80024ba:	f44f 1300 	mov.w	r3, #2097152	; 0x200000
 80024be:	f7ff bb89 	b.w	8001bd4 <HAL_DMA_IRQHandler+0x1374>
 80024c2:	f44f 3280 	mov.w	r2, #65536	; 0x10000
 80024c6:	e44b      	b.n	8001d60 <HAL_DMA_IRQHandler+0x1500>
 80024c8:	f44f 1200 	mov.w	r2, #2097152	; 0x200000
 80024cc:	f7ff bbc4 	b.w	8001c58 <HAL_DMA_IRQHandler+0x13f8>
 80024d0:	f44f 3280 	mov.w	r2, #65536	; 0x10000
 80024d4:	f7ff b83c 	b.w	8001550 <HAL_DMA_IRQHandler+0xcf0>
 80024d8:	f44f 1280 	mov.w	r2, #1048576	; 0x100000
 80024dc:	e491      	b.n	8001e02 <HAL_DMA_IRQHandler+0x15a2>
 80024de:	f44f 2180 	mov.w	r1, #262144	; 0x40000
 80024e2:	f7ff bae1 	b.w	8001aa8 <HAL_DMA_IRQHandler+0x1248>
 80024e6:	f44f 2180 	mov.w	r1, #262144	; 0x40000
 80024ea:	f7ff b899 	b.w	8001620 <HAL_DMA_IRQHandler+0xdc0>
 80024ee:	4d2c      	ldr	r5, [pc, #176]	; (80025a0 <HAL_DMA_IRQHandler+0x1d40>)
 80024f0:	e6cb      	b.n	800228a <HAL_DMA_IRQHandler+0x1a2a>
 80024f2:	482b      	ldr	r0, [pc, #172]	; (80025a0 <HAL_DMA_IRQHandler+0x1d40>)
 80024f4:	e75d      	b.n	80023b2 <HAL_DMA_IRQHandler+0x1b52>
 80024f6:	4829      	ldr	r0, [pc, #164]	; (800259c <HAL_DMA_IRQHandler+0x1d3c>)
 80024f8:	f44f 2200 	mov.w	r2, #524288	; 0x80000
 80024fc:	6082      	str	r2, [r0, #8]
 80024fe:	6ce1      	ldr	r1, [r4, #76]	; 0x4c
 8002500:	6ca2      	ldr	r2, [r4, #72]	; 0x48
 8002502:	f041 0101 	orr.w	r1, r1, #1
 8002506:	64e1      	str	r1, [r4, #76]	; 0x4c
 8002508:	2504      	movs	r5, #4
 800250a:	2100      	movs	r1, #0
 800250c:	f884 5035 	strb.w	r5, [r4, #53]	; 0x35
 8002510:	f884 1034 	strb.w	r1, [r4, #52]	; 0x34
 8002514:	2a00      	cmp	r2, #0
 8002516:	f47e aa62 	bne.w	80009de <HAL_DMA_IRQHandler+0x17e>
 800251a:	6800      	ldr	r0, [r0, #0]
 800251c:	4619      	mov	r1, r3
 800251e:	f44f 3280 	mov.w	r2, #65536	; 0x10000
 8002522:	f7fe baab 	b.w	8000a7c <HAL_DMA_IRQHandler+0x21c>
 8002526:	4d1e      	ldr	r5, [pc, #120]	; (80025a0 <HAL_DMA_IRQHandler+0x1d40>)
 8002528:	e7ad      	b.n	8002486 <HAL_DMA_IRQHandler+0x1c26>
 800252a:	481c      	ldr	r0, [pc, #112]	; (800259c <HAL_DMA_IRQHandler+0x1d3c>)
 800252c:	f44f 2200 	mov.w	r2, #524288	; 0x80000
 8002530:	60c2      	str	r2, [r0, #12]
 8002532:	6ce1      	ldr	r1, [r4, #76]	; 0x4c
 8002534:	6ca2      	ldr	r2, [r4, #72]	; 0x48
 8002536:	f041 0101 	orr.w	r1, r1, #1
 800253a:	64e1      	str	r1, [r4, #76]	; 0x4c
 800253c:	2504      	movs	r5, #4
 800253e:	2100      	movs	r1, #0
 8002540:	f884 5035 	strb.w	r5, [r4, #53]	; 0x35
 8002544:	f884 1034 	strb.w	r1, [r4, #52]	; 0x34
 8002548:	2a00      	cmp	r2, #0
 800254a:	f47e aa48 	bne.w	80009de <HAL_DMA_IRQHandler+0x17e>
 800254e:	6840      	ldr	r0, [r0, #4]
 8002550:	4619      	mov	r1, r3
 8002552:	f44f 3280 	mov.w	r2, #65536	; 0x10000
 8002556:	f7fe ba91 	b.w	8000a7c <HAL_DMA_IRQHandler+0x21c>
 800255a:	f44f 1280 	mov.w	r2, #1048576	; 0x100000
 800255e:	f7ff ba20 	b.w	80019a2 <HAL_DMA_IRQHandler+0x1142>
 8002562:	f44f 1280 	mov.w	r2, #1048576	; 0x100000
 8002566:	f7ff b9d3 	b.w	8001910 <HAL_DMA_IRQHandler+0x10b0>
 800256a:	f44f 1300 	mov.w	r3, #2097152	; 0x200000
 800256e:	e5cc      	b.n	800210a <HAL_DMA_IRQHandler+0x18aa>
 8002570:	f44f 1280 	mov.w	r2, #1048576	; 0x100000
 8002574:	e504      	b.n	8001f80 <HAL_DMA_IRQHandler+0x1720>
 8002576:	f44f 1280 	mov.w	r2, #1048576	; 0x100000
 800257a:	e543      	b.n	8002004 <HAL_DMA_IRQHandler+0x17a4>
 800257c:	f44f 1200 	mov.w	r2, #2097152	; 0x200000
 8002580:	e582      	b.n	8002088 <HAL_DMA_IRQHandler+0x1828>
 8002582:	f44f 1200 	mov.w	r2, #2097152	; 0x200000
 8002586:	f7ff b922 	b.w	80017ce <HAL_DMA_IRQHandler+0xf6e>
 800258a:	f44f 1300 	mov.w	r3, #2097152	; 0x200000
 800258e:	f7ff b975 	b.w	800187c <HAL_DMA_IRQHandler+0x101c>
 8002592:	4803      	ldr	r0, [pc, #12]	; (80025a0 <HAL_DMA_IRQHandler+0x1d40>)
 8002594:	e7b0      	b.n	80024f8 <HAL_DMA_IRQHandler+0x1c98>
 8002596:	4802      	ldr	r0, [pc, #8]	; (80025a0 <HAL_DMA_IRQHandler+0x1d40>)
 8002598:	e7c8      	b.n	800252c <HAL_DMA_IRQHandler+0x1ccc>
 800259a:	bf00      	nop
 800259c:	40026400 	.word	0x40026400
 80025a0:	40026000 	.word	0x40026000

080025a4 <HAL_GPIO_Init>:
HAL_GPIO_Init():
 80025a4:	e92d 4f70 	stmdb	sp!, {r4, r5, r6, r8, r9, sl, fp, lr}
 80025a8:	2300      	movs	r3, #0
 80025aa:	680d      	ldr	r5, [r1, #0]
 80025ac:	f8df 8270 	ldr.w	r8, [pc, #624]	; 8002820 <HAL_GPIO_Init+0x27c>
 80025b0:	b082      	sub	sp, #8
 80025b2:	e003      	b.n	80025bc <HAL_GPIO_Init+0x18>
 80025b4:	3301      	adds	r3, #1
 80025b6:	2b10      	cmp	r3, #16
 80025b8:	f000 80a9 	beq.w	800270e <HAL_GPIO_Init+0x16a>
 80025bc:	2201      	movs	r2, #1
 80025be:	409a      	lsls	r2, r3
 80025c0:	ea32 0405 	bics.w	r4, r2, r5
 80025c4:	ea02 0c05 	and.w	ip, r2, r5
 80025c8:	d1f4      	bne.n	80025b4 <HAL_GPIO_Init+0x10>
 80025ca:	684e      	ldr	r6, [r1, #4]
 80025cc:	f026 0910 	bic.w	r9, r6, #16
 80025d0:	f1b9 0f02 	cmp.w	r9, #2
 80025d4:	f000 809e 	beq.w	8002714 <HAL_GPIO_Init+0x170>
 80025d8:	f8d0 b000 	ldr.w	fp, [r0]
 80025dc:	ea4f 0e43 	mov.w	lr, r3, lsl #1
 80025e0:	2403      	movs	r4, #3
 80025e2:	fa04 f40e 	lsl.w	r4, r4, lr
 80025e6:	f006 0a03 	and.w	sl, r6, #3
 80025ea:	ea2b 0b04 	bic.w	fp, fp, r4
 80025ee:	f109 39ff 	add.w	r9, r9, #4294967295	; 0xffffffff
 80025f2:	fa0a fa0e 	lsl.w	sl, sl, lr
 80025f6:	43e4      	mvns	r4, r4
 80025f8:	ea4a 0a0b 	orr.w	sl, sl, fp
 80025fc:	f1b9 0f01 	cmp.w	r9, #1
 8002600:	9401      	str	r4, [sp, #4]
 8002602:	f8c0 a000 	str.w	sl, [r0]
 8002606:	f240 80af 	bls.w	8002768 <HAL_GPIO_Init+0x1c4>
 800260a:	68c2      	ldr	r2, [r0, #12]
 800260c:	9c01      	ldr	r4, [sp, #4]
 800260e:	4014      	ands	r4, r2
 8002610:	688a      	ldr	r2, [r1, #8]
 8002612:	fa02 f20e 	lsl.w	r2, r2, lr
 8002616:	4322      	orrs	r2, r4
 8002618:	60c2      	str	r2, [r0, #12]
 800261a:	00f2      	lsls	r2, r6, #3
 800261c:	d5ca      	bpl.n	80025b4 <HAL_GPIO_Init+0x10>
 800261e:	4c79      	ldr	r4, [pc, #484]	; (8002804 <HAL_GPIO_Init+0x260>)
 8002620:	6c62      	ldr	r2, [r4, #68]	; 0x44
 8002622:	f442 4280 	orr.w	r2, r2, #16384	; 0x4000
 8002626:	6462      	str	r2, [r4, #68]	; 0x44
 8002628:	f023 0203 	bic.w	r2, r3, #3
 800262c:	f102 4280 	add.w	r2, r2, #1073741824	; 0x40000000
 8002630:	f502 329c 	add.w	r2, r2, #79872	; 0x13800
 8002634:	f003 0903 	and.w	r9, r3, #3
 8002638:	6894      	ldr	r4, [r2, #8]
 800263a:	ea4f 0989 	mov.w	r9, r9, lsl #2
 800263e:	f04f 0e0f 	mov.w	lr, #15
 8002642:	fa0e fe09 	lsl.w	lr, lr, r9
 8002646:	ea24 0a0e 	bic.w	sl, r4, lr
 800264a:	4c6f      	ldr	r4, [pc, #444]	; (8002808 <HAL_GPIO_Init+0x264>)
 800264c:	42a0      	cmp	r0, r4
 800264e:	d02e      	beq.n	80026ae <HAL_GPIO_Init+0x10a>
 8002650:	f504 6480 	add.w	r4, r4, #1024	; 0x400
 8002654:	42a0      	cmp	r0, r4
 8002656:	f000 809c 	beq.w	8002792 <HAL_GPIO_Init+0x1ee>
 800265a:	4c6c      	ldr	r4, [pc, #432]	; (800280c <HAL_GPIO_Init+0x268>)
 800265c:	42a0      	cmp	r0, r4
 800265e:	f000 809f 	beq.w	80027a0 <HAL_GPIO_Init+0x1fc>
 8002662:	4c6b      	ldr	r4, [pc, #428]	; (8002810 <HAL_GPIO_Init+0x26c>)
 8002664:	42a0      	cmp	r0, r4
 8002666:	f000 80a2 	beq.w	80027ae <HAL_GPIO_Init+0x20a>
 800266a:	4c6a      	ldr	r4, [pc, #424]	; (8002814 <HAL_GPIO_Init+0x270>)
 800266c:	42a0      	cmp	r0, r4
 800266e:	f000 80a5 	beq.w	80027bc <HAL_GPIO_Init+0x218>
 8002672:	4c69      	ldr	r4, [pc, #420]	; (8002818 <HAL_GPIO_Init+0x274>)
 8002674:	42a0      	cmp	r0, r4
 8002676:	f000 80af 	beq.w	80027d8 <HAL_GPIO_Init+0x234>
 800267a:	4c68      	ldr	r4, [pc, #416]	; (800281c <HAL_GPIO_Init+0x278>)
 800267c:	42a0      	cmp	r0, r4
 800267e:	f000 80b2 	beq.w	80027e6 <HAL_GPIO_Init+0x242>
 8002682:	f8df e1a0 	ldr.w	lr, [pc, #416]	; 8002824 <HAL_GPIO_Init+0x280>
 8002686:	4570      	cmp	r0, lr
 8002688:	f000 809f 	beq.w	80027ca <HAL_GPIO_Init+0x226>
 800268c:	f8df e198 	ldr.w	lr, [pc, #408]	; 8002828 <HAL_GPIO_Init+0x284>
 8002690:	4570      	cmp	r0, lr
 8002692:	f000 80af 	beq.w	80027f4 <HAL_GPIO_Init+0x250>
 8002696:	f8df e194 	ldr.w	lr, [pc, #404]	; 800282c <HAL_GPIO_Init+0x288>
 800269a:	4570      	cmp	r0, lr
 800269c:	bf0c      	ite	eq
 800269e:	f04f 0e09 	moveq.w	lr, #9
 80026a2:	f04f 0e0a 	movne.w	lr, #10
 80026a6:	fa0e fe09 	lsl.w	lr, lr, r9
 80026aa:	ea4a 0a0e 	orr.w	sl, sl, lr
 80026ae:	f8c2 a008 	str.w	sl, [r2, #8]
 80026b2:	f8d8 2000 	ldr.w	r2, [r8]
 80026b6:	ea6f 040c 	mvn.w	r4, ip
 80026ba:	f416 3f80 	tst.w	r6, #65536	; 0x10000
 80026be:	bf0c      	ite	eq
 80026c0:	4022      	andeq	r2, r4
 80026c2:	ea4c 0202 	orrne.w	r2, ip, r2
 80026c6:	f8c8 2000 	str.w	r2, [r8]
 80026ca:	f8d8 2004 	ldr.w	r2, [r8, #4]
 80026ce:	f416 3f00 	tst.w	r6, #131072	; 0x20000
 80026d2:	bf0c      	ite	eq
 80026d4:	4022      	andeq	r2, r4
 80026d6:	ea4c 0202 	orrne.w	r2, ip, r2
 80026da:	f8c8 2004 	str.w	r2, [r8, #4]
 80026de:	f8d8 2008 	ldr.w	r2, [r8, #8]
 80026e2:	f416 1f80 	tst.w	r6, #1048576	; 0x100000
 80026e6:	bf0c      	ite	eq
 80026e8:	4022      	andeq	r2, r4
 80026ea:	ea4c 0202 	orrne.w	r2, ip, r2
 80026ee:	f8c8 2008 	str.w	r2, [r8, #8]
 80026f2:	f8d8 200c 	ldr.w	r2, [r8, #12]
 80026f6:	02b6      	lsls	r6, r6, #10
 80026f8:	f103 0301 	add.w	r3, r3, #1
 80026fc:	bf54      	ite	pl
 80026fe:	4022      	andpl	r2, r4
 8002700:	ea4c 0202 	orrmi.w	r2, ip, r2
 8002704:	2b10      	cmp	r3, #16
 8002706:	f8c8 200c 	str.w	r2, [r8, #12]
 800270a:	f47f af57 	bne.w	80025bc <HAL_GPIO_Init+0x18>
 800270e:	b002      	add	sp, #8
 8002710:	e8bd 8f70 	ldmia.w	sp!, {r4, r5, r6, r8, r9, sl, fp, pc}
 8002714:	ea4f 0ed3 	mov.w	lr, r3, lsr #3
 8002718:	eb00 0e8e 	add.w	lr, r0, lr, lsl #2
 800271c:	690c      	ldr	r4, [r1, #16]
 800271e:	f8de a020 	ldr.w	sl, [lr, #32]
 8002722:	f003 0907 	and.w	r9, r3, #7
 8002726:	ea4f 0989 	mov.w	r9, r9, lsl #2
 800272a:	f04f 0b0f 	mov.w	fp, #15
 800272e:	fa04 f409 	lsl.w	r4, r4, r9
 8002732:	fa0b f909 	lsl.w	r9, fp, r9
 8002736:	ea2a 0909 	bic.w	r9, sl, r9
 800273a:	ea44 0409 	orr.w	r4, r4, r9
 800273e:	f8ce 4020 	str.w	r4, [lr, #32]
 8002742:	f8d0 a000 	ldr.w	sl, [r0]
 8002746:	ea4f 0e43 	mov.w	lr, r3, lsl #1
 800274a:	2403      	movs	r4, #3
 800274c:	fa04 f40e 	lsl.w	r4, r4, lr
 8002750:	f006 0903 	and.w	r9, r6, #3
 8002754:	ea2a 0a04 	bic.w	sl, sl, r4
 8002758:	fa09 f90e 	lsl.w	r9, r9, lr
 800275c:	43e4      	mvns	r4, r4
 800275e:	ea49 090a 	orr.w	r9, r9, sl
 8002762:	9401      	str	r4, [sp, #4]
 8002764:	f8c0 9000 	str.w	r9, [r0]
 8002768:	f8d0 a008 	ldr.w	sl, [r0, #8]
 800276c:	ea0a 0a04 	and.w	sl, sl, r4
 8002770:	68cc      	ldr	r4, [r1, #12]
 8002772:	fa04 f90e 	lsl.w	r9, r4, lr
 8002776:	ea49 090a 	orr.w	r9, r9, sl
 800277a:	f8c0 9008 	str.w	r9, [r0, #8]
 800277e:	f8d0 9004 	ldr.w	r9, [r0, #4]
 8002782:	ea29 0902 	bic.w	r9, r9, r2
 8002786:	0932      	lsrs	r2, r6, #4
 8002788:	409a      	lsls	r2, r3
 800278a:	ea42 0209 	orr.w	r2, r2, r9
 800278e:	6042      	str	r2, [r0, #4]
 8002790:	e73b      	b.n	800260a <HAL_GPIO_Init+0x66>
 8002792:	f04f 0e01 	mov.w	lr, #1
 8002796:	fa0e fe09 	lsl.w	lr, lr, r9
 800279a:	ea4a 0a0e 	orr.w	sl, sl, lr
 800279e:	e786      	b.n	80026ae <HAL_GPIO_Init+0x10a>
 80027a0:	f04f 0e02 	mov.w	lr, #2
 80027a4:	fa0e fe09 	lsl.w	lr, lr, r9
 80027a8:	ea4a 0a0e 	orr.w	sl, sl, lr
 80027ac:	e77f      	b.n	80026ae <HAL_GPIO_Init+0x10a>
 80027ae:	f04f 0e03 	mov.w	lr, #3
 80027b2:	fa0e fe09 	lsl.w	lr, lr, r9
 80027b6:	ea4a 0a0e 	orr.w	sl, sl, lr
 80027ba:	e778      	b.n	80026ae <HAL_GPIO_Init+0x10a>
 80027bc:	f04f 0e04 	mov.w	lr, #4
 80027c0:	fa0e fe09 	lsl.w	lr, lr, r9
 80027c4:	ea4a 0a0e 	orr.w	sl, sl, lr
 80027c8:	e771      	b.n	80026ae <HAL_GPIO_Init+0x10a>
 80027ca:	f04f 0e07 	mov.w	lr, #7
 80027ce:	fa0e fe09 	lsl.w	lr, lr, r9
 80027d2:	ea4a 0a0e 	orr.w	sl, sl, lr
 80027d6:	e76a      	b.n	80026ae <HAL_GPIO_Init+0x10a>
 80027d8:	f04f 0e05 	mov.w	lr, #5
 80027dc:	fa0e fe09 	lsl.w	lr, lr, r9
 80027e0:	ea4a 0a0e 	orr.w	sl, sl, lr
 80027e4:	e763      	b.n	80026ae <HAL_GPIO_Init+0x10a>
 80027e6:	f04f 0e06 	mov.w	lr, #6
 80027ea:	fa0e fe09 	lsl.w	lr, lr, r9
 80027ee:	ea4a 0a0e 	orr.w	sl, sl, lr
 80027f2:	e75c      	b.n	80026ae <HAL_GPIO_Init+0x10a>
 80027f4:	f04f 0e08 	mov.w	lr, #8
 80027f8:	fa0e fe09 	lsl.w	lr, lr, r9
 80027fc:	ea4a 0a0e 	orr.w	sl, sl, lr
 8002800:	e755      	b.n	80026ae <HAL_GPIO_Init+0x10a>
 8002802:	bf00      	nop
 8002804:	40023800 	.word	0x40023800
 8002808:	40020000 	.word	0x40020000
 800280c:	40020800 	.word	0x40020800
 8002810:	40020c00 	.word	0x40020c00
 8002814:	40021000 	.word	0x40021000
 8002818:	40021400 	.word	0x40021400
 800281c:	40021800 	.word	0x40021800
 8002820:	40013c00 	.word	0x40013c00
 8002824:	40021c00 	.word	0x40021c00
 8002828:	40022000 	.word	0x40022000
 800282c:	40022400 	.word	0x40022400

08002830 <I2S_DMAError>:
I2S_DMAError():
 8002830:	6b83      	ldr	r3, [r0, #56]	; 0x38
 8002832:	2200      	movs	r2, #0
 8002834:	2101      	movs	r1, #1
 8002836:	855a      	strh	r2, [r3, #42]	; 0x2a
 8002838:	865a      	strh	r2, [r3, #50]	; 0x32
 800283a:	f883 103d 	strb.w	r1, [r3, #61]	; 0x3d
 800283e:	f893 203e 	ldrb.w	r2, [r3, #62]	; 0x3e
 8002842:	4905      	ldr	r1, [pc, #20]	; (8002858 <I2S_DMAError+0x28>)
 8002844:	6818      	ldr	r0, [r3, #0]
 8002846:	f042 0220 	orr.w	r2, r2, #32
 800284a:	4288      	cmp	r0, r1
 800284c:	f883 203e 	strb.w	r2, [r3, #62]	; 0x3e
 8002850:	d000      	beq.n	8002854 <I2S_DMAError+0x24>
 8002852:	4770      	bx	lr
 8002854:	e7fe      	b.n	8002854 <I2S_DMAError+0x24>
 8002856:	bf00      	nop
 8002858:	40003c00 	.word	0x40003c00

0800285c <HAL_RCC_GetHCLKFreq>:
HAL_RCC_GetHCLKFreq():
 800285c:	4a26      	ldr	r2, [pc, #152]	; (80028f8 <HAL_RCC_GetHCLKFreq+0x9c>)
 800285e:	6893      	ldr	r3, [r2, #8]
 8002860:	f003 030c 	and.w	r3, r3, #12
 8002864:	2b04      	cmp	r3, #4
 8002866:	d045      	beq.n	80028f4 <HAL_RCC_GetHCLKFreq+0x98>
 8002868:	2b08      	cmp	r3, #8
 800286a:	d141      	bne.n	80028f0 <HAL_RCC_GetHCLKFreq+0x94>
 800286c:	6850      	ldr	r0, [r2, #4]
 800286e:	6851      	ldr	r1, [r2, #4]
 8002870:	f44f 0380 	mov.w	r3, #4194304	; 0x400000
 8002874:	f000 003f 	and.w	r0, r0, #63	; 0x3f
 8002878:	fa93 f3a3 	rbit	r3, r3
 800287c:	fab3 f383 	clz	r3, r3
 8002880:	f401 0180 	and.w	r1, r1, #4194304	; 0x400000
 8002884:	b2db      	uxtb	r3, r3
 8002886:	40d9      	lsrs	r1, r3
 8002888:	6851      	ldr	r1, [r2, #4]
 800288a:	f647 72c0 	movw	r2, #32704	; 0x7fc0
 800288e:	fa92 f3a2 	rbit	r3, r2
 8002892:	fab3 f383 	clz	r3, r3
 8002896:	b2db      	uxtb	r3, r3
 8002898:	ea01 0102 	and.w	r1, r1, r2
 800289c:	fa21 f103 	lsr.w	r1, r1, r3
 80028a0:	bf14      	ite	ne
 80028a2:	4b16      	ldrne	r3, [pc, #88]	; (80028fc <HAL_RCC_GetHCLKFreq+0xa0>)
 80028a4:	4b16      	ldreq	r3, [pc, #88]	; (8002900 <HAL_RCC_GetHCLKFreq+0xa4>)
 80028a6:	fbb3 f3f0 	udiv	r3, r3, r0
 80028aa:	fb03 f101 	mul.w	r1, r3, r1
 80028ae:	4b12      	ldr	r3, [pc, #72]	; (80028f8 <HAL_RCC_GetHCLKFreq+0x9c>)
 80028b0:	f44f 3240 	mov.w	r2, #196608	; 0x30000
 80028b4:	685b      	ldr	r3, [r3, #4]
 80028b6:	fa92 f2a2 	rbit	r2, r2
 80028ba:	fab2 f282 	clz	r2, r2
 80028be:	f403 3340 	and.w	r3, r3, #196608	; 0x30000
 80028c2:	b2d2      	uxtb	r2, r2
 80028c4:	40d3      	lsrs	r3, r2
 80028c6:	3301      	adds	r3, #1
 80028c8:	005b      	lsls	r3, r3, #1
 80028ca:	fbb1 f1f3 	udiv	r1, r1, r3
 80028ce:	4a0a      	ldr	r2, [pc, #40]	; (80028f8 <HAL_RCC_GetHCLKFreq+0x9c>)
 80028d0:	23f0      	movs	r3, #240	; 0xf0
 80028d2:	6892      	ldr	r2, [r2, #8]
 80028d4:	fa93 f3a3 	rbit	r3, r3
 80028d8:	fab3 f383 	clz	r3, r3
 80028dc:	f002 02f0 	and.w	r2, r2, #240	; 0xf0
 80028e0:	b2db      	uxtb	r3, r3
 80028e2:	fa22 f303 	lsr.w	r3, r2, r3
 80028e6:	4807      	ldr	r0, [pc, #28]	; (8002904 <HAL_RCC_GetHCLKFreq+0xa8>)
 80028e8:	5cc0      	ldrb	r0, [r0, r3]
 80028ea:	fa21 f000 	lsr.w	r0, r1, r0
 80028ee:	4770      	bx	lr
 80028f0:	4903      	ldr	r1, [pc, #12]	; (8002900 <HAL_RCC_GetHCLKFreq+0xa4>)
 80028f2:	e7ec      	b.n	80028ce <HAL_RCC_GetHCLKFreq+0x72>
 80028f4:	4901      	ldr	r1, [pc, #4]	; (80028fc <HAL_RCC_GetHCLKFreq+0xa0>)
 80028f6:	e7ea      	b.n	80028ce <HAL_RCC_GetHCLKFreq+0x72>
 80028f8:	40023800 	.word	0x40023800
 80028fc:	007a1200 	.word	0x007a1200
 8002900:	00f42400 	.word	0x00f42400
 8002904:	08008bd8 	.word	0x08008bd8

08002908 <USB_EnableGlobalInt>:
USB_EnableGlobalInt():
 8002908:	4603      	mov	r3, r0
 800290a:	2000      	movs	r0, #0
 800290c:	689a      	ldr	r2, [r3, #8]
 800290e:	f042 0201 	orr.w	r2, r2, #1
 8002912:	609a      	str	r2, [r3, #8]
 8002914:	4770      	bx	lr
 8002916:	bf00      	nop

08002918 <USB_DisableGlobalInt>:
USB_DisableGlobalInt():
 8002918:	4603      	mov	r3, r0
 800291a:	2000      	movs	r0, #0
 800291c:	689a      	ldr	r2, [r3, #8]
 800291e:	f022 0201 	bic.w	r2, r2, #1
 8002922:	609a      	str	r2, [r3, #8]
 8002924:	4770      	bx	lr
 8002926:	bf00      	nop

08002928 <USB_FlushTxFifo>:
USB_FlushTxFifo():
 8002928:	0149      	lsls	r1, r1, #5
 800292a:	f041 0120 	orr.w	r1, r1, #32
 800292e:	4a06      	ldr	r2, [pc, #24]	; (8002948 <USB_FlushTxFifo+0x20>)
 8002930:	6101      	str	r1, [r0, #16]
 8002932:	e001      	b.n	8002938 <USB_FlushTxFifo+0x10>
 8002934:	3a01      	subs	r2, #1
 8002936:	d005      	beq.n	8002944 <USB_FlushTxFifo+0x1c>
 8002938:	6903      	ldr	r3, [r0, #16]
 800293a:	f013 0320 	ands.w	r3, r3, #32
 800293e:	d1f9      	bne.n	8002934 <USB_FlushTxFifo+0xc>
 8002940:	4618      	mov	r0, r3
 8002942:	4770      	bx	lr
 8002944:	2003      	movs	r0, #3
 8002946:	4770      	bx	lr
 8002948:	00030d40 	.word	0x00030d40

0800294c <USB_FlushRxFifo>:
USB_FlushRxFifo():
 800294c:	2310      	movs	r3, #16
 800294e:	4a06      	ldr	r2, [pc, #24]	; (8002968 <USB_FlushRxFifo+0x1c>)
 8002950:	6103      	str	r3, [r0, #16]
 8002952:	e001      	b.n	8002958 <USB_FlushRxFifo+0xc>
 8002954:	3a01      	subs	r2, #1
 8002956:	d005      	beq.n	8002964 <USB_FlushRxFifo+0x18>
 8002958:	6903      	ldr	r3, [r0, #16]
 800295a:	f013 0310 	ands.w	r3, r3, #16
 800295e:	d1f9      	bne.n	8002954 <USB_FlushRxFifo+0x8>
 8002960:	4618      	mov	r0, r3
 8002962:	4770      	bx	lr
 8002964:	2003      	movs	r0, #3
 8002966:	4770      	bx	lr
 8002968:	00030d40 	.word	0x00030d40

0800296c <USB_WritePacket>:
USB_WritePacket():
 800296c:	b410      	push	{r4}
 800296e:	f89d 4004 	ldrb.w	r4, [sp, #4]
 8002972:	b97c      	cbnz	r4, 8002994 <USB_WritePacket+0x28>
 8002974:	f103 0c03 	add.w	ip, r3, #3
 8002978:	ea5f 0cac 	movs.w	ip, ip, asr #2
 800297c:	d00a      	beq.n	8002994 <USB_WritePacket+0x28>
 800297e:	f500 5080 	add.w	r0, r0, #4096	; 0x1000
 8002982:	eb00 3202 	add.w	r2, r0, r2, lsl #12
 8002986:	4623      	mov	r3, r4
 8002988:	3301      	adds	r3, #1
 800298a:	f851 0b04 	ldr.w	r0, [r1], #4
 800298e:	6010      	str	r0, [r2, #0]
 8002990:	459c      	cmp	ip, r3
 8002992:	d1f9      	bne.n	8002988 <USB_WritePacket+0x1c>
 8002994:	2000      	movs	r0, #0
 8002996:	f85d 4b04 	ldr.w	r4, [sp], #4
 800299a:	4770      	bx	lr

0800299c <cs43l22_SetFrequency>:
cs43l22_SetFrequency():
 800299c:	2000      	movs	r0, #0
 800299e:	4770      	bx	lr

080029a0 <BSP_LED_Init>:
BSP_LED_Init():
 80029a0:	b150      	cbz	r0, 80029b8 <BSP_LED_Init+0x18>
 80029a2:	2801      	cmp	r0, #1
 80029a4:	d008      	beq.n	80029b8 <BSP_LED_Init+0x18>
 80029a6:	4a03      	ldr	r2, [pc, #12]	; (80029b4 <BSP_LED_Init+0x14>)
 80029a8:	6b13      	ldr	r3, [r2, #48]	; 0x30
 80029aa:	f043 0308 	orr.w	r3, r3, #8
 80029ae:	6313      	str	r3, [r2, #48]	; 0x30
 80029b0:	e007      	b.n	80029c2 <BSP_LED_Init+0x22>
 80029b2:	bf00      	nop
 80029b4:	40023800 	.word	0x40023800
 80029b8:	4aad      	ldr	r2, [pc, #692]	; (8002c70 <BSP_LED_Init+0x2d0>)
 80029ba:	6b13      	ldr	r3, [r2, #48]	; 0x30
 80029bc:	f043 0308 	orr.w	r3, r3, #8
 80029c0:	6313      	str	r3, [r2, #48]	; 0x30
 80029c2:	4aac      	ldr	r2, [pc, #688]	; (8002c74 <BSP_LED_Init+0x2d4>)
 80029c4:	4bac      	ldr	r3, [pc, #688]	; (8002c78 <BSP_LED_Init+0x2d8>)
 80029c6:	f832 2010 	ldrh.w	r2, [r2, r0, lsl #1]
 80029ca:	f853 3020 	ldr.w	r3, [r3, r0, lsl #2]
 80029ce:	0791      	lsls	r1, r2, #30
 80029d0:	d515      	bpl.n	80029fe <BSP_LED_Init+0x5e>
 80029d2:	6819      	ldr	r1, [r3, #0]
 80029d4:	f021 010c 	bic.w	r1, r1, #12
 80029d8:	f041 0104 	orr.w	r1, r1, #4
 80029dc:	6019      	str	r1, [r3, #0]
 80029de:	6899      	ldr	r1, [r3, #8]
 80029e0:	f021 010c 	bic.w	r1, r1, #12
 80029e4:	f041 0108 	orr.w	r1, r1, #8
 80029e8:	6099      	str	r1, [r3, #8]
 80029ea:	6859      	ldr	r1, [r3, #4]
 80029ec:	f021 0102 	bic.w	r1, r1, #2
 80029f0:	6059      	str	r1, [r3, #4]
 80029f2:	68d9      	ldr	r1, [r3, #12]
 80029f4:	f021 010c 	bic.w	r1, r1, #12
 80029f8:	f041 0104 	orr.w	r1, r1, #4
 80029fc:	60d9      	str	r1, [r3, #12]
 80029fe:	0751      	lsls	r1, r2, #29
 8002a00:	d515      	bpl.n	8002a2e <BSP_LED_Init+0x8e>
 8002a02:	6819      	ldr	r1, [r3, #0]
 8002a04:	f021 0130 	bic.w	r1, r1, #48	; 0x30
 8002a08:	f041 0110 	orr.w	r1, r1, #16
 8002a0c:	6019      	str	r1, [r3, #0]
 8002a0e:	6899      	ldr	r1, [r3, #8]
 8002a10:	f021 0130 	bic.w	r1, r1, #48	; 0x30
 8002a14:	f041 0120 	orr.w	r1, r1, #32
 8002a18:	6099      	str	r1, [r3, #8]
 8002a1a:	6859      	ldr	r1, [r3, #4]
 8002a1c:	f021 0104 	bic.w	r1, r1, #4
 8002a20:	6059      	str	r1, [r3, #4]
 8002a22:	68d9      	ldr	r1, [r3, #12]
 8002a24:	f021 0130 	bic.w	r1, r1, #48	; 0x30
 8002a28:	f041 0110 	orr.w	r1, r1, #16
 8002a2c:	60d9      	str	r1, [r3, #12]
 8002a2e:	0710      	lsls	r0, r2, #28
 8002a30:	d515      	bpl.n	8002a5e <BSP_LED_Init+0xbe>
 8002a32:	6819      	ldr	r1, [r3, #0]
 8002a34:	f021 01c0 	bic.w	r1, r1, #192	; 0xc0
 8002a38:	f041 0140 	orr.w	r1, r1, #64	; 0x40
 8002a3c:	6019      	str	r1, [r3, #0]
 8002a3e:	6899      	ldr	r1, [r3, #8]
 8002a40:	f021 01c0 	bic.w	r1, r1, #192	; 0xc0
 8002a44:	f041 0180 	orr.w	r1, r1, #128	; 0x80
 8002a48:	6099      	str	r1, [r3, #8]
 8002a4a:	6859      	ldr	r1, [r3, #4]
 8002a4c:	f021 0108 	bic.w	r1, r1, #8
 8002a50:	6059      	str	r1, [r3, #4]
 8002a52:	68d9      	ldr	r1, [r3, #12]
 8002a54:	f021 01c0 	bic.w	r1, r1, #192	; 0xc0
 8002a58:	f041 0140 	orr.w	r1, r1, #64	; 0x40
 8002a5c:	60d9      	str	r1, [r3, #12]
 8002a5e:	06d1      	lsls	r1, r2, #27
 8002a60:	d515      	bpl.n	8002a8e <BSP_LED_Init+0xee>
 8002a62:	6819      	ldr	r1, [r3, #0]
 8002a64:	f421 7140 	bic.w	r1, r1, #768	; 0x300
 8002a68:	f441 7180 	orr.w	r1, r1, #256	; 0x100
 8002a6c:	6019      	str	r1, [r3, #0]
 8002a6e:	6899      	ldr	r1, [r3, #8]
 8002a70:	f421 7140 	bic.w	r1, r1, #768	; 0x300
 8002a74:	f441 7100 	orr.w	r1, r1, #512	; 0x200
 8002a78:	6099      	str	r1, [r3, #8]
 8002a7a:	6859      	ldr	r1, [r3, #4]
 8002a7c:	f021 0110 	bic.w	r1, r1, #16
 8002a80:	6059      	str	r1, [r3, #4]
 8002a82:	68d9      	ldr	r1, [r3, #12]
 8002a84:	f421 7140 	bic.w	r1, r1, #768	; 0x300
 8002a88:	f441 7180 	orr.w	r1, r1, #256	; 0x100
 8002a8c:	60d9      	str	r1, [r3, #12]
 8002a8e:	0690      	lsls	r0, r2, #26
 8002a90:	d515      	bpl.n	8002abe <BSP_LED_Init+0x11e>
 8002a92:	6819      	ldr	r1, [r3, #0]
 8002a94:	f421 6140 	bic.w	r1, r1, #3072	; 0xc00
 8002a98:	f441 6180 	orr.w	r1, r1, #1024	; 0x400
 8002a9c:	6019      	str	r1, [r3, #0]
 8002a9e:	6899      	ldr	r1, [r3, #8]
 8002aa0:	f421 6140 	bic.w	r1, r1, #3072	; 0xc00
 8002aa4:	f441 6100 	orr.w	r1, r1, #2048	; 0x800
 8002aa8:	6099      	str	r1, [r3, #8]
 8002aaa:	6859      	ldr	r1, [r3, #4]
 8002aac:	f021 0120 	bic.w	r1, r1, #32
 8002ab0:	6059      	str	r1, [r3, #4]
 8002ab2:	68d9      	ldr	r1, [r3, #12]
 8002ab4:	f421 6140 	bic.w	r1, r1, #3072	; 0xc00
 8002ab8:	f441 6180 	orr.w	r1, r1, #1024	; 0x400
 8002abc:	60d9      	str	r1, [r3, #12]
 8002abe:	0651      	lsls	r1, r2, #25
 8002ac0:	d515      	bpl.n	8002aee <BSP_LED_Init+0x14e>
 8002ac2:	6819      	ldr	r1, [r3, #0]
 8002ac4:	f421 5140 	bic.w	r1, r1, #12288	; 0x3000
 8002ac8:	f441 5180 	orr.w	r1, r1, #4096	; 0x1000
 8002acc:	6019      	str	r1, [r3, #0]
 8002ace:	6899      	ldr	r1, [r3, #8]
 8002ad0:	f421 5140 	bic.w	r1, r1, #12288	; 0x3000
 8002ad4:	f441 5100 	orr.w	r1, r1, #8192	; 0x2000
 8002ad8:	6099      	str	r1, [r3, #8]
 8002ada:	6859      	ldr	r1, [r3, #4]
 8002adc:	f021 0140 	bic.w	r1, r1, #64	; 0x40
 8002ae0:	6059      	str	r1, [r3, #4]
 8002ae2:	68d9      	ldr	r1, [r3, #12]
 8002ae4:	f421 5140 	bic.w	r1, r1, #12288	; 0x3000
 8002ae8:	f441 5180 	orr.w	r1, r1, #4096	; 0x1000
 8002aec:	60d9      	str	r1, [r3, #12]
 8002aee:	0610      	lsls	r0, r2, #24
 8002af0:	d515      	bpl.n	8002b1e <BSP_LED_Init+0x17e>
 8002af2:	6819      	ldr	r1, [r3, #0]
 8002af4:	f421 4140 	bic.w	r1, r1, #49152	; 0xc000
 8002af8:	f441 4180 	orr.w	r1, r1, #16384	; 0x4000
 8002afc:	6019      	str	r1, [r3, #0]
 8002afe:	6899      	ldr	r1, [r3, #8]
 8002b00:	f421 4140 	bic.w	r1, r1, #49152	; 0xc000
 8002b04:	f441 4100 	orr.w	r1, r1, #32768	; 0x8000
 8002b08:	6099      	str	r1, [r3, #8]
 8002b0a:	6859      	ldr	r1, [r3, #4]
 8002b0c:	f021 0180 	bic.w	r1, r1, #128	; 0x80
 8002b10:	6059      	str	r1, [r3, #4]
 8002b12:	68d9      	ldr	r1, [r3, #12]
 8002b14:	f421 4140 	bic.w	r1, r1, #49152	; 0xc000
 8002b18:	f441 4180 	orr.w	r1, r1, #16384	; 0x4000
 8002b1c:	60d9      	str	r1, [r3, #12]
 8002b1e:	05d1      	lsls	r1, r2, #23
 8002b20:	d515      	bpl.n	8002b4e <BSP_LED_Init+0x1ae>
 8002b22:	6819      	ldr	r1, [r3, #0]
 8002b24:	f421 3140 	bic.w	r1, r1, #196608	; 0x30000
 8002b28:	f441 3180 	orr.w	r1, r1, #65536	; 0x10000
 8002b2c:	6019      	str	r1, [r3, #0]
 8002b2e:	6899      	ldr	r1, [r3, #8]
 8002b30:	f421 3140 	bic.w	r1, r1, #196608	; 0x30000
 8002b34:	f441 3100 	orr.w	r1, r1, #131072	; 0x20000
 8002b38:	6099      	str	r1, [r3, #8]
 8002b3a:	6859      	ldr	r1, [r3, #4]
 8002b3c:	f421 7180 	bic.w	r1, r1, #256	; 0x100
 8002b40:	6059      	str	r1, [r3, #4]
 8002b42:	68d9      	ldr	r1, [r3, #12]
 8002b44:	f421 3140 	bic.w	r1, r1, #196608	; 0x30000
 8002b48:	f441 3180 	orr.w	r1, r1, #65536	; 0x10000
 8002b4c:	60d9      	str	r1, [r3, #12]
 8002b4e:	0590      	lsls	r0, r2, #22
 8002b50:	d515      	bpl.n	8002b7e <BSP_LED_Init+0x1de>
 8002b52:	6819      	ldr	r1, [r3, #0]
 8002b54:	f421 2140 	bic.w	r1, r1, #786432	; 0xc0000
 8002b58:	f441 2180 	orr.w	r1, r1, #262144	; 0x40000
 8002b5c:	6019      	str	r1, [r3, #0]
 8002b5e:	6899      	ldr	r1, [r3, #8]
 8002b60:	f421 2140 	bic.w	r1, r1, #786432	; 0xc0000
 8002b64:	f441 2100 	orr.w	r1, r1, #524288	; 0x80000
 8002b68:	6099      	str	r1, [r3, #8]
 8002b6a:	6859      	ldr	r1, [r3, #4]
 8002b6c:	f421 7100 	bic.w	r1, r1, #512	; 0x200
 8002b70:	6059      	str	r1, [r3, #4]
 8002b72:	68d9      	ldr	r1, [r3, #12]
 8002b74:	f421 2140 	bic.w	r1, r1, #786432	; 0xc0000
 8002b78:	f441 2180 	orr.w	r1, r1, #262144	; 0x40000
 8002b7c:	60d9      	str	r1, [r3, #12]
 8002b7e:	0551      	lsls	r1, r2, #21
 8002b80:	d515      	bpl.n	8002bae <BSP_LED_Init+0x20e>
 8002b82:	6819      	ldr	r1, [r3, #0]
 8002b84:	f421 1140 	bic.w	r1, r1, #3145728	; 0x300000
 8002b88:	f441 1180 	orr.w	r1, r1, #1048576	; 0x100000
 8002b8c:	6019      	str	r1, [r3, #0]
 8002b8e:	6899      	ldr	r1, [r3, #8]
 8002b90:	f421 1140 	bic.w	r1, r1, #3145728	; 0x300000
 8002b94:	f441 1100 	orr.w	r1, r1, #2097152	; 0x200000
 8002b98:	6099      	str	r1, [r3, #8]
 8002b9a:	6859      	ldr	r1, [r3, #4]
 8002b9c:	f421 6180 	bic.w	r1, r1, #1024	; 0x400
 8002ba0:	6059      	str	r1, [r3, #4]
 8002ba2:	68d9      	ldr	r1, [r3, #12]
 8002ba4:	f421 1140 	bic.w	r1, r1, #3145728	; 0x300000
 8002ba8:	f441 1180 	orr.w	r1, r1, #1048576	; 0x100000
 8002bac:	60d9      	str	r1, [r3, #12]
 8002bae:	0510      	lsls	r0, r2, #20
 8002bb0:	d515      	bpl.n	8002bde <BSP_LED_Init+0x23e>
 8002bb2:	6819      	ldr	r1, [r3, #0]
 8002bb4:	f421 0140 	bic.w	r1, r1, #12582912	; 0xc00000
 8002bb8:	f441 0180 	orr.w	r1, r1, #4194304	; 0x400000
 8002bbc:	6019      	str	r1, [r3, #0]
 8002bbe:	6899      	ldr	r1, [r3, #8]
 8002bc0:	f421 0140 	bic.w	r1, r1, #12582912	; 0xc00000
 8002bc4:	f441 0100 	orr.w	r1, r1, #8388608	; 0x800000
 8002bc8:	6099      	str	r1, [r3, #8]
 8002bca:	6859      	ldr	r1, [r3, #4]
 8002bcc:	f421 6100 	bic.w	r1, r1, #2048	; 0x800
 8002bd0:	6059      	str	r1, [r3, #4]
 8002bd2:	68d9      	ldr	r1, [r3, #12]
 8002bd4:	f421 0140 	bic.w	r1, r1, #12582912	; 0xc00000
 8002bd8:	f441 0180 	orr.w	r1, r1, #4194304	; 0x400000
 8002bdc:	60d9      	str	r1, [r3, #12]
 8002bde:	04d1      	lsls	r1, r2, #19
 8002be0:	d515      	bpl.n	8002c0e <BSP_LED_Init+0x26e>
 8002be2:	6819      	ldr	r1, [r3, #0]
 8002be4:	f021 7140 	bic.w	r1, r1, #50331648	; 0x3000000
 8002be8:	f041 7180 	orr.w	r1, r1, #16777216	; 0x1000000
 8002bec:	6019      	str	r1, [r3, #0]
 8002bee:	6899      	ldr	r1, [r3, #8]
 8002bf0:	f021 7140 	bic.w	r1, r1, #50331648	; 0x3000000
 8002bf4:	f041 7100 	orr.w	r1, r1, #33554432	; 0x2000000
 8002bf8:	6099      	str	r1, [r3, #8]
 8002bfa:	6859      	ldr	r1, [r3, #4]
 8002bfc:	f421 5180 	bic.w	r1, r1, #4096	; 0x1000
 8002c00:	6059      	str	r1, [r3, #4]
 8002c02:	68d9      	ldr	r1, [r3, #12]
 8002c04:	f021 7140 	bic.w	r1, r1, #50331648	; 0x3000000
 8002c08:	f041 7180 	orr.w	r1, r1, #16777216	; 0x1000000
 8002c0c:	60d9      	str	r1, [r3, #12]
 8002c0e:	0490      	lsls	r0, r2, #18
 8002c10:	d515      	bpl.n	8002c3e <BSP_LED_Init+0x29e>
 8002c12:	6819      	ldr	r1, [r3, #0]
 8002c14:	f021 6140 	bic.w	r1, r1, #201326592	; 0xc000000
 8002c18:	f041 6180 	orr.w	r1, r1, #67108864	; 0x4000000
 8002c1c:	6019      	str	r1, [r3, #0]
 8002c1e:	6899      	ldr	r1, [r3, #8]
 8002c20:	f021 6140 	bic.w	r1, r1, #201326592	; 0xc000000
 8002c24:	f041 6100 	orr.w	r1, r1, #134217728	; 0x8000000
 8002c28:	6099      	str	r1, [r3, #8]
 8002c2a:	6859      	ldr	r1, [r3, #4]
 8002c2c:	f421 5100 	bic.w	r1, r1, #8192	; 0x2000
 8002c30:	6059      	str	r1, [r3, #4]
 8002c32:	68d9      	ldr	r1, [r3, #12]
 8002c34:	f021 6140 	bic.w	r1, r1, #201326592	; 0xc000000
 8002c38:	f041 6180 	orr.w	r1, r1, #67108864	; 0x4000000
 8002c3c:	60d9      	str	r1, [r3, #12]
 8002c3e:	0451      	lsls	r1, r2, #17
 8002c40:	d51c      	bpl.n	8002c7c <BSP_LED_Init+0x2dc>
 8002c42:	6819      	ldr	r1, [r3, #0]
 8002c44:	f021 5140 	bic.w	r1, r1, #805306368	; 0x30000000
 8002c48:	f041 5180 	orr.w	r1, r1, #268435456	; 0x10000000
 8002c4c:	6019      	str	r1, [r3, #0]
 8002c4e:	6899      	ldr	r1, [r3, #8]
 8002c50:	f021 5140 	bic.w	r1, r1, #805306368	; 0x30000000
 8002c54:	f041 5100 	orr.w	r1, r1, #536870912	; 0x20000000
 8002c58:	6099      	str	r1, [r3, #8]
 8002c5a:	6859      	ldr	r1, [r3, #4]
 8002c5c:	f421 4180 	bic.w	r1, r1, #16384	; 0x4000
 8002c60:	6059      	str	r1, [r3, #4]
 8002c62:	68d9      	ldr	r1, [r3, #12]
 8002c64:	f021 5140 	bic.w	r1, r1, #805306368	; 0x30000000
 8002c68:	f041 5180 	orr.w	r1, r1, #268435456	; 0x10000000
 8002c6c:	60d9      	str	r1, [r3, #12]
 8002c6e:	e005      	b.n	8002c7c <BSP_LED_Init+0x2dc>
 8002c70:	40023800 	.word	0x40023800
 8002c74:	08008be8 	.word	0x08008be8
 8002c78:	08008bf0 	.word	0x08008bf0
 8002c7c:	0410      	lsls	r0, r2, #16
 8002c7e:	d515      	bpl.n	8002cac <BSP_LED_Init+0x30c>
 8002c80:	6819      	ldr	r1, [r3, #0]
 8002c82:	f021 4140 	bic.w	r1, r1, #3221225472	; 0xc0000000
 8002c86:	f041 4180 	orr.w	r1, r1, #1073741824	; 0x40000000
 8002c8a:	6019      	str	r1, [r3, #0]
 8002c8c:	6899      	ldr	r1, [r3, #8]
 8002c8e:	f021 4140 	bic.w	r1, r1, #3221225472	; 0xc0000000
 8002c92:	f041 4100 	orr.w	r1, r1, #2147483648	; 0x80000000
 8002c96:	6099      	str	r1, [r3, #8]
 8002c98:	6859      	ldr	r1, [r3, #4]
 8002c9a:	f421 4100 	bic.w	r1, r1, #32768	; 0x8000
 8002c9e:	6059      	str	r1, [r3, #4]
 8002ca0:	68d9      	ldr	r1, [r3, #12]
 8002ca2:	f021 4140 	bic.w	r1, r1, #3221225472	; 0xc0000000
 8002ca6:	f041 4180 	orr.w	r1, r1, #1073741824	; 0x40000000
 8002caa:	60d9      	str	r1, [r3, #12]
 8002cac:	835a      	strh	r2, [r3, #26]
 8002cae:	4770      	bx	lr

08002cb0 <HAL_NVIC_SetPriority.constprop.0>:
HAL_NVIC_SetPriority.constprop.0():
 8002cb0:	4b15      	ldr	r3, [pc, #84]	; (8002d08 <HAL_NVIC_SetPriority.constprop.0+0x58>)
 8002cb2:	68db      	ldr	r3, [r3, #12]
 8002cb4:	f3c3 2302 	ubfx	r3, r3, #8, #3
 8002cb8:	f1c3 0c07 	rsb	ip, r3, #7
 8002cbc:	1d1a      	adds	r2, r3, #4
 8002cbe:	f1bc 0f04 	cmp.w	ip, #4
 8002cc2:	bf28      	it	cs
 8002cc4:	f04f 0c04 	movcs.w	ip, #4
 8002cc8:	2a06      	cmp	r2, #6
 8002cca:	bf88      	it	hi
 8002ccc:	1eda      	subhi	r2, r3, #3
 8002cce:	f04f 0301 	mov.w	r3, #1
 8002cd2:	fa03 f30c 	lsl.w	r3, r3, ip
 8002cd6:	f103 33ff 	add.w	r3, r3, #4294967295	; 0xffffffff
 8002cda:	bf98      	it	ls
 8002cdc:	2200      	movls	r2, #0
 8002cde:	4019      	ands	r1, r3
 8002ce0:	1c43      	adds	r3, r0, #1
 8002ce2:	fa01 f102 	lsl.w	r1, r1, r2
 8002ce6:	d008      	beq.n	8002cfa <HAL_NVIC_SetPriority.constprop.0+0x4a>
 8002ce8:	f100 4060 	add.w	r0, r0, #3758096384	; 0xe0000000
 8002cec:	0109      	lsls	r1, r1, #4
 8002cee:	f500 4061 	add.w	r0, r0, #57600	; 0xe100
 8002cf2:	b2c9      	uxtb	r1, r1
 8002cf4:	f880 1300 	strb.w	r1, [r0, #768]	; 0x300
 8002cf8:	4770      	bx	lr
 8002cfa:	4b03      	ldr	r3, [pc, #12]	; (8002d08 <HAL_NVIC_SetPriority.constprop.0+0x58>)
 8002cfc:	0109      	lsls	r1, r1, #4
 8002cfe:	b2c9      	uxtb	r1, r1
 8002d00:	f883 1023 	strb.w	r1, [r3, #35]	; 0x23
 8002d04:	4770      	bx	lr
 8002d06:	bf00      	nop
 8002d08:	e000ed00 	.word	0xe000ed00

08002d0c <I2Cx_Init.part.0>:
I2Cx_Init.part.0():
 8002d0c:	e92d 4f70 	stmdb	sp!, {r4, r5, r6, r8, r9, sl, fp, lr}
 8002d10:	495c      	ldr	r1, [pc, #368]	; (8002e84 <I2Cx_Init.part.0+0x178>)
 8002d12:	4d5d      	ldr	r5, [pc, #372]	; (8002e88 <I2Cx_Init.part.0+0x17c>)
 8002d14:	4b5d      	ldr	r3, [pc, #372]	; (8002e8c <I2Cx_Init.part.0+0x180>)
 8002d16:	485e      	ldr	r0, [pc, #376]	; (8002e90 <I2Cx_Init.part.0+0x184>)
 8002d18:	6b0a      	ldr	r2, [r1, #48]	; 0x30
 8002d1a:	602b      	str	r3, [r5, #0]
 8002d1c:	2300      	movs	r3, #0
 8002d1e:	e9c5 0301 	strd	r0, r3, [r5, #4]
 8002d22:	2433      	movs	r4, #51	; 0x33
 8002d24:	f44f 4080 	mov.w	r0, #16384	; 0x4000
 8002d28:	e9c5 4003 	strd	r4, r0, [r5, #12]
 8002d2c:	f042 0202 	orr.w	r2, r2, #2
 8002d30:	2301      	movs	r3, #1
 8002d32:	4c58      	ldr	r4, [pc, #352]	; (8002e94 <I2Cx_Init.part.0+0x188>)
 8002d34:	630a      	str	r2, [r1, #48]	; 0x30
 8002d36:	469c      	mov	ip, r3
 8002d38:	f04f 090f 	mov.w	r9, #15
 8002d3c:	f04f 0804 	mov.w	r8, #4
 8002d40:	2603      	movs	r6, #3
 8002d42:	f04f 0e02 	mov.w	lr, #2
 8002d46:	fa0c fa03 	lsl.w	sl, ip, r3
 8002d4a:	f43a 7210 	bics.w	r2, sl, #576	; 0x240
 8002d4e:	d129      	bne.n	8002da4 <I2Cx_Init.part.0+0x98>
 8002d50:	08d8      	lsrs	r0, r3, #3
 8002d52:	0080      	lsls	r0, r0, #2
 8002d54:	f100 4080 	add.w	r0, r0, #1073741824	; 0x40000000
 8002d58:	f500 3001 	add.w	r0, r0, #132096	; 0x20400
 8002d5c:	f003 0207 	and.w	r2, r3, #7
 8002d60:	6a01      	ldr	r1, [r0, #32]
 8002d62:	0092      	lsls	r2, r2, #2
 8002d64:	fa09 fb02 	lsl.w	fp, r9, r2
 8002d68:	ea21 0b0b 	bic.w	fp, r1, fp
 8002d6c:	fa08 f102 	lsl.w	r1, r8, r2
 8002d70:	ea41 010b 	orr.w	r1, r1, fp
 8002d74:	6201      	str	r1, [r0, #32]
 8002d76:	6821      	ldr	r1, [r4, #0]
 8002d78:	005a      	lsls	r2, r3, #1
 8002d7a:	fa06 f002 	lsl.w	r0, r6, r2
 8002d7e:	ea21 0100 	bic.w	r1, r1, r0
 8002d82:	fa0e f202 	lsl.w	r2, lr, r2
 8002d86:	4311      	orrs	r1, r2
 8002d88:	6021      	str	r1, [r4, #0]
 8002d8a:	68a1      	ldr	r1, [r4, #8]
 8002d8c:	ea21 0100 	bic.w	r1, r1, r0
 8002d90:	430a      	orrs	r2, r1
 8002d92:	60a2      	str	r2, [r4, #8]
 8002d94:	6862      	ldr	r2, [r4, #4]
 8002d96:	ea4a 0202 	orr.w	r2, sl, r2
 8002d9a:	6062      	str	r2, [r4, #4]
 8002d9c:	68e2      	ldr	r2, [r4, #12]
 8002d9e:	ea22 0200 	bic.w	r2, r2, r0
 8002da2:	60e2      	str	r2, [r4, #12]
 8002da4:	3301      	adds	r3, #1
 8002da6:	2b10      	cmp	r3, #16
 8002da8:	d1cd      	bne.n	8002d46 <I2Cx_Init.part.0+0x3a>
 8002daa:	f8df 90d8 	ldr.w	r9, [pc, #216]	; 8002e84 <I2Cx_Init.part.0+0x178>
 8002dae:	4b3a      	ldr	r3, [pc, #232]	; (8002e98 <I2Cx_Init.part.0+0x18c>)
 8002db0:	f8d9 2040 	ldr.w	r2, [r9, #64]	; 0x40
 8002db4:	4939      	ldr	r1, [pc, #228]	; (8002e9c <I2Cx_Init.part.0+0x190>)
 8002db6:	4c35      	ldr	r4, [pc, #212]	; (8002e8c <I2Cx_Init.part.0+0x180>)
 8002db8:	f442 1200 	orr.w	r2, r2, #2097152	; 0x200000
 8002dbc:	f8c9 2040 	str.w	r2, [r9, #64]	; 0x40
 8002dc0:	f8d9 2020 	ldr.w	r2, [r9, #32]
 8002dc4:	f442 1200 	orr.w	r2, r2, #2097152	; 0x200000
 8002dc8:	f8c9 2020 	str.w	r2, [r9, #32]
 8002dcc:	f8d9 2020 	ldr.w	r2, [r9, #32]
 8002dd0:	f422 1200 	bic.w	r2, r2, #2097152	; 0x200000
 8002dd4:	f8c9 2020 	str.w	r2, [r9, #32]
 8002dd8:	2600      	movs	r6, #0
 8002dda:	f04f 4200 	mov.w	r2, #2147483648	; 0x80000000
 8002dde:	68c8      	ldr	r0, [r1, #12]
 8002de0:	f883 631f 	strb.w	r6, [r3, #799]	; 0x31f
 8002de4:	f04f 0801 	mov.w	r8, #1
 8002de8:	601a      	str	r2, [r3, #0]
 8002dea:	68ca      	ldr	r2, [r1, #12]
 8002dec:	f883 6320 	strb.w	r6, [r3, #800]	; 0x320
 8002df0:	f8c3 8004 	str.w	r8, [r3, #4]
 8002df4:	2302      	movs	r3, #2
 8002df6:	f895 2035 	ldrb.w	r2, [r5, #53]	; 0x35
 8002dfa:	f885 3035 	strb.w	r3, [r5, #53]	; 0x35
 8002dfe:	6823      	ldr	r3, [r4, #0]
 8002e00:	f023 0301 	bic.w	r3, r3, #1
 8002e04:	6023      	str	r3, [r4, #0]
 8002e06:	f7ff fd29 	bl	800285c <HAL_RCC_GetHCLKFreq>
 8002e0a:	f8d9 2008 	ldr.w	r2, [r9, #8]
 8002e0e:	f44f 53e0 	mov.w	r3, #7168	; 0x1c00
 8002e12:	fa93 f3a3 	rbit	r3, r3
 8002e16:	fab3 f383 	clz	r3, r3
 8002e1a:	f402 52e0 	and.w	r2, r2, #7168	; 0x1c00
 8002e1e:	b2db      	uxtb	r3, r3
 8002e20:	fa22 f303 	lsr.w	r3, r2, r3
 8002e24:	4a1e      	ldr	r2, [pc, #120]	; (8002ea0 <I2Cx_Init.part.0+0x194>)
 8002e26:	5cd3      	ldrb	r3, [r2, r3]
 8002e28:	40d8      	lsrs	r0, r3
 8002e2a:	4b1e      	ldr	r3, [pc, #120]	; (8002ea4 <I2Cx_Init.part.0+0x198>)
 8002e2c:	fba3 2300 	umull	r2, r3, r3, r0
 8002e30:	0c9b      	lsrs	r3, r3, #18
 8002e32:	6063      	str	r3, [r4, #4]
 8002e34:	4443      	add	r3, r8
 8002e36:	6223      	str	r3, [r4, #32]
 8002e38:	e9d5 2107 	ldrd	r2, r1, [r5, #28]
 8002e3c:	4b1a      	ldr	r3, [pc, #104]	; (8002ea8 <I2Cx_Init.part.0+0x19c>)
 8002e3e:	0980      	lsrs	r0, r0, #6
 8002e40:	fba3 0300 	umull	r0, r3, r3, r0
 8002e44:	ea42 0001 	orr.w	r0, r2, r1
 8002e48:	e9d5 2105 	ldrd	r2, r1, [r5, #20]
 8002e4c:	430a      	orrs	r2, r1
 8002e4e:	f640 71fc 	movw	r1, #4092	; 0xffc
 8002e52:	ea11 1193 	ands.w	r1, r1, r3, lsr #6
 8002e56:	ea4f 1c93 	mov.w	ip, r3, lsr #6
 8002e5a:	f244 0333 	movw	r3, #16435	; 0x4033
 8002e5e:	bf08      	it	eq
 8002e60:	f04f 0c04 	moveq.w	ip, #4
 8002e64:	f8c4 c01c 	str.w	ip, [r4, #28]
 8002e68:	6020      	str	r0, [r4, #0]
 8002e6a:	60a3      	str	r3, [r4, #8]
 8002e6c:	60e2      	str	r2, [r4, #12]
 8002e6e:	6823      	ldr	r3, [r4, #0]
 8002e70:	ea43 0308 	orr.w	r3, r3, r8
 8002e74:	6023      	str	r3, [r4, #0]
 8002e76:	f885 6036 	strb.w	r6, [r5, #54]	; 0x36
 8002e7a:	f885 8035 	strb.w	r8, [r5, #53]	; 0x35
 8002e7e:	e8bd 8f70 	ldmia.w	sp!, {r4, r5, r6, r8, r9, sl, fp, pc}
 8002e82:	bf00      	nop
 8002e84:	40023800 	.word	0x40023800
 8002e88:	200005b0 	.word	0x200005b0
 8002e8c:	40005400 	.word	0x40005400
 8002e90:	000186a0 	.word	0x000186a0
 8002e94:	40020400 	.word	0x40020400
 8002e98:	e000e100 	.word	0xe000e100
 8002e9c:	e000ed00 	.word	0xe000ed00
 8002ea0:	08008bd8 	.word	0x08008bd8
 8002ea4:	431bde83 	.word	0x431bde83
 8002ea8:	053e2d63 	.word	0x053e2d63

08002eac <AUDIO_IO_Init>:
AUDIO_IO_Init():
 8002eac:	4819      	ldr	r0, [pc, #100]	; (8002f14 <AUDIO_IO_Init+0x68>)
 8002eae:	491a      	ldr	r1, [pc, #104]	; (8002f18 <AUDIO_IO_Init+0x6c>)
 8002eb0:	6b02      	ldr	r2, [r0, #48]	; 0x30
 8002eb2:	b508      	push	{r3, lr}
 8002eb4:	f042 0208 	orr.w	r2, r2, #8
 8002eb8:	4b18      	ldr	r3, [pc, #96]	; (8002f1c <AUDIO_IO_Init+0x70>)
 8002eba:	6302      	str	r2, [r0, #48]	; 0x30
 8002ebc:	681a      	ldr	r2, [r3, #0]
 8002ebe:	f422 7240 	bic.w	r2, r2, #768	; 0x300
 8002ec2:	f442 7280 	orr.w	r2, r2, #256	; 0x100
 8002ec6:	601a      	str	r2, [r3, #0]
 8002ec8:	689a      	ldr	r2, [r3, #8]
 8002eca:	f422 7240 	bic.w	r2, r2, #768	; 0x300
 8002ece:	f442 7200 	orr.w	r2, r2, #512	; 0x200
 8002ed2:	609a      	str	r2, [r3, #8]
 8002ed4:	685a      	ldr	r2, [r3, #4]
 8002ed6:	f022 0210 	bic.w	r2, r2, #16
 8002eda:	605a      	str	r2, [r3, #4]
 8002edc:	68da      	ldr	r2, [r3, #12]
 8002ede:	f422 7240 	bic.w	r2, r2, #768	; 0x300
 8002ee2:	60da      	str	r2, [r3, #12]
 8002ee4:	f891 3035 	ldrb.w	r3, [r1, #53]	; 0x35
 8002ee8:	b18b      	cbz	r3, 8002f0e <AUDIO_IO_Init+0x62>
 8002eea:	4b0c      	ldr	r3, [pc, #48]	; (8002f1c <AUDIO_IO_Init+0x70>)
 8002eec:	4a0c      	ldr	r2, [pc, #48]	; (8002f20 <AUDIO_IO_Init+0x74>)
 8002eee:	2110      	movs	r1, #16
 8002ef0:	8359      	strh	r1, [r3, #26]
 8002ef2:	6811      	ldr	r1, [r2, #0]
 8002ef4:	6813      	ldr	r3, [r2, #0]
 8002ef6:	1a5b      	subs	r3, r3, r1
 8002ef8:	2b05      	cmp	r3, #5
 8002efa:	d3fb      	bcc.n	8002ef4 <AUDIO_IO_Init+0x48>
 8002efc:	4b07      	ldr	r3, [pc, #28]	; (8002f1c <AUDIO_IO_Init+0x70>)
 8002efe:	2110      	movs	r1, #16
 8002f00:	8319      	strh	r1, [r3, #24]
 8002f02:	6811      	ldr	r1, [r2, #0]
 8002f04:	6813      	ldr	r3, [r2, #0]
 8002f06:	1a5b      	subs	r3, r3, r1
 8002f08:	2b05      	cmp	r3, #5
 8002f0a:	d3fb      	bcc.n	8002f04 <AUDIO_IO_Init+0x58>
 8002f0c:	bd08      	pop	{r3, pc}
 8002f0e:	f7ff fefd 	bl	8002d0c <I2Cx_Init.part.0>
 8002f12:	e7ea      	b.n	8002eea <AUDIO_IO_Init+0x3e>
 8002f14:	40023800 	.word	0x40023800
 8002f18:	200005b0 	.word	0x200005b0
 8002f1c:	40020c00 	.word	0x40020c00
 8002f20:	20002f54 	.word	0x20002f54

08002f24 <USBH_LL_OpenPipe.isra.0>:
USBH_LL_OpenPipe.isra.0():
 8002f24:	e92d 4770 	stmdb	sp!, {r4, r5, r6, r8, r9, sl, lr}
 8002f28:	f8d0 4610 	ldr.w	r4, [r0, #1552]	; 0x610
 8002f2c:	f89d 601c 	ldrb.w	r6, [sp, #28]
 8002f30:	f894 5288 	ldrb.w	r5, [r4, #648]	; 0x288
 8002f34:	f89d 8020 	ldrb.w	r8, [sp, #32]
 8002f38:	f8bd 0024 	ldrh.w	r0, [sp, #36]	; 0x24
 8002f3c:	2d01      	cmp	r5, #1
 8002f3e:	d05d      	beq.n	8002ffc <USBH_LL_OpenPipe.isra.0+0xd8>
 8002f40:	f04f 0c00 	mov.w	ip, #0
 8002f44:	f363 0c07 	bfi	ip, r3, #0, #8
 8002f48:	eb01 0581 	add.w	r5, r1, r1, lsl #2
 8002f4c:	f002 0e7f 	and.w	lr, r2, #127	; 0x7f
 8002f50:	f361 2c0f 	bfi	ip, r1, #8, #8
 8002f54:	f36e 4c17 	bfi	ip, lr, #16, #8
 8002f58:	ea4f 19d2 	mov.w	r9, r2, lsr #7
 8002f5c:	eb04 0ec5 	add.w	lr, r4, r5, lsl #3
 8002f60:	f369 6c1f 	bfi	ip, r9, #24, #8
 8002f64:	f8ce c030 	str.w	ip, [lr, #48]	; 0x30
 8002f68:	f88e 8037 	strb.w	r8, [lr, #55]	; 0x37
 8002f6c:	f88e 6034 	strb.w	r6, [lr, #52]	; 0x34
 8002f70:	6825      	ldr	r5, [r4, #0]
 8002f72:	f8ae 0038 	strh.w	r0, [lr, #56]	; 0x38
 8002f76:	f44f 6ca0 	mov.w	ip, #1280	; 0x500
 8002f7a:	eb0c 1c41 	add.w	ip, ip, r1, lsl #5
 8002f7e:	eb0c 0a05 	add.w	sl, ip, r5
 8002f82:	f04f 3eff 	mov.w	lr, #4294967295	; 0xffffffff
 8002f86:	f8ca e008 	str.w	lr, [sl, #8]
 8002f8a:	f240 4e9d 	movw	lr, #1181	; 0x49d
 8002f8e:	f8ca e00c 	str.w	lr, [sl, #12]
 8002f92:	fa4f fe82 	sxtb.w	lr, r2
 8002f96:	f1b9 0f00 	cmp.w	r9, #0
 8002f9a:	d131      	bne.n	8003000 <USBH_LL_OpenPipe.isra.0+0xdc>
 8002f9c:	f1b5 4fa0 	cmp.w	r5, #1342177280	; 0x50000000
 8002fa0:	d005      	beq.n	8002fae <USBH_LL_OpenPipe.isra.0+0x8a>
 8002fa2:	f8da 900c 	ldr.w	r9, [sl, #12]
 8002fa6:	f049 0960 	orr.w	r9, r9, #96	; 0x60
 8002faa:	f8ca 900c 	str.w	r9, [sl, #12]
 8002fae:	f1a6 0602 	sub.w	r6, r6, #2
 8002fb2:	f3c0 000a 	ubfx	r0, r0, #0, #11
 8002fb6:	fab6 f686 	clz	r6, r6
 8002fba:	0976      	lsrs	r6, r6, #5
 8002fbc:	ea40 4088 	orr.w	r0, r0, r8, lsl #18
 8002fc0:	059b      	lsls	r3, r3, #22
 8002fc2:	ea40 4046 	orr.w	r0, r0, r6, lsl #17
 8002fc6:	f003 53fe 	and.w	r3, r3, #532676608	; 0x1fc00000
 8002fca:	4303      	orrs	r3, r0
 8002fcc:	f40e 4e00 	and.w	lr, lr, #32768	; 0x8000
 8002fd0:	02d2      	lsls	r2, r2, #11
 8002fd2:	ea43 030e 	orr.w	r3, r3, lr
 8002fd6:	f402 42f0 	and.w	r2, r2, #30720	; 0x7800
 8002fda:	f8d5 6418 	ldr.w	r6, [r5, #1048]	; 0x418
 8002fde:	431a      	orrs	r2, r3
 8002fe0:	2301      	movs	r3, #1
 8002fe2:	408b      	lsls	r3, r1
 8002fe4:	4333      	orrs	r3, r6
 8002fe6:	f8c5 3418 	str.w	r3, [r5, #1048]	; 0x418
 8002fea:	69ab      	ldr	r3, [r5, #24]
 8002fec:	2000      	movs	r0, #0
 8002fee:	f043 7300 	orr.w	r3, r3, #33554432	; 0x2000000
 8002ff2:	61ab      	str	r3, [r5, #24]
 8002ff4:	f845 200c 	str.w	r2, [r5, ip]
 8002ff8:	f884 0288 	strb.w	r0, [r4, #648]	; 0x288
 8002ffc:	e8bd 8770 	ldmia.w	sp!, {r4, r5, r6, r8, r9, sl, pc}
 8003000:	f8da 900c 	ldr.w	r9, [sl, #12]
 8003004:	f449 7980 	orr.w	r9, r9, #256	; 0x100
 8003008:	f8ca 900c 	str.w	r9, [sl, #12]
 800300c:	e7cf      	b.n	8002fae <USBH_LL_OpenPipe.isra.0+0x8a>
 800300e:	bf00      	nop

08003010 <USBH_UserProcess_callback>:
USBH_UserProcess_callback():
 8003010:	2904      	cmp	r1, #4
 8003012:	d007      	beq.n	8003024 <USBH_UserProcess_callback+0x14>
 8003014:	2905      	cmp	r1, #5
 8003016:	b410      	push	{r4}
 8003018:	d018      	beq.n	800304c <USBH_UserProcess_callback+0x3c>
 800301a:	2902      	cmp	r1, #2
 800301c:	d00a      	beq.n	8003034 <USBH_UserProcess_callback+0x24>
 800301e:	f85d 4b04 	ldr.w	r4, [sp], #4
 8003022:	4770      	bx	lr
 8003024:	4910      	ldr	r1, [pc, #64]	; (8003068 <USBH_UserProcess_callback+0x58>)
 8003026:	4b11      	ldr	r3, [pc, #68]	; (800306c <USBH_UserProcess_callback+0x5c>)
 8003028:	2001      	movs	r0, #1
 800302a:	f44f 4200 	mov.w	r2, #32768	; 0x8000
 800302e:	7008      	strb	r0, [r1, #0]
 8003030:	831a      	strh	r2, [r3, #24]
 8003032:	4770      	bx	lr
 8003034:	4c0c      	ldr	r4, [pc, #48]	; (8003068 <USBH_UserProcess_callback+0x58>)
 8003036:	4b0d      	ldr	r3, [pc, #52]	; (800306c <USBH_UserProcess_callback+0x5c>)
 8003038:	7021      	strb	r1, [r4, #0]
 800303a:	f44f 5080 	mov.w	r0, #4096	; 0x1000
 800303e:	f44f 4200 	mov.w	r2, #32768	; 0x8000
 8003042:	8318      	strh	r0, [r3, #24]
 8003044:	f85d 4b04 	ldr.w	r4, [sp], #4
 8003048:	835a      	strh	r2, [r3, #26]
 800304a:	4770      	bx	lr
 800304c:	4806      	ldr	r0, [pc, #24]	; (8003068 <USBH_UserProcess_callback+0x58>)
 800304e:	4b07      	ldr	r3, [pc, #28]	; (800306c <USBH_UserProcess_callback+0x5c>)
 8003050:	2404      	movs	r4, #4
 8003052:	7004      	strb	r4, [r0, #0]
 8003054:	f44f 5180 	mov.w	r1, #4096	; 0x1000
 8003058:	f44f 4200 	mov.w	r2, #32768	; 0x8000
 800305c:	8359      	strh	r1, [r3, #26]
 800305e:	f85d 4b04 	ldr.w	r4, [sp], #4
 8003062:	835a      	strh	r2, [r3, #26]
 8003064:	4770      	bx	lr
 8003066:	bf00      	nop
 8003068:	200005ac 	.word	0x200005ac
 800306c:	40020c00 	.word	0x40020c00

08003070 <HAL_InitTick.constprop.0.isra.0>:
HAL_InitTick.constprop.0.isra.0():
 8003070:	b510      	push	{r4, lr}
 8003072:	f7ff fbf3 	bl	800285c <HAL_RCC_GetHCLKFreq>
 8003076:	4b0d      	ldr	r3, [pc, #52]	; (80030ac <HAL_InitTick.constprop.0.isra.0+0x3c>)
 8003078:	fba3 2300 	umull	r2, r3, r3, r0
 800307c:	099b      	lsrs	r3, r3, #6
 800307e:	3b01      	subs	r3, #1
 8003080:	f1b3 7f80 	cmp.w	r3, #16777216	; 0x1000000
 8003084:	d20b      	bcs.n	800309e <HAL_InitTick.constprop.0.isra.0+0x2e>
 8003086:	f04f 22e0 	mov.w	r2, #3758153728	; 0xe000e000
 800308a:	4c09      	ldr	r4, [pc, #36]	; (80030b0 <HAL_InitTick.constprop.0.isra.0+0x40>)
 800308c:	6153      	str	r3, [r2, #20]
 800308e:	f04f 0cf0 	mov.w	ip, #240	; 0xf0
 8003092:	2000      	movs	r0, #0
 8003094:	2107      	movs	r1, #7
 8003096:	f884 c023 	strb.w	ip, [r4, #35]	; 0x23
 800309a:	6190      	str	r0, [r2, #24]
 800309c:	6111      	str	r1, [r2, #16]
 800309e:	e8bd 4010 	ldmia.w	sp!, {r4, lr}
 80030a2:	210f      	movs	r1, #15
 80030a4:	f04f 30ff 	mov.w	r0, #4294967295	; 0xffffffff
 80030a8:	f7ff be02 	b.w	8002cb0 <HAL_NVIC_SetPriority.constprop.0>
 80030ac:	10624dd3 	.word	0x10624dd3
 80030b0:	e000ed00 	.word	0xe000ed00

080030b4 <USB_CoreReset.isra.0>:
USB_CoreReset.isra.0():
 80030b4:	4b09      	ldr	r3, [pc, #36]	; (80030dc <USB_CoreReset.isra.0+0x28>)
 80030b6:	e001      	b.n	80030bc <USB_CoreReset.isra.0+0x8>
 80030b8:	3b01      	subs	r3, #1
 80030ba:	d00d      	beq.n	80030d8 <USB_CoreReset.isra.0+0x24>
 80030bc:	6902      	ldr	r2, [r0, #16]
 80030be:	2a00      	cmp	r2, #0
 80030c0:	dafa      	bge.n	80030b8 <USB_CoreReset.isra.0+0x4>
 80030c2:	6902      	ldr	r2, [r0, #16]
 80030c4:	4b05      	ldr	r3, [pc, #20]	; (80030dc <USB_CoreReset.isra.0+0x28>)
 80030c6:	f042 0201 	orr.w	r2, r2, #1
 80030ca:	6102      	str	r2, [r0, #16]
 80030cc:	e001      	b.n	80030d2 <USB_CoreReset.isra.0+0x1e>
 80030ce:	3b01      	subs	r3, #1
 80030d0:	d002      	beq.n	80030d8 <USB_CoreReset.isra.0+0x24>
 80030d2:	6902      	ldr	r2, [r0, #16]
 80030d4:	07d2      	lsls	r2, r2, #31
 80030d6:	d4fa      	bmi.n	80030ce <USB_CoreReset.isra.0+0x1a>
 80030d8:	4770      	bx	lr
 80030da:	bf00      	nop
 80030dc:	00030d40 	.word	0x00030d40

080030e0 <USBH_MIDI_InterfaceInit>:
USBH_MIDI_InterfaceInit():
 80030e0:	e92d 4f70 	stmdb	sp!, {r4, r5, r6, r8, r9, sl, fp, lr}
 80030e4:	f890 3241 	ldrb.w	r3, [r0, #577]	; 0x241
 80030e8:	2b01      	cmp	r3, #1
 80030ea:	b086      	sub	sp, #24
 80030ec:	4604      	mov	r4, r0
 80030ee:	f000 81e1 	beq.w	80034b4 <USBH_MIDI_InterfaceInit+0x3d4>
 80030f2:	f894 329b 	ldrb.w	r3, [r4, #667]	; 0x29b
 80030f6:	2b01      	cmp	r3, #1
 80030f8:	f000 81eb 	beq.w	80034d2 <USBH_MIDI_InterfaceInit+0x3f2>
 80030fc:	f894 32f5 	ldrb.w	r3, [r4, #757]	; 0x2f5
 8003100:	2b01      	cmp	r3, #1
 8003102:	f000 81f0 	beq.w	80034e6 <USBH_MIDI_InterfaceInit+0x406>
 8003106:	f894 334f 	ldrb.w	r3, [r4, #847]	; 0x34f
 800310a:	2b01      	cmp	r3, #1
 800310c:	d021      	beq.n	8003152 <USBH_MIDI_InterfaceInit+0x72>
 800310e:	f894 33a9 	ldrb.w	r3, [r4, #937]	; 0x3a9
 8003112:	2b01      	cmp	r3, #1
 8003114:	f000 81c7 	beq.w	80034a6 <USBH_MIDI_InterfaceInit+0x3c6>
 8003118:	f894 3403 	ldrb.w	r3, [r4, #1027]	; 0x403
 800311c:	2b01      	cmp	r3, #1
 800311e:	f000 8200 	beq.w	8003522 <USBH_MIDI_InterfaceInit+0x442>
 8003122:	f894 345d 	ldrb.w	r3, [r4, #1117]	; 0x45d
 8003126:	2b01      	cmp	r3, #1
 8003128:	f000 8202 	beq.w	8003530 <USBH_MIDI_InterfaceInit+0x450>
 800312c:	f894 34b7 	ldrb.w	r3, [r4, #1207]	; 0x4b7
 8003130:	2b01      	cmp	r3, #1
 8003132:	f000 820a 	beq.w	800354a <USBH_MIDI_InterfaceInit+0x46a>
 8003136:	f894 3511 	ldrb.w	r3, [r4, #1297]	; 0x511
 800313a:	2b01      	cmp	r3, #1
 800313c:	f000 820c 	beq.w	8003558 <USBH_MIDI_InterfaceInit+0x478>
 8003140:	f894 356b 	ldrb.w	r3, [r4, #1387]	; 0x56b
 8003144:	2b01      	cmp	r3, #1
 8003146:	f000 820e 	beq.w	8003566 <USBH_MIDI_InterfaceInit+0x486>
 800314a:	2002      	movs	r0, #2
 800314c:	b006      	add	sp, #24
 800314e:	e8bd 8f70 	ldmia.w	sp!, {r4, r5, r6, r8, r9, sl, fp, pc}
 8003152:	f894 3350 	ldrb.w	r3, [r4, #848]	; 0x350
 8003156:	2b03      	cmp	r3, #3
 8003158:	d1d9      	bne.n	800310e <USBH_MIDI_InterfaceInit+0x2e>
 800315a:	f894 2236 	ldrb.w	r2, [r4, #566]	; 0x236
 800315e:	429a      	cmp	r2, r3
 8003160:	b2d9      	uxtb	r1, r3
 8003162:	d901      	bls.n	8003168 <USBH_MIDI_InterfaceInit+0x88>
 8003164:	f884 121f 	strb.w	r1, [r4, #543]	; 0x21f
 8003168:	201c      	movs	r0, #28
 800316a:	f8d4 55c4 	ldr.w	r5, [r4, #1476]	; 0x5c4
 800316e:	f005 fcff 	bl	8008b70 <malloc>
 8003172:	4603      	mov	r3, r0
 8003174:	61e8      	str	r0, [r5, #28]
 8003176:	2800      	cmp	r0, #0
 8003178:	d0e7      	beq.n	800314a <USBH_MIDI_InterfaceInit+0x6a>
 800317a:	f894 121f 	ldrb.w	r1, [r4, #543]	; 0x21f
 800317e:	205a      	movs	r0, #90	; 0x5a
 8003180:	fb00 4001 	mla	r0, r0, r1, r4
 8003184:	2200      	movs	r2, #0
 8003186:	e9c3 2200 	strd	r2, r2, [r3]
 800318a:	e9c3 2202 	strd	r2, r2, [r3, #8]
 800318e:	e9c3 2204 	strd	r2, r2, [r3, #16]
 8003192:	619a      	str	r2, [r3, #24]
 8003194:	f990 2248 	ldrsb.w	r2, [r0, #584]	; 0x248
 8003198:	f890 5248 	ldrb.w	r5, [r0, #584]	; 0x248
 800319c:	2a00      	cmp	r2, #0
 800319e:	f8b0 224a 	ldrh.w	r2, [r0, #586]	; 0x24a
 80031a2:	bfb4      	ite	lt
 80031a4:	811a      	strhlt	r2, [r3, #8]
 80031a6:	80da      	strhge	r2, [r3, #6]
 80031a8:	f04f 025a 	mov.w	r2, #90	; 0x5a
 80031ac:	fb02 4101 	mla	r1, r2, r1, r4
 80031b0:	bfb8      	it	lt
 80031b2:	711d      	strblt	r5, [r3, #4]
 80031b4:	f991 0250 	ldrsb.w	r0, [r1, #592]	; 0x250
 80031b8:	bfa8      	it	ge
 80031ba:	70dd      	strbge	r5, [r3, #3]
 80031bc:	2800      	cmp	r0, #0
 80031be:	f891 2250 	ldrb.w	r2, [r1, #592]	; 0x250
 80031c2:	f2c0 8197 	blt.w	80034f4 <USBH_MIDI_InterfaceInit+0x414>
 80031c6:	f8b1 9252 	ldrh.w	r9, [r1, #594]	; 0x252
 80031ca:	7919      	ldrb	r1, [r3, #4]
 80031cc:	9100      	str	r1, [sp, #0]
 80031ce:	70da      	strb	r2, [r3, #3]
 80031d0:	f8a3 9006 	strh.w	r9, [r3, #6]
 80031d4:	f8d4 15cc 	ldr.w	r1, [r4, #1484]	; 0x5cc
 80031d8:	f411 4000 	ands.w	r0, r1, #32768	; 0x8000
 80031dc:	f000 81d4 	beq.w	8003588 <USBH_MIDI_InterfaceInit+0x4a8>
 80031e0:	f8d4 05d0 	ldr.w	r0, [r4, #1488]	; 0x5d0
 80031e4:	0405      	lsls	r5, r0, #16
 80031e6:	f140 81da 	bpl.w	800359e <USBH_MIDI_InterfaceInit+0x4be>
 80031ea:	f8d4 05d4 	ldr.w	r0, [r4, #1492]	; 0x5d4
 80031ee:	0400      	lsls	r0, r0, #16
 80031f0:	f140 81dd 	bpl.w	80035ae <USBH_MIDI_InterfaceInit+0x4ce>
 80031f4:	f8d4 05d8 	ldr.w	r0, [r4, #1496]	; 0x5d8
 80031f8:	0406      	lsls	r6, r0, #16
 80031fa:	f140 81e0 	bpl.w	80035be <USBH_MIDI_InterfaceInit+0x4de>
 80031fe:	f8d4 05dc 	ldr.w	r0, [r4, #1500]	; 0x5dc
 8003202:	0405      	lsls	r5, r0, #16
 8003204:	f140 81e6 	bpl.w	80035d4 <USBH_MIDI_InterfaceInit+0x4f4>
 8003208:	f8d4 05e0 	ldr.w	r0, [r4, #1504]	; 0x5e0
 800320c:	0400      	lsls	r0, r0, #16
 800320e:	f140 81e6 	bpl.w	80035de <USBH_MIDI_InterfaceInit+0x4fe>
 8003212:	f8d4 05e4 	ldr.w	r0, [r4, #1508]	; 0x5e4
 8003216:	0406      	lsls	r6, r0, #16
 8003218:	f140 81e9 	bpl.w	80035ee <USBH_MIDI_InterfaceInit+0x50e>
 800321c:	f8d4 05e8 	ldr.w	r0, [r4, #1512]	; 0x5e8
 8003220:	0405      	lsls	r5, r0, #16
 8003222:	f140 81ec 	bpl.w	80035fe <USBH_MIDI_InterfaceInit+0x51e>
 8003226:	f8d4 05ec 	ldr.w	r0, [r4, #1516]	; 0x5ec
 800322a:	0400      	lsls	r0, r0, #16
 800322c:	f140 81f2 	bpl.w	8003614 <USBH_MIDI_InterfaceInit+0x534>
 8003230:	f8d4 05f0 	ldr.w	r0, [r4, #1520]	; 0x5f0
 8003234:	0406      	lsls	r6, r0, #16
 8003236:	f140 81f2 	bpl.w	800361e <USBH_MIDI_InterfaceInit+0x53e>
 800323a:	f8d4 05f4 	ldr.w	r0, [r4, #1524]	; 0x5f4
 800323e:	0405      	lsls	r5, r0, #16
 8003240:	f140 81f5 	bpl.w	800362e <USBH_MIDI_InterfaceInit+0x54e>
 8003244:	20ff      	movs	r0, #255	; 0xff
 8003246:	9001      	str	r0, [sp, #4]
 8003248:	4686      	mov	lr, r0
 800324a:	f411 4100 	ands.w	r1, r1, #32768	; 0x8000
 800324e:	f883 e002 	strb.w	lr, [r3, #2]
 8003252:	f000 8190 	beq.w	8003576 <USBH_MIDI_InterfaceInit+0x496>
 8003256:	f8d4 15d0 	ldr.w	r1, [r4, #1488]	; 0x5d0
 800325a:	0408      	lsls	r0, r1, #16
 800325c:	f140 81a4 	bpl.w	80035a8 <USBH_MIDI_InterfaceInit+0x4c8>
 8003260:	f8d4 15d4 	ldr.w	r1, [r4, #1492]	; 0x5d4
 8003264:	0409      	lsls	r1, r1, #16
 8003266:	f140 81a7 	bpl.w	80035b8 <USBH_MIDI_InterfaceInit+0x4d8>
 800326a:	f8d4 15d8 	ldr.w	r1, [r4, #1496]	; 0x5d8
 800326e:	040e      	lsls	r6, r1, #16
 8003270:	f140 81aa 	bpl.w	80035c8 <USBH_MIDI_InterfaceInit+0x4e8>
 8003274:	f8d4 15dc 	ldr.w	r1, [r4, #1500]	; 0x5dc
 8003278:	040d      	lsls	r5, r1, #16
 800327a:	f140 81a8 	bpl.w	80035ce <USBH_MIDI_InterfaceInit+0x4ee>
 800327e:	f8d4 15e0 	ldr.w	r1, [r4, #1504]	; 0x5e0
 8003282:	0408      	lsls	r0, r1, #16
 8003284:	f140 81b0 	bpl.w	80035e8 <USBH_MIDI_InterfaceInit+0x508>
 8003288:	f8d4 15e4 	ldr.w	r1, [r4, #1508]	; 0x5e4
 800328c:	0409      	lsls	r1, r1, #16
 800328e:	f140 81b3 	bpl.w	80035f8 <USBH_MIDI_InterfaceInit+0x518>
 8003292:	f8d4 15e8 	ldr.w	r1, [r4, #1512]	; 0x5e8
 8003296:	040e      	lsls	r6, r1, #16
 8003298:	f140 81b6 	bpl.w	8003608 <USBH_MIDI_InterfaceInit+0x528>
 800329c:	f8d4 15ec 	ldr.w	r1, [r4, #1516]	; 0x5ec
 80032a0:	040d      	lsls	r5, r1, #16
 80032a2:	f140 81b4 	bpl.w	800360e <USBH_MIDI_InterfaceInit+0x52e>
 80032a6:	f8d4 15f0 	ldr.w	r1, [r4, #1520]	; 0x5f0
 80032aa:	0408      	lsls	r0, r1, #16
 80032ac:	f140 8162 	bpl.w	8003574 <USBH_MIDI_InterfaceInit+0x494>
 80032b0:	f8d4 15f4 	ldr.w	r1, [r4, #1524]	; 0x5f4
 80032b4:	0409      	lsls	r1, r1, #16
 80032b6:	f140 81b7 	bpl.w	8003628 <USBH_MIDI_InterfaceInit+0x548>
 80032ba:	f04f 08ff 	mov.w	r8, #255	; 0xff
 80032be:	4641      	mov	r1, r8
 80032c0:	f8d4 5610 	ldr.w	r5, [r4, #1552]	; 0x610
 80032c4:	7059      	strb	r1, [r3, #1]
 80032c6:	f895 0288 	ldrb.w	r0, [r5, #648]	; 0x288
 80032ca:	2801      	cmp	r0, #1
 80032cc:	f000 8137 	beq.w	800353e <USBH_MIDI_InterfaceInit+0x45e>
 80032d0:	f894 021c 	ldrb.w	r0, [r4, #540]	; 0x21c
 80032d4:	9002      	str	r0, [sp, #8]
 80032d6:	f894 021d 	ldrb.w	r0, [r4, #541]	; 0x21d
 80032da:	9c02      	ldr	r4, [sp, #8]
 80032dc:	9003      	str	r0, [sp, #12]
 80032de:	4606      	mov	r6, r0
 80032e0:	2000      	movs	r0, #0
 80032e2:	f364 0007 	bfi	r0, r4, #0, #8
 80032e6:	9c01      	ldr	r4, [sp, #4]
 80032e8:	f36e 200f 	bfi	r0, lr, #8, #8
 80032ec:	eb04 0c84 	add.w	ip, r4, r4, lsl #2
 80032f0:	f002 047f 	and.w	r4, r2, #127	; 0x7f
 80032f4:	f364 4017 	bfi	r0, r4, #16, #8
 80032f8:	ea4f 1ad2 	mov.w	sl, r2, lsr #7
 80032fc:	eb05 04cc 	add.w	r4, r5, ip, lsl #3
 8003300:	f36a 601f 	bfi	r0, sl, #24, #8
 8003304:	f04f 0b02 	mov.w	fp, #2
 8003308:	f884 b037 	strb.w	fp, [r4, #55]	; 0x37
 800330c:	6320      	str	r0, [r4, #48]	; 0x30
 800330e:	f884 6034 	strb.w	r6, [r4, #52]	; 0x34
 8003312:	f8a4 9038 	strh.w	r9, [r4, #56]	; 0x38
 8003316:	682c      	ldr	r4, [r5, #0]
 8003318:	9e01      	ldr	r6, [sp, #4]
 800331a:	f504 6ca0 	add.w	ip, r4, #1280	; 0x500
 800331e:	eb0c 104e 	add.w	r0, ip, lr, lsl #5
 8003322:	f04f 3bff 	mov.w	fp, #4294967295	; 0xffffffff
 8003326:	f240 4e9d 	movw	lr, #1181	; 0x49d
 800332a:	00b6      	lsls	r6, r6, #2
 800332c:	f8c0 b008 	str.w	fp, [r0, #8]
 8003330:	9604      	str	r6, [sp, #16]
 8003332:	f8c0 e00c 	str.w	lr, [r0, #12]
 8003336:	fa4f fe82 	sxtb.w	lr, r2
 800333a:	f1ba 0f00 	cmp.w	sl, #0
 800333e:	f040 80e9 	bne.w	8003514 <USBH_MIDI_InterfaceInit+0x434>
 8003342:	f1b4 4fa0 	cmp.w	r4, #1342177280	; 0x50000000
 8003346:	d005      	beq.n	8003354 <USBH_MIDI_InterfaceInit+0x274>
 8003348:	f8d0 a00c 	ldr.w	sl, [r0, #12]
 800334c:	f04a 0a60 	orr.w	sl, sl, #96	; 0x60
 8003350:	f8c0 a00c 	str.w	sl, [r0, #12]
 8003354:	9e01      	ldr	r6, [sp, #4]
 8003356:	f8d4 b418 	ldr.w	fp, [r4, #1048]	; 0x418
 800335a:	f40e 4a00 	and.w	sl, lr, #32768	; 0x8000
 800335e:	eb0c 1e41 	add.w	lr, ip, r1, lsl #5
 8003362:	f04f 0c01 	mov.w	ip, #1
 8003366:	fa0c fc06 	lsl.w	ip, ip, r6
 800336a:	9e03      	ldr	r6, [sp, #12]
 800336c:	ea4c 0c0b 	orr.w	ip, ip, fp
 8003370:	f8c4 c418 	str.w	ip, [r4, #1048]	; 0x418
 8003374:	f1a6 0c02 	sub.w	ip, r6, #2
 8003378:	02d2      	lsls	r2, r2, #11
 800337a:	fabc fc8c 	clz	ip, ip
 800337e:	9e02      	ldr	r6, [sp, #8]
 8003380:	ea4f 1c5c 	mov.w	ip, ip, lsr #5
 8003384:	f402 42f0 	and.w	r2, r2, #30720	; 0x7800
 8003388:	ea42 424c 	orr.w	r2, r2, ip, lsl #17
 800338c:	ea4f 4c4c 	mov.w	ip, ip, lsl #17
 8003390:	f8cd c014 	str.w	ip, [sp, #20]
 8003394:	ea4f 5c86 	mov.w	ip, r6, lsl #22
 8003398:	f00c 5bfe 	and.w	fp, ip, #532676608	; 0x1fc00000
 800339c:	f04f 0c00 	mov.w	ip, #0
 80033a0:	f3c9 090a 	ubfx	r9, r9, #0, #11
 80033a4:	f366 0c07 	bfi	ip, r6, #0, #8
 80033a8:	ea42 020b 	orr.w	r2, r2, fp
 80033ac:	ea42 0209 	orr.w	r2, r2, r9
 80033b0:	f361 2c0f 	bfi	ip, r1, #8, #8
 80033b4:	69a1      	ldr	r1, [r4, #24]
 80033b6:	9e00      	ldr	r6, [sp, #0]
 80033b8:	ea42 020a 	orr.w	r2, r2, sl
 80033bc:	f442 2200 	orr.w	r2, r2, #524288	; 0x80000
 80033c0:	f041 7100 	orr.w	r1, r1, #33554432	; 0x2000000
 80033c4:	61a1      	str	r1, [r4, #24]
 80033c6:	6002      	str	r2, [r0, #0]
 80033c8:	f006 017f 	and.w	r1, r6, #127	; 0x7f
 80033cc:	eb08 0288 	add.w	r2, r8, r8, lsl #2
 80033d0:	eb05 00c2 	add.w	r0, r5, r2, lsl #3
 80033d4:	f361 4c17 	bfi	ip, r1, #16, #8
 80033d8:	ea4f 19d6 	mov.w	r9, r6, lsr #7
 80033dc:	8919      	ldrh	r1, [r3, #8]
 80033de:	9e03      	ldr	r6, [sp, #12]
 80033e0:	8701      	strh	r1, [r0, #56]	; 0x38
 80033e2:	f369 6c1f 	bfi	ip, r9, #24, #8
 80033e6:	f04f 0a02 	mov.w	sl, #2
 80033ea:	f04f 32ff 	mov.w	r2, #4294967295	; 0xffffffff
 80033ee:	f8c0 c030 	str.w	ip, [r0, #48]	; 0x30
 80033f2:	f880 a037 	strb.w	sl, [r0, #55]	; 0x37
 80033f6:	f880 6034 	strb.w	r6, [r0, #52]	; 0x34
 80033fa:	f8ce 2008 	str.w	r2, [lr, #8]
 80033fe:	f240 429d 	movw	r2, #1181	; 0x49d
 8003402:	f8ce 200c 	str.w	r2, [lr, #12]
 8003406:	f99d 0000 	ldrsb.w	r0, [sp]
 800340a:	f504 6c80 	add.w	ip, r4, #1024	; 0x400
 800340e:	fa08 f20a 	lsl.w	r2, r8, sl
 8003412:	f1b9 0f00 	cmp.w	r9, #0
 8003416:	d176      	bne.n	8003506 <USBH_MIDI_InterfaceInit+0x426>
 8003418:	f1b4 4fa0 	cmp.w	r4, #1342177280	; 0x50000000
 800341c:	d005      	beq.n	800342a <USBH_MIDI_InterfaceInit+0x34a>
 800341e:	f8de 900c 	ldr.w	r9, [lr, #12]
 8003422:	f049 0960 	orr.w	r9, r9, #96	; 0x60
 8003426:	f8ce 900c 	str.w	r9, [lr, #12]
 800342a:	9e00      	ldr	r6, [sp, #0]
 800342c:	ea4f 29c6 	mov.w	r9, r6, lsl #11
 8003430:	9e05      	ldr	r6, [sp, #20]
 8003432:	f409 49f0 	and.w	r9, r9, #30720	; 0x7800
 8003436:	ea49 0906 	orr.w	r9, r9, r6
 800343a:	ea49 090b 	orr.w	r9, r9, fp
 800343e:	f3c1 010a 	ubfx	r1, r1, #0, #11
 8003442:	ea49 0101 	orr.w	r1, r9, r1
 8003446:	f400 4000 	and.w	r0, r0, #32768	; 0x8000
 800344a:	f8dc 9018 	ldr.w	r9, [ip, #24]
 800344e:	4301      	orrs	r1, r0
 8003450:	2001      	movs	r0, #1
 8003452:	fa00 f008 	lsl.w	r0, r0, r8
 8003456:	ea40 0009 	orr.w	r0, r0, r9
 800345a:	f8cc 0018 	str.w	r0, [ip, #24]
 800345e:	69a0      	ldr	r0, [r4, #24]
 8003460:	f441 2100 	orr.w	r1, r1, #524288	; 0x80000
 8003464:	f040 7000 	orr.w	r0, r0, #33554432	; 0x2000000
 8003468:	61a0      	str	r0, [r4, #24]
 800346a:	f8ce 1000 	str.w	r1, [lr]
 800346e:	2100      	movs	r1, #0
 8003470:	f885 1288 	strb.w	r1, [r5, #648]	; 0x288
 8003474:	4970      	ldr	r1, [pc, #448]	; (8003638 <USBH_MIDI_InterfaceInit+0x558>)
 8003476:	4442      	add	r2, r8
 8003478:	eb01 02c2 	add.w	r2, r1, r2, lsl #3
 800347c:	2000      	movs	r0, #0
 800347e:	7018      	strb	r0, [r3, #0]
 8003480:	f892 3033 	ldrb.w	r3, [r2, #51]	; 0x33
 8003484:	b313      	cbz	r3, 80034cc <USBH_MIDI_InterfaceInit+0x3ec>
 8003486:	f882 0048 	strb.w	r0, [r2, #72]	; 0x48
 800348a:	9b04      	ldr	r3, [sp, #16]
 800348c:	9a01      	ldr	r2, [sp, #4]
 800348e:	4413      	add	r3, r2
 8003490:	eb01 01c3 	add.w	r1, r1, r3, lsl #3
 8003494:	f891 0033 	ldrb.w	r0, [r1, #51]	; 0x33
 8003498:	b198      	cbz	r0, 80034c2 <USBH_MIDI_InterfaceInit+0x3e2>
 800349a:	2000      	movs	r0, #0
 800349c:	f881 0048 	strb.w	r0, [r1, #72]	; 0x48
 80034a0:	b006      	add	sp, #24
 80034a2:	e8bd 8f70 	ldmia.w	sp!, {r4, r5, r6, r8, r9, sl, fp, pc}
 80034a6:	f894 33aa 	ldrb.w	r3, [r4, #938]	; 0x3aa
 80034aa:	2b03      	cmp	r3, #3
 80034ac:	f47f ae34 	bne.w	8003118 <USBH_MIDI_InterfaceInit+0x38>
 80034b0:	2304      	movs	r3, #4
 80034b2:	e652      	b.n	800315a <USBH_MIDI_InterfaceInit+0x7a>
 80034b4:	f890 3242 	ldrb.w	r3, [r0, #578]	; 0x242
 80034b8:	2b03      	cmp	r3, #3
 80034ba:	f47f ae1a 	bne.w	80030f2 <USBH_MIDI_InterfaceInit+0x12>
 80034be:	2300      	movs	r3, #0
 80034c0:	e64b      	b.n	800315a <USBH_MIDI_InterfaceInit+0x7a>
 80034c2:	f881 0049 	strb.w	r0, [r1, #73]	; 0x49
 80034c6:	b006      	add	sp, #24
 80034c8:	e8bd 8f70 	ldmia.w	sp!, {r4, r5, r6, r8, r9, sl, fp, pc}
 80034cc:	f882 3049 	strb.w	r3, [r2, #73]	; 0x49
 80034d0:	e7db      	b.n	800348a <USBH_MIDI_InterfaceInit+0x3aa>
 80034d2:	f894 229c 	ldrb.w	r2, [r4, #668]	; 0x29c
 80034d6:	2a03      	cmp	r2, #3
 80034d8:	f43f ae3f 	beq.w	800315a <USBH_MIDI_InterfaceInit+0x7a>
 80034dc:	f894 32f5 	ldrb.w	r3, [r4, #757]	; 0x2f5
 80034e0:	2b01      	cmp	r3, #1
 80034e2:	f47f ae10 	bne.w	8003106 <USBH_MIDI_InterfaceInit+0x26>
 80034e6:	f894 32f6 	ldrb.w	r3, [r4, #758]	; 0x2f6
 80034ea:	2b03      	cmp	r3, #3
 80034ec:	f47f ae0b 	bne.w	8003106 <USBH_MIDI_InterfaceInit+0x26>
 80034f0:	2302      	movs	r3, #2
 80034f2:	e632      	b.n	800315a <USBH_MIDI_InterfaceInit+0x7a>
 80034f4:	f8b1 1252 	ldrh.w	r1, [r1, #594]	; 0x252
 80034f8:	711a      	strb	r2, [r3, #4]
 80034fa:	9200      	str	r2, [sp, #0]
 80034fc:	f8b3 9006 	ldrh.w	r9, [r3, #6]
 8003500:	78da      	ldrb	r2, [r3, #3]
 8003502:	8119      	strh	r1, [r3, #8]
 8003504:	e666      	b.n	80031d4 <USBH_MIDI_InterfaceInit+0xf4>
 8003506:	f8de 900c 	ldr.w	r9, [lr, #12]
 800350a:	f449 7980 	orr.w	r9, r9, #256	; 0x100
 800350e:	f8ce 900c 	str.w	r9, [lr, #12]
 8003512:	e78a      	b.n	800342a <USBH_MIDI_InterfaceInit+0x34a>
 8003514:	f8d0 a00c 	ldr.w	sl, [r0, #12]
 8003518:	f44a 7a80 	orr.w	sl, sl, #256	; 0x100
 800351c:	f8c0 a00c 	str.w	sl, [r0, #12]
 8003520:	e718      	b.n	8003354 <USBH_MIDI_InterfaceInit+0x274>
 8003522:	f894 3404 	ldrb.w	r3, [r4, #1028]	; 0x404
 8003526:	2b03      	cmp	r3, #3
 8003528:	f47f adfb 	bne.w	8003122 <USBH_MIDI_InterfaceInit+0x42>
 800352c:	2305      	movs	r3, #5
 800352e:	e614      	b.n	800315a <USBH_MIDI_InterfaceInit+0x7a>
 8003530:	f894 345e 	ldrb.w	r3, [r4, #1118]	; 0x45e
 8003534:	2b03      	cmp	r3, #3
 8003536:	f47f adf9 	bne.w	800312c <USBH_MIDI_InterfaceInit+0x4c>
 800353a:	2306      	movs	r3, #6
 800353c:	e60d      	b.n	800315a <USBH_MIDI_InterfaceInit+0x7a>
 800353e:	9a01      	ldr	r2, [sp, #4]
 8003540:	0092      	lsls	r2, r2, #2
 8003542:	9204      	str	r2, [sp, #16]
 8003544:	ea4f 0288 	mov.w	r2, r8, lsl #2
 8003548:	e794      	b.n	8003474 <USBH_MIDI_InterfaceInit+0x394>
 800354a:	f894 34b8 	ldrb.w	r3, [r4, #1208]	; 0x4b8
 800354e:	2b03      	cmp	r3, #3
 8003550:	f47f adf1 	bne.w	8003136 <USBH_MIDI_InterfaceInit+0x56>
 8003554:	2307      	movs	r3, #7
 8003556:	e600      	b.n	800315a <USBH_MIDI_InterfaceInit+0x7a>
 8003558:	f894 3512 	ldrb.w	r3, [r4, #1298]	; 0x512
 800355c:	2b03      	cmp	r3, #3
 800355e:	f47f adef 	bne.w	8003140 <USBH_MIDI_InterfaceInit+0x60>
 8003562:	2308      	movs	r3, #8
 8003564:	e5f9      	b.n	800315a <USBH_MIDI_InterfaceInit+0x7a>
 8003566:	f894 356c 	ldrb.w	r3, [r4, #1388]	; 0x56c
 800356a:	2b03      	cmp	r3, #3
 800356c:	f47f aded 	bne.w	800314a <USBH_MIDI_InterfaceInit+0x6a>
 8003570:	2309      	movs	r3, #9
 8003572:	e5f2      	b.n	800315a <USBH_MIDI_InterfaceInit+0x7a>
 8003574:	2109      	movs	r1, #9
 8003576:	4688      	mov	r8, r1
 8003578:	9d00      	ldr	r5, [sp, #0]
 800357a:	eb04 0088 	add.w	r0, r4, r8, lsl #2
 800357e:	f445 4500 	orr.w	r5, r5, #32768	; 0x8000
 8003582:	f8c0 55cc 	str.w	r5, [r0, #1484]	; 0x5cc
 8003586:	e69b      	b.n	80032c0 <USBH_MIDI_InterfaceInit+0x1e0>
 8003588:	4686      	mov	lr, r0
 800358a:	9001      	str	r0, [sp, #4]
 800358c:	eb04 018e 	add.w	r1, r4, lr, lsl #2
 8003590:	f442 4000 	orr.w	r0, r2, #32768	; 0x8000
 8003594:	f8c1 05cc 	str.w	r0, [r1, #1484]	; 0x5cc
 8003598:	f8d4 15cc 	ldr.w	r1, [r4, #1484]	; 0x5cc
 800359c:	e655      	b.n	800324a <USBH_MIDI_InterfaceInit+0x16a>
 800359e:	f04f 0e01 	mov.w	lr, #1
 80035a2:	f8cd e004 	str.w	lr, [sp, #4]
 80035a6:	e7f1      	b.n	800358c <USBH_MIDI_InterfaceInit+0x4ac>
 80035a8:	2101      	movs	r1, #1
 80035aa:	4688      	mov	r8, r1
 80035ac:	e7e4      	b.n	8003578 <USBH_MIDI_InterfaceInit+0x498>
 80035ae:	f04f 0e02 	mov.w	lr, #2
 80035b2:	f8cd e004 	str.w	lr, [sp, #4]
 80035b6:	e7e9      	b.n	800358c <USBH_MIDI_InterfaceInit+0x4ac>
 80035b8:	2102      	movs	r1, #2
 80035ba:	4688      	mov	r8, r1
 80035bc:	e7dc      	b.n	8003578 <USBH_MIDI_InterfaceInit+0x498>
 80035be:	f04f 0e03 	mov.w	lr, #3
 80035c2:	f8cd e004 	str.w	lr, [sp, #4]
 80035c6:	e7e1      	b.n	800358c <USBH_MIDI_InterfaceInit+0x4ac>
 80035c8:	2103      	movs	r1, #3
 80035ca:	4688      	mov	r8, r1
 80035cc:	e7d4      	b.n	8003578 <USBH_MIDI_InterfaceInit+0x498>
 80035ce:	2104      	movs	r1, #4
 80035d0:	4688      	mov	r8, r1
 80035d2:	e7d1      	b.n	8003578 <USBH_MIDI_InterfaceInit+0x498>
 80035d4:	f04f 0e04 	mov.w	lr, #4
 80035d8:	f8cd e004 	str.w	lr, [sp, #4]
 80035dc:	e7d6      	b.n	800358c <USBH_MIDI_InterfaceInit+0x4ac>
 80035de:	f04f 0e05 	mov.w	lr, #5
 80035e2:	f8cd e004 	str.w	lr, [sp, #4]
 80035e6:	e7d1      	b.n	800358c <USBH_MIDI_InterfaceInit+0x4ac>
 80035e8:	2105      	movs	r1, #5
 80035ea:	4688      	mov	r8, r1
 80035ec:	e7c4      	b.n	8003578 <USBH_MIDI_InterfaceInit+0x498>
 80035ee:	f04f 0e06 	mov.w	lr, #6
 80035f2:	f8cd e004 	str.w	lr, [sp, #4]
 80035f6:	e7c9      	b.n	800358c <USBH_MIDI_InterfaceInit+0x4ac>
 80035f8:	2106      	movs	r1, #6
 80035fa:	4688      	mov	r8, r1
 80035fc:	e7bc      	b.n	8003578 <USBH_MIDI_InterfaceInit+0x498>
 80035fe:	f04f 0e07 	mov.w	lr, #7
 8003602:	f8cd e004 	str.w	lr, [sp, #4]
 8003606:	e7c1      	b.n	800358c <USBH_MIDI_InterfaceInit+0x4ac>
 8003608:	2107      	movs	r1, #7
 800360a:	4688      	mov	r8, r1
 800360c:	e7b4      	b.n	8003578 <USBH_MIDI_InterfaceInit+0x498>
 800360e:	2108      	movs	r1, #8
 8003610:	4688      	mov	r8, r1
 8003612:	e7b1      	b.n	8003578 <USBH_MIDI_InterfaceInit+0x498>
 8003614:	f04f 0e08 	mov.w	lr, #8
 8003618:	f8cd e004 	str.w	lr, [sp, #4]
 800361c:	e7b6      	b.n	800358c <USBH_MIDI_InterfaceInit+0x4ac>
 800361e:	f04f 0e09 	mov.w	lr, #9
 8003622:	f8cd e004 	str.w	lr, [sp, #4]
 8003626:	e7b1      	b.n	800358c <USBH_MIDI_InterfaceInit+0x4ac>
 8003628:	210a      	movs	r1, #10
 800362a:	4688      	mov	r8, r1
 800362c:	e7a4      	b.n	8003578 <USBH_MIDI_InterfaceInit+0x498>
 800362e:	f04f 0e0a 	mov.w	lr, #10
 8003632:	f8cd e004 	str.w	lr, [sp, #4]
 8003636:	e7a9      	b.n	800358c <USBH_MIDI_InterfaceInit+0x4ac>
 8003638:	20001634 	.word	0x20001634

0800363c <cs43l22_ReadID>:
cs43l22_ReadID():
 800363c:	b570      	push	{r4, r5, r6, lr}
 800363e:	4605      	mov	r5, r0
 8003640:	f7ff fc34 	bl	8002eac <AUDIO_IO_Init>
 8003644:	4a6b      	ldr	r2, [pc, #428]	; (80037f4 <cs43l22_ReadID+0x1b8>)
 8003646:	f892 3035 	ldrb.w	r3, [r2, #53]	; 0x35
 800364a:	2b01      	cmp	r3, #1
 800364c:	d151      	bne.n	80036f2 <cs43l22_ReadID+0xb6>
 800364e:	b2d9      	uxtb	r1, r3
 8003650:	6813      	ldr	r3, [r2, #0]
 8003652:	699c      	ldr	r4, [r3, #24]
 8003654:	f014 0402 	ands.w	r4, r4, #2
 8003658:	d14e      	bne.n	80036f8 <cs43l22_ReadID+0xbc>
 800365a:	f892 0034 	ldrb.w	r0, [r2, #52]	; 0x34
 800365e:	2801      	cmp	r0, #1
 8003660:	d01d      	beq.n	800369e <cs43l22_ReadID+0x62>
 8003662:	2042      	movs	r0, #66	; 0x42
 8003664:	f882 0035 	strb.w	r0, [r2, #53]	; 0x35
 8003668:	f882 1034 	strb.w	r1, [r2, #52]	; 0x34
 800366c:	f882 4036 	strb.w	r4, [r2, #54]	; 0x36
 8003670:	6819      	ldr	r1, [r3, #0]
 8003672:	4e61      	ldr	r6, [pc, #388]	; (80037f8 <cs43l22_ReadID+0x1bc>)
 8003674:	f441 6180 	orr.w	r1, r1, #1024	; 0x400
 8003678:	6019      	str	r1, [r3, #0]
 800367a:	6819      	ldr	r1, [r3, #0]
 800367c:	f441 7180 	orr.w	r1, r1, #256	; 0x100
 8003680:	6019      	str	r1, [r3, #0]
 8003682:	6830      	ldr	r0, [r6, #0]
 8003684:	6959      	ldr	r1, [r3, #20]
 8003686:	07c9      	lsls	r1, r1, #31
 8003688:	d41d      	bmi.n	80036c6 <cs43l22_ReadID+0x8a>
 800368a:	6831      	ldr	r1, [r6, #0]
 800368c:	1a09      	subs	r1, r1, r0
 800368e:	f5b1 5f80 	cmp.w	r1, #4096	; 0x1000
 8003692:	d9f7      	bls.n	8003684 <cs43l22_ReadID+0x48>
 8003694:	2101      	movs	r1, #1
 8003696:	f882 1035 	strb.w	r1, [r2, #53]	; 0x35
 800369a:	f892 1036 	ldrb.w	r1, [r2, #54]	; 0x36
 800369e:	2102      	movs	r1, #2
 80036a0:	f882 1035 	strb.w	r1, [r2, #53]	; 0x35
 80036a4:	6818      	ldr	r0, [r3, #0]
 80036a6:	2100      	movs	r1, #0
 80036a8:	f020 0001 	bic.w	r0, r0, #1
 80036ac:	6018      	str	r0, [r3, #0]
 80036ae:	f882 1036 	strb.w	r1, [r2, #54]	; 0x36
 80036b2:	f882 1035 	strb.w	r1, [r2, #53]	; 0x35
 80036b6:	f892 3035 	ldrb.w	r3, [r2, #53]	; 0x35
 80036ba:	f882 1034 	strb.w	r1, [r2, #52]	; 0x34
 80036be:	2b00      	cmp	r3, #0
 80036c0:	d037      	beq.n	8003732 <cs43l22_ReadID+0xf6>
 80036c2:	4620      	mov	r0, r4
 80036c4:	bd70      	pop	{r4, r5, r6, pc}
 80036c6:	fa5f fc85 	uxtb.w	ip, r5
 80036ca:	f005 05fe 	and.w	r5, r5, #254	; 0xfe
 80036ce:	611d      	str	r5, [r3, #16]
 80036d0:	6830      	ldr	r0, [r6, #0]
 80036d2:	6959      	ldr	r1, [r3, #20]
 80036d4:	f011 0f02 	tst.w	r1, #2
 80036d8:	6959      	ldr	r1, [r3, #20]
 80036da:	d11f      	bne.n	800371c <cs43l22_ReadID+0xe0>
 80036dc:	0549      	lsls	r1, r1, #21
 80036de:	d40d      	bmi.n	80036fc <cs43l22_ReadID+0xc0>
 80036e0:	6831      	ldr	r1, [r6, #0]
 80036e2:	1a09      	subs	r1, r1, r0
 80036e4:	f5b1 5f80 	cmp.w	r1, #4096	; 0x1000
 80036e8:	d9f3      	bls.n	80036d2 <cs43l22_ReadID+0x96>
 80036ea:	2101      	movs	r1, #1
 80036ec:	f882 1035 	strb.w	r1, [r2, #53]	; 0x35
 80036f0:	e011      	b.n	8003716 <cs43l22_ReadID+0xda>
 80036f2:	6813      	ldr	r3, [r2, #0]
 80036f4:	2400      	movs	r4, #0
 80036f6:	e7d2      	b.n	800369e <cs43l22_ReadID+0x62>
 80036f8:	2400      	movs	r4, #0
 80036fa:	e7d0      	b.n	800369e <cs43l22_ReadID+0x62>
 80036fc:	6819      	ldr	r1, [r3, #0]
 80036fe:	f441 7100 	orr.w	r1, r1, #512	; 0x200
 8003702:	6019      	str	r1, [r3, #0]
 8003704:	f46f 6580 	mvn.w	r5, #1024	; 0x400
 8003708:	2004      	movs	r0, #4
 800370a:	2101      	movs	r1, #1
 800370c:	615d      	str	r5, [r3, #20]
 800370e:	f882 0036 	strb.w	r0, [r2, #54]	; 0x36
 8003712:	f882 1035 	strb.w	r1, [r2, #53]	; 0x35
 8003716:	f892 1036 	ldrb.w	r1, [r2, #54]	; 0x36
 800371a:	e7be      	b.n	800369a <cs43l22_ReadID+0x5e>
 800371c:	6999      	ldr	r1, [r3, #24]
 800371e:	6830      	ldr	r0, [r6, #0]
 8003720:	6959      	ldr	r1, [r3, #20]
 8003722:	060d      	lsls	r5, r1, #24
 8003724:	d409      	bmi.n	800373a <cs43l22_ReadID+0xfe>
 8003726:	6831      	ldr	r1, [r6, #0]
 8003728:	1a09      	subs	r1, r1, r0
 800372a:	f5b1 5f80 	cmp.w	r1, #4096	; 0x1000
 800372e:	d9f7      	bls.n	8003720 <cs43l22_ReadID+0xe4>
 8003730:	e7b0      	b.n	8003694 <cs43l22_ReadID+0x58>
 8003732:	f7ff faeb 	bl	8002d0c <I2Cx_Init.part.0>
 8003736:	4620      	mov	r0, r4
 8003738:	bd70      	pop	{r4, r5, r6, pc}
 800373a:	2101      	movs	r1, #1
 800373c:	6119      	str	r1, [r3, #16]
 800373e:	6830      	ldr	r0, [r6, #0]
 8003740:	6959      	ldr	r1, [r3, #20]
 8003742:	0609      	lsls	r1, r1, #24
 8003744:	d405      	bmi.n	8003752 <cs43l22_ReadID+0x116>
 8003746:	6831      	ldr	r1, [r6, #0]
 8003748:	1a09      	subs	r1, r1, r0
 800374a:	f5b1 5f80 	cmp.w	r1, #4096	; 0x1000
 800374e:	d9f7      	bls.n	8003740 <cs43l22_ReadID+0x104>
 8003750:	e7a0      	b.n	8003694 <cs43l22_ReadID+0x58>
 8003752:	6819      	ldr	r1, [r3, #0]
 8003754:	f441 7180 	orr.w	r1, r1, #256	; 0x100
 8003758:	6019      	str	r1, [r3, #0]
 800375a:	6830      	ldr	r0, [r6, #0]
 800375c:	6959      	ldr	r1, [r3, #20]
 800375e:	07cd      	lsls	r5, r1, #31
 8003760:	d405      	bmi.n	800376e <cs43l22_ReadID+0x132>
 8003762:	6831      	ldr	r1, [r6, #0]
 8003764:	1a09      	subs	r1, r1, r0
 8003766:	f5b1 5f80 	cmp.w	r1, #4096	; 0x1000
 800376a:	d9f7      	bls.n	800375c <cs43l22_ReadID+0x120>
 800376c:	e792      	b.n	8003694 <cs43l22_ReadID+0x58>
 800376e:	f04c 0101 	orr.w	r1, ip, #1
 8003772:	6119      	str	r1, [r3, #16]
 8003774:	6830      	ldr	r0, [r6, #0]
 8003776:	6959      	ldr	r1, [r3, #20]
 8003778:	078d      	lsls	r5, r1, #30
 800377a:	d408      	bmi.n	800378e <cs43l22_ReadID+0x152>
 800377c:	6959      	ldr	r1, [r3, #20]
 800377e:	0549      	lsls	r1, r1, #21
 8003780:	d4bc      	bmi.n	80036fc <cs43l22_ReadID+0xc0>
 8003782:	6831      	ldr	r1, [r6, #0]
 8003784:	1a09      	subs	r1, r1, r0
 8003786:	f5b1 5f80 	cmp.w	r1, #4096	; 0x1000
 800378a:	d9f4      	bls.n	8003776 <cs43l22_ReadID+0x13a>
 800378c:	e7ad      	b.n	80036ea <cs43l22_ReadID+0xae>
 800378e:	6819      	ldr	r1, [r3, #0]
 8003790:	f421 6180 	bic.w	r1, r1, #1024	; 0x400
 8003794:	6019      	str	r1, [r3, #0]
 8003796:	6959      	ldr	r1, [r3, #20]
 8003798:	6999      	ldr	r1, [r3, #24]
 800379a:	6819      	ldr	r1, [r3, #0]
 800379c:	f441 7100 	orr.w	r1, r1, #512	; 0x200
 80037a0:	6019      	str	r1, [r3, #0]
 80037a2:	6830      	ldr	r0, [r6, #0]
 80037a4:	6959      	ldr	r1, [r3, #20]
 80037a6:	064c      	lsls	r4, r1, #25
 80037a8:	d409      	bmi.n	80037be <cs43l22_ReadID+0x182>
 80037aa:	6831      	ldr	r1, [r6, #0]
 80037ac:	1a09      	subs	r1, r1, r0
 80037ae:	f5b1 5f80 	cmp.w	r1, #4096	; 0x1000
 80037b2:	d9f7      	bls.n	80037a4 <cs43l22_ReadID+0x168>
 80037b4:	2101      	movs	r1, #1
 80037b6:	f882 1035 	strb.w	r1, [r2, #53]	; 0x35
 80037ba:	2400      	movs	r4, #0
 80037bc:	e76f      	b.n	800369e <cs43l22_ReadID+0x62>
 80037be:	691c      	ldr	r4, [r3, #16]
 80037c0:	6819      	ldr	r1, [r3, #0]
 80037c2:	f421 6100 	bic.w	r1, r1, #2048	; 0x800
 80037c6:	6019      	str	r1, [r3, #0]
 80037c8:	6831      	ldr	r1, [r6, #0]
 80037ca:	6998      	ldr	r0, [r3, #24]
 80037cc:	0780      	lsls	r0, r0, #30
 80037ce:	d509      	bpl.n	80037e4 <cs43l22_ReadID+0x1a8>
 80037d0:	6830      	ldr	r0, [r6, #0]
 80037d2:	1a40      	subs	r0, r0, r1
 80037d4:	f5b0 5f80 	cmp.w	r0, #4096	; 0x1000
 80037d8:	d9f7      	bls.n	80037ca <cs43l22_ReadID+0x18e>
 80037da:	2101      	movs	r1, #1
 80037dc:	f882 1035 	strb.w	r1, [r2, #53]	; 0x35
 80037e0:	b2e4      	uxtb	r4, r4
 80037e2:	e75c      	b.n	800369e <cs43l22_ReadID+0x62>
 80037e4:	2101      	movs	r1, #1
 80037e6:	2300      	movs	r3, #0
 80037e8:	f882 1035 	strb.w	r1, [r2, #53]	; 0x35
 80037ec:	f882 3034 	strb.w	r3, [r2, #52]	; 0x34
 80037f0:	b2e4      	uxtb	r4, r4
 80037f2:	e766      	b.n	80036c2 <cs43l22_ReadID+0x86>
 80037f4:	200005b0 	.word	0x200005b0
 80037f8:	20002f54 	.word	0x20002f54

080037fc <HAL_I2C_Mem_Write.part.0.constprop.0>:
HAL_I2C_Mem_Write.part.0.constprop.0():
 80037fc:	b470      	push	{r4, r5, r6}
 80037fe:	4e25      	ldr	r6, [pc, #148]	; (8003894 <HAL_I2C_Mem_Write.part.0.constprop.0+0x98>)
 8003800:	4d25      	ldr	r5, [pc, #148]	; (8003898 <HAL_I2C_Mem_Write.part.0.constprop.0+0x9c>)
 8003802:	6834      	ldr	r4, [r6, #0]
 8003804:	682a      	ldr	r2, [r5, #0]
 8003806:	1c4b      	adds	r3, r1, #1
 8003808:	d11e      	bne.n	8003848 <HAL_I2C_Mem_Write.part.0.constprop.0+0x4c>
 800380a:	6953      	ldr	r3, [r2, #20]
 800380c:	061c      	lsls	r4, r3, #24
 800380e:	d5fc      	bpl.n	800380a <HAL_I2C_Mem_Write.part.0.constprop.0+0xe>
 8003810:	7803      	ldrb	r3, [r0, #0]
 8003812:	6113      	str	r3, [r2, #16]
 8003814:	6953      	ldr	r3, [r2, #20]
 8003816:	6833      	ldr	r3, [r6, #0]
 8003818:	1c48      	adds	r0, r1, #1
 800381a:	d126      	bne.n	800386a <HAL_I2C_Mem_Write.part.0.constprop.0+0x6e>
 800381c:	6953      	ldr	r3, [r2, #20]
 800381e:	061b      	lsls	r3, r3, #24
 8003820:	d5fc      	bpl.n	800381c <HAL_I2C_Mem_Write.part.0.constprop.0+0x20>
 8003822:	6813      	ldr	r3, [r2, #0]
 8003824:	f443 7300 	orr.w	r3, r3, #512	; 0x200
 8003828:	6013      	str	r3, [r2, #0]
 800382a:	6833      	ldr	r3, [r6, #0]
 800382c:	1c48      	adds	r0, r1, #1
 800382e:	d126      	bne.n	800387e <HAL_I2C_Mem_Write.part.0.constprop.0+0x82>
 8003830:	6993      	ldr	r3, [r2, #24]
 8003832:	079c      	lsls	r4, r3, #30
 8003834:	d4fc      	bmi.n	8003830 <HAL_I2C_Mem_Write.part.0.constprop.0+0x34>
 8003836:	2301      	movs	r3, #1
 8003838:	f885 3035 	strb.w	r3, [r5, #53]	; 0x35
 800383c:	2300      	movs	r3, #0
 800383e:	2000      	movs	r0, #0
 8003840:	f885 3034 	strb.w	r3, [r5, #52]	; 0x34
 8003844:	bc70      	pop	{r4, r5, r6}
 8003846:	4770      	bx	lr
 8003848:	6953      	ldr	r3, [r2, #20]
 800384a:	061b      	lsls	r3, r3, #24
 800384c:	d4e0      	bmi.n	8003810 <HAL_I2C_Mem_Write.part.0.constprop.0+0x14>
 800384e:	b119      	cbz	r1, 8003858 <HAL_I2C_Mem_Write.part.0.constprop.0+0x5c>
 8003850:	6833      	ldr	r3, [r6, #0]
 8003852:	1b1b      	subs	r3, r3, r4
 8003854:	4299      	cmp	r1, r3
 8003856:	d2d6      	bcs.n	8003806 <HAL_I2C_Mem_Write.part.0.constprop.0+0xa>
 8003858:	2301      	movs	r3, #1
 800385a:	f885 3035 	strb.w	r3, [r5, #53]	; 0x35
 800385e:	2300      	movs	r3, #0
 8003860:	2003      	movs	r0, #3
 8003862:	f885 3034 	strb.w	r3, [r5, #52]	; 0x34
 8003866:	bc70      	pop	{r4, r5, r6}
 8003868:	4770      	bx	lr
 800386a:	6950      	ldr	r0, [r2, #20]
 800386c:	0604      	lsls	r4, r0, #24
 800386e:	d4d8      	bmi.n	8003822 <HAL_I2C_Mem_Write.part.0.constprop.0+0x26>
 8003870:	2900      	cmp	r1, #0
 8003872:	d0f1      	beq.n	8003858 <HAL_I2C_Mem_Write.part.0.constprop.0+0x5c>
 8003874:	6830      	ldr	r0, [r6, #0]
 8003876:	1ac0      	subs	r0, r0, r3
 8003878:	4281      	cmp	r1, r0
 800387a:	d2cd      	bcs.n	8003818 <HAL_I2C_Mem_Write.part.0.constprop.0+0x1c>
 800387c:	e7ec      	b.n	8003858 <HAL_I2C_Mem_Write.part.0.constprop.0+0x5c>
 800387e:	6990      	ldr	r0, [r2, #24]
 8003880:	0780      	lsls	r0, r0, #30
 8003882:	d5d8      	bpl.n	8003836 <HAL_I2C_Mem_Write.part.0.constprop.0+0x3a>
 8003884:	2900      	cmp	r1, #0
 8003886:	d0e7      	beq.n	8003858 <HAL_I2C_Mem_Write.part.0.constprop.0+0x5c>
 8003888:	6830      	ldr	r0, [r6, #0]
 800388a:	1ac0      	subs	r0, r0, r3
 800388c:	4281      	cmp	r1, r0
 800388e:	d2cd      	bcs.n	800382c <HAL_I2C_Mem_Write.part.0.constprop.0+0x30>
 8003890:	e7e2      	b.n	8003858 <HAL_I2C_Mem_Write.part.0.constprop.0+0x5c>
 8003892:	bf00      	nop
 8003894:	20002f54 	.word	0x20002f54
 8003898:	200005b0 	.word	0x200005b0

0800389c <cs43l22_Play>:
cs43l22_Play():
 800389c:	b570      	push	{r4, r5, r6, lr}
 800389e:	4e83      	ldr	r6, [pc, #524]	; (8003aac <cs43l22_Play+0x210>)
 80038a0:	7833      	ldrb	r3, [r6, #0]
 80038a2:	2b01      	cmp	r3, #1
 80038a4:	b082      	sub	sp, #8
 80038a6:	d002      	beq.n	80038ae <cs43l22_Play+0x12>
 80038a8:	2000      	movs	r0, #0
 80038aa:	b002      	add	sp, #8
 80038ac:	bd70      	pop	{r4, r5, r6, pc}
 80038ae:	4b80      	ldr	r3, [pc, #512]	; (8003ab0 <cs43l22_Play+0x214>)
 80038b0:	4d80      	ldr	r5, [pc, #512]	; (8003ab4 <cs43l22_Play+0x218>)
 80038b2:	781a      	ldrb	r2, [r3, #0]
 80038b4:	f895 3035 	ldrb.w	r3, [r5, #53]	; 0x35
 80038b8:	f88d 2007 	strb.w	r2, [sp, #7]
 80038bc:	2b01      	cmp	r3, #1
 80038be:	b2d9      	uxtb	r1, r3
 80038c0:	b2c4      	uxtb	r4, r0
 80038c2:	682b      	ldr	r3, [r5, #0]
 80038c4:	d121      	bne.n	800390a <cs43l22_Play+0x6e>
 80038c6:	699a      	ldr	r2, [r3, #24]
 80038c8:	f012 0202 	ands.w	r2, r2, #2
 80038cc:	d11d      	bne.n	800390a <cs43l22_Play+0x6e>
 80038ce:	f895 0034 	ldrb.w	r0, [r5, #52]	; 0x34
 80038d2:	2801      	cmp	r0, #1
 80038d4:	d019      	beq.n	800390a <cs43l22_Play+0x6e>
 80038d6:	f885 1034 	strb.w	r1, [r5, #52]	; 0x34
 80038da:	2132      	movs	r1, #50	; 0x32
 80038dc:	f885 1035 	strb.w	r1, [r5, #53]	; 0x35
 80038e0:	f885 2036 	strb.w	r2, [r5, #54]	; 0x36
 80038e4:	681a      	ldr	r2, [r3, #0]
 80038e6:	4974      	ldr	r1, [pc, #464]	; (8003ab8 <cs43l22_Play+0x21c>)
 80038e8:	f442 7280 	orr.w	r2, r2, #256	; 0x100
 80038ec:	601a      	str	r2, [r3, #0]
 80038ee:	6808      	ldr	r0, [r1, #0]
 80038f0:	695a      	ldr	r2, [r3, #20]
 80038f2:	07d2      	lsls	r2, r2, #31
 80038f4:	d45b      	bmi.n	80039ae <cs43l22_Play+0x112>
 80038f6:	680a      	ldr	r2, [r1, #0]
 80038f8:	1a12      	subs	r2, r2, r0
 80038fa:	f5b2 5f80 	cmp.w	r2, #4096	; 0x1000
 80038fe:	d9f7      	bls.n	80038f0 <cs43l22_Play+0x54>
 8003900:	2201      	movs	r2, #1
 8003902:	f885 2035 	strb.w	r2, [r5, #53]	; 0x35
 8003906:	f895 2036 	ldrb.w	r2, [r5, #54]	; 0x36
 800390a:	2202      	movs	r2, #2
 800390c:	f885 2035 	strb.w	r2, [r5, #53]	; 0x35
 8003910:	6819      	ldr	r1, [r3, #0]
 8003912:	2200      	movs	r2, #0
 8003914:	f021 0101 	bic.w	r1, r1, #1
 8003918:	6019      	str	r1, [r3, #0]
 800391a:	f885 2036 	strb.w	r2, [r5, #54]	; 0x36
 800391e:	f885 2035 	strb.w	r2, [r5, #53]	; 0x35
 8003922:	f885 2034 	strb.w	r2, [r5, #52]	; 0x34
 8003926:	f895 2035 	ldrb.w	r2, [r5, #53]	; 0x35
 800392a:	2a00      	cmp	r2, #0
 800392c:	d06e      	beq.n	8003a0c <cs43l22_Play+0x170>
 800392e:	f895 2035 	ldrb.w	r2, [r5, #53]	; 0x35
 8003932:	219e      	movs	r1, #158	; 0x9e
 8003934:	2a01      	cmp	r2, #1
 8003936:	f88d 1007 	strb.w	r1, [sp, #7]
 800393a:	b2d1      	uxtb	r1, r2
 800393c:	d121      	bne.n	8003982 <cs43l22_Play+0xe6>
 800393e:	699a      	ldr	r2, [r3, #24]
 8003940:	f012 0202 	ands.w	r2, r2, #2
 8003944:	d11d      	bne.n	8003982 <cs43l22_Play+0xe6>
 8003946:	f895 0034 	ldrb.w	r0, [r5, #52]	; 0x34
 800394a:	2801      	cmp	r0, #1
 800394c:	d019      	beq.n	8003982 <cs43l22_Play+0xe6>
 800394e:	f885 1034 	strb.w	r1, [r5, #52]	; 0x34
 8003952:	2132      	movs	r1, #50	; 0x32
 8003954:	f885 1035 	strb.w	r1, [r5, #53]	; 0x35
 8003958:	f885 2036 	strb.w	r2, [r5, #54]	; 0x36
 800395c:	681a      	ldr	r2, [r3, #0]
 800395e:	4956      	ldr	r1, [pc, #344]	; (8003ab8 <cs43l22_Play+0x21c>)
 8003960:	f442 7280 	orr.w	r2, r2, #256	; 0x100
 8003964:	601a      	str	r2, [r3, #0]
 8003966:	6808      	ldr	r0, [r1, #0]
 8003968:	695a      	ldr	r2, [r3, #20]
 800396a:	07d2      	lsls	r2, r2, #31
 800396c:	d435      	bmi.n	80039da <cs43l22_Play+0x13e>
 800396e:	680a      	ldr	r2, [r1, #0]
 8003970:	1a12      	subs	r2, r2, r0
 8003972:	f5b2 5f80 	cmp.w	r2, #4096	; 0x1000
 8003976:	d9f7      	bls.n	8003968 <cs43l22_Play+0xcc>
 8003978:	2201      	movs	r2, #1
 800397a:	f885 2035 	strb.w	r2, [r5, #53]	; 0x35
 800397e:	f895 2036 	ldrb.w	r2, [r5, #54]	; 0x36
 8003982:	2202      	movs	r2, #2
 8003984:	f885 2035 	strb.w	r2, [r5, #53]	; 0x35
 8003988:	6819      	ldr	r1, [r3, #0]
 800398a:	2200      	movs	r2, #0
 800398c:	f021 0101 	bic.w	r1, r1, #1
 8003990:	6019      	str	r1, [r3, #0]
 8003992:	f885 2036 	strb.w	r2, [r5, #54]	; 0x36
 8003996:	f885 2035 	strb.w	r2, [r5, #53]	; 0x35
 800399a:	f895 3035 	ldrb.w	r3, [r5, #53]	; 0x35
 800399e:	f885 2034 	strb.w	r2, [r5, #52]	; 0x34
 80039a2:	b383      	cbz	r3, 8003a06 <cs43l22_Play+0x16a>
 80039a4:	2300      	movs	r3, #0
 80039a6:	2000      	movs	r0, #0
 80039a8:	7033      	strb	r3, [r6, #0]
 80039aa:	b002      	add	sp, #8
 80039ac:	bd70      	pop	{r4, r5, r6, pc}
 80039ae:	f004 02fe 	and.w	r2, r4, #254	; 0xfe
 80039b2:	611a      	str	r2, [r3, #16]
 80039b4:	6808      	ldr	r0, [r1, #0]
 80039b6:	695a      	ldr	r2, [r3, #20]
 80039b8:	f012 0f02 	tst.w	r2, #2
 80039bc:	695a      	ldr	r2, [r3, #20]
 80039be:	d129      	bne.n	8003a14 <cs43l22_Play+0x178>
 80039c0:	0552      	lsls	r2, r2, #21
 80039c2:	d456      	bmi.n	8003a72 <cs43l22_Play+0x1d6>
 80039c4:	680a      	ldr	r2, [r1, #0]
 80039c6:	1a12      	subs	r2, r2, r0
 80039c8:	f5b2 5f80 	cmp.w	r2, #4096	; 0x1000
 80039cc:	d9f3      	bls.n	80039b6 <cs43l22_Play+0x11a>
 80039ce:	2201      	movs	r2, #1
 80039d0:	f885 2035 	strb.w	r2, [r5, #53]	; 0x35
 80039d4:	f895 2036 	ldrb.w	r2, [r5, #54]	; 0x36
 80039d8:	e795      	b.n	8003906 <cs43l22_Play+0x6a>
 80039da:	f004 04fe 	and.w	r4, r4, #254	; 0xfe
 80039de:	611c      	str	r4, [r3, #16]
 80039e0:	6808      	ldr	r0, [r1, #0]
 80039e2:	695a      	ldr	r2, [r3, #20]
 80039e4:	f012 0f02 	tst.w	r2, #2
 80039e8:	695a      	ldr	r2, [r3, #20]
 80039ea:	d12b      	bne.n	8003a44 <cs43l22_Play+0x1a8>
 80039ec:	0554      	lsls	r4, r2, #21
 80039ee:	d44e      	bmi.n	8003a8e <cs43l22_Play+0x1f2>
 80039f0:	680a      	ldr	r2, [r1, #0]
 80039f2:	1a12      	subs	r2, r2, r0
 80039f4:	f5b2 5f80 	cmp.w	r2, #4096	; 0x1000
 80039f8:	d9f3      	bls.n	80039e2 <cs43l22_Play+0x146>
 80039fa:	2201      	movs	r2, #1
 80039fc:	f885 2035 	strb.w	r2, [r5, #53]	; 0x35
 8003a00:	f895 2036 	ldrb.w	r2, [r5, #54]	; 0x36
 8003a04:	e7bb      	b.n	800397e <cs43l22_Play+0xe2>
 8003a06:	f7ff f981 	bl	8002d0c <I2Cx_Init.part.0>
 8003a0a:	e7cb      	b.n	80039a4 <cs43l22_Play+0x108>
 8003a0c:	f7ff f97e 	bl	8002d0c <I2Cx_Init.part.0>
 8003a10:	682b      	ldr	r3, [r5, #0]
 8003a12:	e78c      	b.n	800392e <cs43l22_Play+0x92>
 8003a14:	699a      	ldr	r2, [r3, #24]
 8003a16:	6808      	ldr	r0, [r1, #0]
 8003a18:	695a      	ldr	r2, [r3, #20]
 8003a1a:	0612      	lsls	r2, r2, #24
 8003a1c:	d405      	bmi.n	8003a2a <cs43l22_Play+0x18e>
 8003a1e:	680a      	ldr	r2, [r1, #0]
 8003a20:	1a12      	subs	r2, r2, r0
 8003a22:	f5b2 5f80 	cmp.w	r2, #4096	; 0x1000
 8003a26:	d9f7      	bls.n	8003a18 <cs43l22_Play+0x17c>
 8003a28:	e76a      	b.n	8003900 <cs43l22_Play+0x64>
 8003a2a:	2204      	movs	r2, #4
 8003a2c:	611a      	str	r2, [r3, #16]
 8003a2e:	f44f 5180 	mov.w	r1, #4096	; 0x1000
 8003a32:	f10d 0007 	add.w	r0, sp, #7
 8003a36:	f7ff fee1 	bl	80037fc <HAL_I2C_Mem_Write.part.0.constprop.0>
 8003a3a:	682b      	ldr	r3, [r5, #0]
 8003a3c:	2800      	cmp	r0, #0
 8003a3e:	f43f af76 	beq.w	800392e <cs43l22_Play+0x92>
 8003a42:	e762      	b.n	800390a <cs43l22_Play+0x6e>
 8003a44:	699a      	ldr	r2, [r3, #24]
 8003a46:	6808      	ldr	r0, [r1, #0]
 8003a48:	695a      	ldr	r2, [r3, #20]
 8003a4a:	0612      	lsls	r2, r2, #24
 8003a4c:	d405      	bmi.n	8003a5a <cs43l22_Play+0x1be>
 8003a4e:	680a      	ldr	r2, [r1, #0]
 8003a50:	1a12      	subs	r2, r2, r0
 8003a52:	f5b2 5f80 	cmp.w	r2, #4096	; 0x1000
 8003a56:	d9f7      	bls.n	8003a48 <cs43l22_Play+0x1ac>
 8003a58:	e78e      	b.n	8003978 <cs43l22_Play+0xdc>
 8003a5a:	2202      	movs	r2, #2
 8003a5c:	611a      	str	r2, [r3, #16]
 8003a5e:	f44f 5180 	mov.w	r1, #4096	; 0x1000
 8003a62:	f10d 0007 	add.w	r0, sp, #7
 8003a66:	f7ff fec9 	bl	80037fc <HAL_I2C_Mem_Write.part.0.constprop.0>
 8003a6a:	2800      	cmp	r0, #0
 8003a6c:	d09a      	beq.n	80039a4 <cs43l22_Play+0x108>
 8003a6e:	682b      	ldr	r3, [r5, #0]
 8003a70:	e787      	b.n	8003982 <cs43l22_Play+0xe6>
 8003a72:	681a      	ldr	r2, [r3, #0]
 8003a74:	f46f 6180 	mvn.w	r1, #1024	; 0x400
 8003a78:	f442 7200 	orr.w	r2, r2, #512	; 0x200
 8003a7c:	601a      	str	r2, [r3, #0]
 8003a7e:	6159      	str	r1, [r3, #20]
 8003a80:	2201      	movs	r2, #1
 8003a82:	2104      	movs	r1, #4
 8003a84:	f885 1036 	strb.w	r1, [r5, #54]	; 0x36
 8003a88:	f885 2035 	strb.w	r2, [r5, #53]	; 0x35
 8003a8c:	e7a2      	b.n	80039d4 <cs43l22_Play+0x138>
 8003a8e:	681a      	ldr	r2, [r3, #0]
 8003a90:	f442 7200 	orr.w	r2, r2, #512	; 0x200
 8003a94:	601a      	str	r2, [r3, #0]
 8003a96:	f46f 6080 	mvn.w	r0, #1024	; 0x400
 8003a9a:	2104      	movs	r1, #4
 8003a9c:	2201      	movs	r2, #1
 8003a9e:	6158      	str	r0, [r3, #20]
 8003aa0:	f885 1036 	strb.w	r1, [r5, #54]	; 0x36
 8003aa4:	f885 2035 	strb.w	r2, [r5, #53]	; 0x35
 8003aa8:	e7aa      	b.n	8003a00 <cs43l22_Play+0x164>
 8003aaa:	bf00      	nop
 8003aac:	20000001 	.word	0x20000001
 8003ab0:	20000638 	.word	0x20000638
 8003ab4:	200005b0 	.word	0x200005b0
 8003ab8:	20002f54 	.word	0x20002f54

08003abc <cs43l22_Pause>:
cs43l22_Pause():
 8003abc:	b530      	push	{r4, r5, lr}
 8003abe:	4c81      	ldr	r4, [pc, #516]	; (8003cc4 <cs43l22_Pause+0x208>)
 8003ac0:	f894 3035 	ldrb.w	r3, [r4, #53]	; 0x35
 8003ac4:	b083      	sub	sp, #12
 8003ac6:	22ff      	movs	r2, #255	; 0xff
 8003ac8:	2b01      	cmp	r3, #1
 8003aca:	f88d 2007 	strb.w	r2, [sp, #7]
 8003ace:	b2c5      	uxtb	r5, r0
 8003ad0:	d122      	bne.n	8003b18 <cs43l22_Pause+0x5c>
 8003ad2:	b2d9      	uxtb	r1, r3
 8003ad4:	6823      	ldr	r3, [r4, #0]
 8003ad6:	699a      	ldr	r2, [r3, #24]
 8003ad8:	f012 0202 	ands.w	r2, r2, #2
 8003adc:	d11d      	bne.n	8003b1a <cs43l22_Pause+0x5e>
 8003ade:	f894 0034 	ldrb.w	r0, [r4, #52]	; 0x34
 8003ae2:	2801      	cmp	r0, #1
 8003ae4:	d019      	beq.n	8003b1a <cs43l22_Pause+0x5e>
 8003ae6:	2032      	movs	r0, #50	; 0x32
 8003ae8:	f884 0035 	strb.w	r0, [r4, #53]	; 0x35
 8003aec:	f884 1034 	strb.w	r1, [r4, #52]	; 0x34
 8003af0:	f884 2036 	strb.w	r2, [r4, #54]	; 0x36
 8003af4:	681a      	ldr	r2, [r3, #0]
 8003af6:	4974      	ldr	r1, [pc, #464]	; (8003cc8 <cs43l22_Pause+0x20c>)
 8003af8:	f442 7280 	orr.w	r2, r2, #256	; 0x100
 8003afc:	601a      	str	r2, [r3, #0]
 8003afe:	6808      	ldr	r0, [r1, #0]
 8003b00:	695a      	ldr	r2, [r3, #20]
 8003b02:	07d2      	lsls	r2, r2, #31
 8003b04:	d45b      	bmi.n	8003bbe <cs43l22_Pause+0x102>
 8003b06:	680a      	ldr	r2, [r1, #0]
 8003b08:	1a12      	subs	r2, r2, r0
 8003b0a:	f5b2 5f80 	cmp.w	r2, #4096	; 0x1000
 8003b0e:	d9f7      	bls.n	8003b00 <cs43l22_Pause+0x44>
 8003b10:	2201      	movs	r2, #1
 8003b12:	f884 2035 	strb.w	r2, [r4, #53]	; 0x35
 8003b16:	e0c8      	b.n	8003caa <cs43l22_Pause+0x1ee>
 8003b18:	6823      	ldr	r3, [r4, #0]
 8003b1a:	2202      	movs	r2, #2
 8003b1c:	f884 2035 	strb.w	r2, [r4, #53]	; 0x35
 8003b20:	6819      	ldr	r1, [r3, #0]
 8003b22:	2200      	movs	r2, #0
 8003b24:	f021 0101 	bic.w	r1, r1, #1
 8003b28:	6019      	str	r1, [r3, #0]
 8003b2a:	f884 2036 	strb.w	r2, [r4, #54]	; 0x36
 8003b2e:	f884 2035 	strb.w	r2, [r4, #53]	; 0x35
 8003b32:	f894 1035 	ldrb.w	r1, [r4, #53]	; 0x35
 8003b36:	f884 2034 	strb.w	r2, [r4, #52]	; 0x34
 8003b3a:	2900      	cmp	r1, #0
 8003b3c:	f000 80b8 	beq.w	8003cb0 <cs43l22_Pause+0x1f4>
 8003b40:	f894 2035 	ldrb.w	r2, [r4, #53]	; 0x35
 8003b44:	2101      	movs	r1, #1
 8003b46:	2a01      	cmp	r2, #1
 8003b48:	f88d 1007 	strb.w	r1, [sp, #7]
 8003b4c:	b2d1      	uxtb	r1, r2
 8003b4e:	d121      	bne.n	8003b94 <cs43l22_Pause+0xd8>
 8003b50:	699a      	ldr	r2, [r3, #24]
 8003b52:	f012 0202 	ands.w	r2, r2, #2
 8003b56:	d11d      	bne.n	8003b94 <cs43l22_Pause+0xd8>
 8003b58:	f894 0034 	ldrb.w	r0, [r4, #52]	; 0x34
 8003b5c:	2801      	cmp	r0, #1
 8003b5e:	d019      	beq.n	8003b94 <cs43l22_Pause+0xd8>
 8003b60:	2032      	movs	r0, #50	; 0x32
 8003b62:	f884 0035 	strb.w	r0, [r4, #53]	; 0x35
 8003b66:	f884 1034 	strb.w	r1, [r4, #52]	; 0x34
 8003b6a:	f884 2036 	strb.w	r2, [r4, #54]	; 0x36
 8003b6e:	681a      	ldr	r2, [r3, #0]
 8003b70:	4955      	ldr	r1, [pc, #340]	; (8003cc8 <cs43l22_Pause+0x20c>)
 8003b72:	f442 7280 	orr.w	r2, r2, #256	; 0x100
 8003b76:	601a      	str	r2, [r3, #0]
 8003b78:	6808      	ldr	r0, [r1, #0]
 8003b7a:	695a      	ldr	r2, [r3, #20]
 8003b7c:	07d2      	lsls	r2, r2, #31
 8003b7e:	d432      	bmi.n	8003be6 <cs43l22_Pause+0x12a>
 8003b80:	680a      	ldr	r2, [r1, #0]
 8003b82:	1a12      	subs	r2, r2, r0
 8003b84:	f5b2 5f80 	cmp.w	r2, #4096	; 0x1000
 8003b88:	d9f7      	bls.n	8003b7a <cs43l22_Pause+0xbe>
 8003b8a:	2201      	movs	r2, #1
 8003b8c:	f884 2035 	strb.w	r2, [r4, #53]	; 0x35
 8003b90:	f894 2036 	ldrb.w	r2, [r4, #54]	; 0x36
 8003b94:	2202      	movs	r2, #2
 8003b96:	f884 2035 	strb.w	r2, [r4, #53]	; 0x35
 8003b9a:	6819      	ldr	r1, [r3, #0]
 8003b9c:	2200      	movs	r2, #0
 8003b9e:	f021 0101 	bic.w	r1, r1, #1
 8003ba2:	6019      	str	r1, [r3, #0]
 8003ba4:	f884 2036 	strb.w	r2, [r4, #54]	; 0x36
 8003ba8:	f884 2035 	strb.w	r2, [r4, #53]	; 0x35
 8003bac:	f894 3035 	ldrb.w	r3, [r4, #53]	; 0x35
 8003bb0:	f884 2034 	strb.w	r2, [r4, #52]	; 0x34
 8003bb4:	2b00      	cmp	r3, #0
 8003bb6:	d07f      	beq.n	8003cb8 <cs43l22_Pause+0x1fc>
 8003bb8:	2000      	movs	r0, #0
 8003bba:	b003      	add	sp, #12
 8003bbc:	bd30      	pop	{r4, r5, pc}
 8003bbe:	f005 02fe 	and.w	r2, r5, #254	; 0xfe
 8003bc2:	611a      	str	r2, [r3, #16]
 8003bc4:	6808      	ldr	r0, [r1, #0]
 8003bc6:	695a      	ldr	r2, [r3, #20]
 8003bc8:	f012 0f02 	tst.w	r2, #2
 8003bcc:	695a      	ldr	r2, [r3, #20]
 8003bce:	d135      	bne.n	8003c3c <cs43l22_Pause+0x180>
 8003bd0:	0552      	lsls	r2, r2, #21
 8003bd2:	d45b      	bmi.n	8003c8c <cs43l22_Pause+0x1d0>
 8003bd4:	680a      	ldr	r2, [r1, #0]
 8003bd6:	1a12      	subs	r2, r2, r0
 8003bd8:	f5b2 5f80 	cmp.w	r2, #4096	; 0x1000
 8003bdc:	d9f3      	bls.n	8003bc6 <cs43l22_Pause+0x10a>
 8003bde:	2201      	movs	r2, #1
 8003be0:	f884 2035 	strb.w	r2, [r4, #53]	; 0x35
 8003be4:	e05f      	b.n	8003ca6 <cs43l22_Pause+0x1ea>
 8003be6:	f005 05fe 	and.w	r5, r5, #254	; 0xfe
 8003bea:	611d      	str	r5, [r3, #16]
 8003bec:	6808      	ldr	r0, [r1, #0]
 8003bee:	695a      	ldr	r2, [r3, #20]
 8003bf0:	f012 0f02 	tst.w	r2, #2
 8003bf4:	695a      	ldr	r2, [r3, #20]
 8003bf6:	d10a      	bne.n	8003c0e <cs43l22_Pause+0x152>
 8003bf8:	0555      	lsls	r5, r2, #21
 8003bfa:	d437      	bmi.n	8003c6c <cs43l22_Pause+0x1b0>
 8003bfc:	680a      	ldr	r2, [r1, #0]
 8003bfe:	1a12      	subs	r2, r2, r0
 8003c00:	f5b2 5f80 	cmp.w	r2, #4096	; 0x1000
 8003c04:	d9f3      	bls.n	8003bee <cs43l22_Pause+0x132>
 8003c06:	2201      	movs	r2, #1
 8003c08:	f884 2035 	strb.w	r2, [r4, #53]	; 0x35
 8003c0c:	e03b      	b.n	8003c86 <cs43l22_Pause+0x1ca>
 8003c0e:	699a      	ldr	r2, [r3, #24]
 8003c10:	6808      	ldr	r0, [r1, #0]
 8003c12:	695a      	ldr	r2, [r3, #20]
 8003c14:	0612      	lsls	r2, r2, #24
 8003c16:	d405      	bmi.n	8003c24 <cs43l22_Pause+0x168>
 8003c18:	680a      	ldr	r2, [r1, #0]
 8003c1a:	1a12      	subs	r2, r2, r0
 8003c1c:	f5b2 5f80 	cmp.w	r2, #4096	; 0x1000
 8003c20:	d9f7      	bls.n	8003c12 <cs43l22_Pause+0x156>
 8003c22:	e7b2      	b.n	8003b8a <cs43l22_Pause+0xce>
 8003c24:	2202      	movs	r2, #2
 8003c26:	611a      	str	r2, [r3, #16]
 8003c28:	f44f 5180 	mov.w	r1, #4096	; 0x1000
 8003c2c:	f10d 0007 	add.w	r0, sp, #7
 8003c30:	f7ff fde4 	bl	80037fc <HAL_I2C_Mem_Write.part.0.constprop.0>
 8003c34:	2800      	cmp	r0, #0
 8003c36:	d0bf      	beq.n	8003bb8 <cs43l22_Pause+0xfc>
 8003c38:	6823      	ldr	r3, [r4, #0]
 8003c3a:	e7ab      	b.n	8003b94 <cs43l22_Pause+0xd8>
 8003c3c:	699a      	ldr	r2, [r3, #24]
 8003c3e:	6808      	ldr	r0, [r1, #0]
 8003c40:	695a      	ldr	r2, [r3, #20]
 8003c42:	0612      	lsls	r2, r2, #24
 8003c44:	d405      	bmi.n	8003c52 <cs43l22_Pause+0x196>
 8003c46:	680a      	ldr	r2, [r1, #0]
 8003c48:	1a12      	subs	r2, r2, r0
 8003c4a:	f5b2 5f80 	cmp.w	r2, #4096	; 0x1000
 8003c4e:	d9f7      	bls.n	8003c40 <cs43l22_Pause+0x184>
 8003c50:	e75e      	b.n	8003b10 <cs43l22_Pause+0x54>
 8003c52:	2204      	movs	r2, #4
 8003c54:	611a      	str	r2, [r3, #16]
 8003c56:	f44f 5180 	mov.w	r1, #4096	; 0x1000
 8003c5a:	f10d 0007 	add.w	r0, sp, #7
 8003c5e:	f7ff fdcd 	bl	80037fc <HAL_I2C_Mem_Write.part.0.constprop.0>
 8003c62:	6823      	ldr	r3, [r4, #0]
 8003c64:	2800      	cmp	r0, #0
 8003c66:	f43f af6b 	beq.w	8003b40 <cs43l22_Pause+0x84>
 8003c6a:	e756      	b.n	8003b1a <cs43l22_Pause+0x5e>
 8003c6c:	681a      	ldr	r2, [r3, #0]
 8003c6e:	f46f 6580 	mvn.w	r5, #1024	; 0x400
 8003c72:	f442 7200 	orr.w	r2, r2, #512	; 0x200
 8003c76:	2004      	movs	r0, #4
 8003c78:	2101      	movs	r1, #1
 8003c7a:	601a      	str	r2, [r3, #0]
 8003c7c:	615d      	str	r5, [r3, #20]
 8003c7e:	f884 0036 	strb.w	r0, [r4, #54]	; 0x36
 8003c82:	f884 1035 	strb.w	r1, [r4, #53]	; 0x35
 8003c86:	f894 2036 	ldrb.w	r2, [r4, #54]	; 0x36
 8003c8a:	e781      	b.n	8003b90 <cs43l22_Pause+0xd4>
 8003c8c:	681a      	ldr	r2, [r3, #0]
 8003c8e:	f442 7200 	orr.w	r2, r2, #512	; 0x200
 8003c92:	601a      	str	r2, [r3, #0]
 8003c94:	f46f 6080 	mvn.w	r0, #1024	; 0x400
 8003c98:	2104      	movs	r1, #4
 8003c9a:	2201      	movs	r2, #1
 8003c9c:	6158      	str	r0, [r3, #20]
 8003c9e:	f884 1036 	strb.w	r1, [r4, #54]	; 0x36
 8003ca2:	f884 2035 	strb.w	r2, [r4, #53]	; 0x35
 8003ca6:	f894 2036 	ldrb.w	r2, [r4, #54]	; 0x36
 8003caa:	f894 2036 	ldrb.w	r2, [r4, #54]	; 0x36
 8003cae:	e734      	b.n	8003b1a <cs43l22_Pause+0x5e>
 8003cb0:	f7ff f82c 	bl	8002d0c <I2Cx_Init.part.0>
 8003cb4:	6823      	ldr	r3, [r4, #0]
 8003cb6:	e743      	b.n	8003b40 <cs43l22_Pause+0x84>
 8003cb8:	f7ff f828 	bl	8002d0c <I2Cx_Init.part.0>
 8003cbc:	2000      	movs	r0, #0
 8003cbe:	b003      	add	sp, #12
 8003cc0:	bd30      	pop	{r4, r5, pc}
 8003cc2:	bf00      	nop
 8003cc4:	200005b0 	.word	0x200005b0
 8003cc8:	20002f54 	.word	0x20002f54

08003ccc <cs43l22_Resume>:
cs43l22_Resume():
 8003ccc:	b570      	push	{r4, r5, r6, lr}
 8003cce:	b082      	sub	sp, #8
 8003cd0:	2300      	movs	r3, #0
 8003cd2:	4ea7      	ldr	r6, [pc, #668]	; (8003f70 <cs43l22_Resume+0x2a4>)
 8003cd4:	4ca7      	ldr	r4, [pc, #668]	; (8003f74 <cs43l22_Resume+0x2a8>)
 8003cd6:	9301      	str	r3, [sp, #4]
 8003cd8:	7832      	ldrb	r2, [r6, #0]
 8003cda:	f894 3035 	ldrb.w	r3, [r4, #53]	; 0x35
 8003cde:	f88d 2003 	strb.w	r2, [sp, #3]
 8003ce2:	2b01      	cmp	r3, #1
 8003ce4:	b2c5      	uxtb	r5, r0
 8003ce6:	d123      	bne.n	8003d30 <cs43l22_Resume+0x64>
 8003ce8:	6822      	ldr	r2, [r4, #0]
 8003cea:	b2d9      	uxtb	r1, r3
 8003cec:	6993      	ldr	r3, [r2, #24]
 8003cee:	f013 0302 	ands.w	r3, r3, #2
 8003cf2:	d11e      	bne.n	8003d32 <cs43l22_Resume+0x66>
 8003cf4:	f894 0034 	ldrb.w	r0, [r4, #52]	; 0x34
 8003cf8:	2801      	cmp	r0, #1
 8003cfa:	d01a      	beq.n	8003d32 <cs43l22_Resume+0x66>
 8003cfc:	f884 1034 	strb.w	r1, [r4, #52]	; 0x34
 8003d00:	2132      	movs	r1, #50	; 0x32
 8003d02:	f884 1035 	strb.w	r1, [r4, #53]	; 0x35
 8003d06:	f884 3036 	strb.w	r3, [r4, #54]	; 0x36
 8003d0a:	6813      	ldr	r3, [r2, #0]
 8003d0c:	499a      	ldr	r1, [pc, #616]	; (8003f78 <cs43l22_Resume+0x2ac>)
 8003d0e:	f443 7380 	orr.w	r3, r3, #256	; 0x100
 8003d12:	6013      	str	r3, [r2, #0]
 8003d14:	6808      	ldr	r0, [r1, #0]
 8003d16:	6953      	ldr	r3, [r2, #20]
 8003d18:	07db      	lsls	r3, r3, #31
 8003d1a:	f100 80a5 	bmi.w	8003e68 <cs43l22_Resume+0x19c>
 8003d1e:	680b      	ldr	r3, [r1, #0]
 8003d20:	1a1b      	subs	r3, r3, r0
 8003d22:	f5b3 5f80 	cmp.w	r3, #4096	; 0x1000
 8003d26:	d9f6      	bls.n	8003d16 <cs43l22_Resume+0x4a>
 8003d28:	2301      	movs	r3, #1
 8003d2a:	f884 3035 	strb.w	r3, [r4, #53]	; 0x35
 8003d2e:	e154      	b.n	8003fda <cs43l22_Resume+0x30e>
 8003d30:	6822      	ldr	r2, [r4, #0]
 8003d32:	2302      	movs	r3, #2
 8003d34:	f884 3035 	strb.w	r3, [r4, #53]	; 0x35
 8003d38:	6811      	ldr	r1, [r2, #0]
 8003d3a:	2300      	movs	r3, #0
 8003d3c:	f021 0101 	bic.w	r1, r1, #1
 8003d40:	6011      	str	r1, [r2, #0]
 8003d42:	f884 3036 	strb.w	r3, [r4, #54]	; 0x36
 8003d46:	f884 3035 	strb.w	r3, [r4, #53]	; 0x35
 8003d4a:	f884 3034 	strb.w	r3, [r4, #52]	; 0x34
 8003d4e:	f894 3035 	ldrb.w	r3, [r4, #53]	; 0x35
 8003d52:	2b00      	cmp	r3, #0
 8003d54:	f000 814d 	beq.w	8003ff2 <cs43l22_Resume+0x326>
 8003d58:	2300      	movs	r3, #0
 8003d5a:	9301      	str	r3, [sp, #4]
 8003d5c:	9b01      	ldr	r3, [sp, #4]
 8003d5e:	2bfe      	cmp	r3, #254	; 0xfe
 8003d60:	d805      	bhi.n	8003d6e <cs43l22_Resume+0xa2>
 8003d62:	9b01      	ldr	r3, [sp, #4]
 8003d64:	3301      	adds	r3, #1
 8003d66:	9301      	str	r3, [sp, #4]
 8003d68:	9b01      	ldr	r3, [sp, #4]
 8003d6a:	2bfe      	cmp	r3, #254	; 0xfe
 8003d6c:	d9f9      	bls.n	8003d62 <cs43l22_Resume+0x96>
 8003d6e:	7831      	ldrb	r1, [r6, #0]
 8003d70:	f894 3035 	ldrb.w	r3, [r4, #53]	; 0x35
 8003d74:	f88d 1003 	strb.w	r1, [sp, #3]
 8003d78:	2b01      	cmp	r3, #1
 8003d7a:	b2d9      	uxtb	r1, r3
 8003d7c:	d121      	bne.n	8003dc2 <cs43l22_Resume+0xf6>
 8003d7e:	6993      	ldr	r3, [r2, #24]
 8003d80:	f013 0302 	ands.w	r3, r3, #2
 8003d84:	d11d      	bne.n	8003dc2 <cs43l22_Resume+0xf6>
 8003d86:	f894 0034 	ldrb.w	r0, [r4, #52]	; 0x34
 8003d8a:	2801      	cmp	r0, #1
 8003d8c:	d019      	beq.n	8003dc2 <cs43l22_Resume+0xf6>
 8003d8e:	2032      	movs	r0, #50	; 0x32
 8003d90:	f884 0035 	strb.w	r0, [r4, #53]	; 0x35
 8003d94:	f884 1034 	strb.w	r1, [r4, #52]	; 0x34
 8003d98:	f884 3036 	strb.w	r3, [r4, #54]	; 0x36
 8003d9c:	6813      	ldr	r3, [r2, #0]
 8003d9e:	4976      	ldr	r1, [pc, #472]	; (8003f78 <cs43l22_Resume+0x2ac>)
 8003da0:	f443 7380 	orr.w	r3, r3, #256	; 0x100
 8003da4:	6013      	str	r3, [r2, #0]
 8003da6:	6808      	ldr	r0, [r1, #0]
 8003da8:	6953      	ldr	r3, [r2, #20]
 8003daa:	07db      	lsls	r3, r3, #31
 8003dac:	d471      	bmi.n	8003e92 <cs43l22_Resume+0x1c6>
 8003dae:	680b      	ldr	r3, [r1, #0]
 8003db0:	1a1b      	subs	r3, r3, r0
 8003db2:	f5b3 5f80 	cmp.w	r3, #4096	; 0x1000
 8003db6:	d9f7      	bls.n	8003da8 <cs43l22_Resume+0xdc>
 8003db8:	2301      	movs	r3, #1
 8003dba:	f884 3035 	strb.w	r3, [r4, #53]	; 0x35
 8003dbe:	f894 3036 	ldrb.w	r3, [r4, #54]	; 0x36
 8003dc2:	2302      	movs	r3, #2
 8003dc4:	f884 3035 	strb.w	r3, [r4, #53]	; 0x35
 8003dc8:	6811      	ldr	r1, [r2, #0]
 8003dca:	2300      	movs	r3, #0
 8003dcc:	f021 0101 	bic.w	r1, r1, #1
 8003dd0:	6011      	str	r1, [r2, #0]
 8003dd2:	f884 3036 	strb.w	r3, [r4, #54]	; 0x36
 8003dd6:	f884 3035 	strb.w	r3, [r4, #53]	; 0x35
 8003dda:	f894 1035 	ldrb.w	r1, [r4, #53]	; 0x35
 8003dde:	f884 3034 	strb.w	r3, [r4, #52]	; 0x34
 8003de2:	2900      	cmp	r1, #0
 8003de4:	f000 80fc 	beq.w	8003fe0 <cs43l22_Resume+0x314>
 8003de8:	f894 3035 	ldrb.w	r3, [r4, #53]	; 0x35
 8003dec:	219e      	movs	r1, #158	; 0x9e
 8003dee:	2b01      	cmp	r3, #1
 8003df0:	f88d 1003 	strb.w	r1, [sp, #3]
 8003df4:	b2d9      	uxtb	r1, r3
 8003df6:	d121      	bne.n	8003e3c <cs43l22_Resume+0x170>
 8003df8:	6993      	ldr	r3, [r2, #24]
 8003dfa:	f013 0302 	ands.w	r3, r3, #2
 8003dfe:	d11d      	bne.n	8003e3c <cs43l22_Resume+0x170>
 8003e00:	f894 0034 	ldrb.w	r0, [r4, #52]	; 0x34
 8003e04:	2801      	cmp	r0, #1
 8003e06:	d019      	beq.n	8003e3c <cs43l22_Resume+0x170>
 8003e08:	2032      	movs	r0, #50	; 0x32
 8003e0a:	f884 0035 	strb.w	r0, [r4, #53]	; 0x35
 8003e0e:	f884 1034 	strb.w	r1, [r4, #52]	; 0x34
 8003e12:	f884 3036 	strb.w	r3, [r4, #54]	; 0x36
 8003e16:	6813      	ldr	r3, [r2, #0]
 8003e18:	4957      	ldr	r1, [pc, #348]	; (8003f78 <cs43l22_Resume+0x2ac>)
 8003e1a:	f443 7380 	orr.w	r3, r3, #256	; 0x100
 8003e1e:	6013      	str	r3, [r2, #0]
 8003e20:	6808      	ldr	r0, [r1, #0]
 8003e22:	6953      	ldr	r3, [r2, #20]
 8003e24:	07de      	lsls	r6, r3, #31
 8003e26:	d448      	bmi.n	8003eba <cs43l22_Resume+0x1ee>
 8003e28:	680b      	ldr	r3, [r1, #0]
 8003e2a:	1a1b      	subs	r3, r3, r0
 8003e2c:	f5b3 5f80 	cmp.w	r3, #4096	; 0x1000
 8003e30:	d9f7      	bls.n	8003e22 <cs43l22_Resume+0x156>
 8003e32:	2301      	movs	r3, #1
 8003e34:	f884 3035 	strb.w	r3, [r4, #53]	; 0x35
 8003e38:	f894 3036 	ldrb.w	r3, [r4, #54]	; 0x36
 8003e3c:	2302      	movs	r3, #2
 8003e3e:	f884 3035 	strb.w	r3, [r4, #53]	; 0x35
 8003e42:	6811      	ldr	r1, [r2, #0]
 8003e44:	2300      	movs	r3, #0
 8003e46:	f021 0101 	bic.w	r1, r1, #1
 8003e4a:	6011      	str	r1, [r2, #0]
 8003e4c:	f884 3036 	strb.w	r3, [r4, #54]	; 0x36
 8003e50:	f884 3035 	strb.w	r3, [r4, #53]	; 0x35
 8003e54:	f894 2035 	ldrb.w	r2, [r4, #53]	; 0x35
 8003e58:	f884 3034 	strb.w	r3, [r4, #52]	; 0x34
 8003e5c:	2a00      	cmp	r2, #0
 8003e5e:	f000 80c3 	beq.w	8003fe8 <cs43l22_Resume+0x31c>
 8003e62:	2000      	movs	r0, #0
 8003e64:	b002      	add	sp, #8
 8003e66:	bd70      	pop	{r4, r5, r6, pc}
 8003e68:	f005 03fe 	and.w	r3, r5, #254	; 0xfe
 8003e6c:	6113      	str	r3, [r2, #16]
 8003e6e:	6808      	ldr	r0, [r1, #0]
 8003e70:	6953      	ldr	r3, [r2, #20]
 8003e72:	f013 0f02 	tst.w	r3, #2
 8003e76:	6953      	ldr	r3, [r2, #20]
 8003e78:	d162      	bne.n	8003f40 <cs43l22_Resume+0x274>
 8003e7a:	055b      	lsls	r3, r3, #21
 8003e7c:	f100 809e 	bmi.w	8003fbc <cs43l22_Resume+0x2f0>
 8003e80:	680b      	ldr	r3, [r1, #0]
 8003e82:	1a1b      	subs	r3, r3, r0
 8003e84:	f5b3 5f80 	cmp.w	r3, #4096	; 0x1000
 8003e88:	d9f2      	bls.n	8003e70 <cs43l22_Resume+0x1a4>
 8003e8a:	2301      	movs	r3, #1
 8003e8c:	f884 3035 	strb.w	r3, [r4, #53]	; 0x35
 8003e90:	e0a1      	b.n	8003fd6 <cs43l22_Resume+0x30a>
 8003e92:	f005 03fe 	and.w	r3, r5, #254	; 0xfe
 8003e96:	6113      	str	r3, [r2, #16]
 8003e98:	6808      	ldr	r0, [r1, #0]
 8003e9a:	6953      	ldr	r3, [r2, #20]
 8003e9c:	f013 0f02 	tst.w	r3, #2
 8003ea0:	6953      	ldr	r3, [r2, #20]
 8003ea2:	d11e      	bne.n	8003ee2 <cs43l22_Resume+0x216>
 8003ea4:	055e      	lsls	r6, r3, #21
 8003ea6:	d469      	bmi.n	8003f7c <cs43l22_Resume+0x2b0>
 8003ea8:	680b      	ldr	r3, [r1, #0]
 8003eaa:	1a1b      	subs	r3, r3, r0
 8003eac:	f5b3 5f80 	cmp.w	r3, #4096	; 0x1000
 8003eb0:	d9f3      	bls.n	8003e9a <cs43l22_Resume+0x1ce>
 8003eb2:	2301      	movs	r3, #1
 8003eb4:	f884 3035 	strb.w	r3, [r4, #53]	; 0x35
 8003eb8:	e06d      	b.n	8003f96 <cs43l22_Resume+0x2ca>
 8003eba:	f005 05fe 	and.w	r5, r5, #254	; 0xfe
 8003ebe:	6115      	str	r5, [r2, #16]
 8003ec0:	6808      	ldr	r0, [r1, #0]
 8003ec2:	6953      	ldr	r3, [r2, #20]
 8003ec4:	f013 0f02 	tst.w	r3, #2
 8003ec8:	6953      	ldr	r3, [r2, #20]
 8003eca:	d122      	bne.n	8003f12 <cs43l22_Resume+0x246>
 8003ecc:	055d      	lsls	r5, r3, #21
 8003ece:	d465      	bmi.n	8003f9c <cs43l22_Resume+0x2d0>
 8003ed0:	680b      	ldr	r3, [r1, #0]
 8003ed2:	1a1b      	subs	r3, r3, r0
 8003ed4:	f5b3 5f80 	cmp.w	r3, #4096	; 0x1000
 8003ed8:	d9f3      	bls.n	8003ec2 <cs43l22_Resume+0x1f6>
 8003eda:	2301      	movs	r3, #1
 8003edc:	f884 3035 	strb.w	r3, [r4, #53]	; 0x35
 8003ee0:	e069      	b.n	8003fb6 <cs43l22_Resume+0x2ea>
 8003ee2:	6993      	ldr	r3, [r2, #24]
 8003ee4:	6808      	ldr	r0, [r1, #0]
 8003ee6:	6953      	ldr	r3, [r2, #20]
 8003ee8:	061b      	lsls	r3, r3, #24
 8003eea:	d405      	bmi.n	8003ef8 <cs43l22_Resume+0x22c>
 8003eec:	680b      	ldr	r3, [r1, #0]
 8003eee:	1a1b      	subs	r3, r3, r0
 8003ef0:	f5b3 5f80 	cmp.w	r3, #4096	; 0x1000
 8003ef4:	d9f7      	bls.n	8003ee6 <cs43l22_Resume+0x21a>
 8003ef6:	e75f      	b.n	8003db8 <cs43l22_Resume+0xec>
 8003ef8:	2304      	movs	r3, #4
 8003efa:	6113      	str	r3, [r2, #16]
 8003efc:	f44f 5180 	mov.w	r1, #4096	; 0x1000
 8003f00:	f10d 0003 	add.w	r0, sp, #3
 8003f04:	f7ff fc7a 	bl	80037fc <HAL_I2C_Mem_Write.part.0.constprop.0>
 8003f08:	6822      	ldr	r2, [r4, #0]
 8003f0a:	2800      	cmp	r0, #0
 8003f0c:	f43f af6c 	beq.w	8003de8 <cs43l22_Resume+0x11c>
 8003f10:	e757      	b.n	8003dc2 <cs43l22_Resume+0xf6>
 8003f12:	6993      	ldr	r3, [r2, #24]
 8003f14:	6808      	ldr	r0, [r1, #0]
 8003f16:	6953      	ldr	r3, [r2, #20]
 8003f18:	061b      	lsls	r3, r3, #24
 8003f1a:	d405      	bmi.n	8003f28 <cs43l22_Resume+0x25c>
 8003f1c:	680b      	ldr	r3, [r1, #0]
 8003f1e:	1a1b      	subs	r3, r3, r0
 8003f20:	f5b3 5f80 	cmp.w	r3, #4096	; 0x1000
 8003f24:	d9f7      	bls.n	8003f16 <cs43l22_Resume+0x24a>
 8003f26:	e784      	b.n	8003e32 <cs43l22_Resume+0x166>
 8003f28:	2302      	movs	r3, #2
 8003f2a:	6113      	str	r3, [r2, #16]
 8003f2c:	f44f 5180 	mov.w	r1, #4096	; 0x1000
 8003f30:	f10d 0003 	add.w	r0, sp, #3
 8003f34:	f7ff fc62 	bl	80037fc <HAL_I2C_Mem_Write.part.0.constprop.0>
 8003f38:	2800      	cmp	r0, #0
 8003f3a:	d092      	beq.n	8003e62 <cs43l22_Resume+0x196>
 8003f3c:	6822      	ldr	r2, [r4, #0]
 8003f3e:	e77d      	b.n	8003e3c <cs43l22_Resume+0x170>
 8003f40:	6993      	ldr	r3, [r2, #24]
 8003f42:	6808      	ldr	r0, [r1, #0]
 8003f44:	6953      	ldr	r3, [r2, #20]
 8003f46:	061b      	lsls	r3, r3, #24
 8003f48:	d405      	bmi.n	8003f56 <cs43l22_Resume+0x28a>
 8003f4a:	680b      	ldr	r3, [r1, #0]
 8003f4c:	1a1b      	subs	r3, r3, r0
 8003f4e:	f5b3 5f80 	cmp.w	r3, #4096	; 0x1000
 8003f52:	d9f7      	bls.n	8003f44 <cs43l22_Resume+0x278>
 8003f54:	e6e8      	b.n	8003d28 <cs43l22_Resume+0x5c>
 8003f56:	2304      	movs	r3, #4
 8003f58:	6113      	str	r3, [r2, #16]
 8003f5a:	f44f 5180 	mov.w	r1, #4096	; 0x1000
 8003f5e:	f10d 0003 	add.w	r0, sp, #3
 8003f62:	f7ff fc4b 	bl	80037fc <HAL_I2C_Mem_Write.part.0.constprop.0>
 8003f66:	6822      	ldr	r2, [r4, #0]
 8003f68:	2800      	cmp	r0, #0
 8003f6a:	f43f aef5 	beq.w	8003d58 <cs43l22_Resume+0x8c>
 8003f6e:	e6e0      	b.n	8003d32 <cs43l22_Resume+0x66>
 8003f70:	20000638 	.word	0x20000638
 8003f74:	200005b0 	.word	0x200005b0
 8003f78:	20002f54 	.word	0x20002f54
 8003f7c:	6813      	ldr	r3, [r2, #0]
 8003f7e:	f443 7300 	orr.w	r3, r3, #512	; 0x200
 8003f82:	6013      	str	r3, [r2, #0]
 8003f84:	f46f 6080 	mvn.w	r0, #1024	; 0x400
 8003f88:	2104      	movs	r1, #4
 8003f8a:	2301      	movs	r3, #1
 8003f8c:	6150      	str	r0, [r2, #20]
 8003f8e:	f884 1036 	strb.w	r1, [r4, #54]	; 0x36
 8003f92:	f884 3035 	strb.w	r3, [r4, #53]	; 0x35
 8003f96:	f894 3036 	ldrb.w	r3, [r4, #54]	; 0x36
 8003f9a:	e710      	b.n	8003dbe <cs43l22_Resume+0xf2>
 8003f9c:	6813      	ldr	r3, [r2, #0]
 8003f9e:	f46f 6580 	mvn.w	r5, #1024	; 0x400
 8003fa2:	f443 7300 	orr.w	r3, r3, #512	; 0x200
 8003fa6:	2004      	movs	r0, #4
 8003fa8:	2101      	movs	r1, #1
 8003faa:	6013      	str	r3, [r2, #0]
 8003fac:	6155      	str	r5, [r2, #20]
 8003fae:	f884 0036 	strb.w	r0, [r4, #54]	; 0x36
 8003fb2:	f884 1035 	strb.w	r1, [r4, #53]	; 0x35
 8003fb6:	f894 3036 	ldrb.w	r3, [r4, #54]	; 0x36
 8003fba:	e73d      	b.n	8003e38 <cs43l22_Resume+0x16c>
 8003fbc:	6813      	ldr	r3, [r2, #0]
 8003fbe:	f46f 6180 	mvn.w	r1, #1024	; 0x400
 8003fc2:	f443 7300 	orr.w	r3, r3, #512	; 0x200
 8003fc6:	6013      	str	r3, [r2, #0]
 8003fc8:	6151      	str	r1, [r2, #20]
 8003fca:	2301      	movs	r3, #1
 8003fcc:	2104      	movs	r1, #4
 8003fce:	f884 1036 	strb.w	r1, [r4, #54]	; 0x36
 8003fd2:	f884 3035 	strb.w	r3, [r4, #53]	; 0x35
 8003fd6:	f894 3036 	ldrb.w	r3, [r4, #54]	; 0x36
 8003fda:	f894 3036 	ldrb.w	r3, [r4, #54]	; 0x36
 8003fde:	e6a8      	b.n	8003d32 <cs43l22_Resume+0x66>
 8003fe0:	f7fe fe94 	bl	8002d0c <I2Cx_Init.part.0>
 8003fe4:	6822      	ldr	r2, [r4, #0]
 8003fe6:	e6ff      	b.n	8003de8 <cs43l22_Resume+0x11c>
 8003fe8:	f7fe fe90 	bl	8002d0c <I2Cx_Init.part.0>
 8003fec:	2000      	movs	r0, #0
 8003fee:	b002      	add	sp, #8
 8003ff0:	bd70      	pop	{r4, r5, r6, pc}
 8003ff2:	f7fe fe8b 	bl	8002d0c <I2Cx_Init.part.0>
 8003ff6:	6822      	ldr	r2, [r4, #0]
 8003ff8:	e6ae      	b.n	8003d58 <cs43l22_Resume+0x8c>
 8003ffa:	bf00      	nop

08003ffc <cs43l22_Stop>:
cs43l22_Stop():
 8003ffc:	b530      	push	{r4, r5, lr}
 8003ffe:	4c82      	ldr	r4, [pc, #520]	; (8004208 <cs43l22_Stop+0x20c>)
 8004000:	f894 3035 	ldrb.w	r3, [r4, #53]	; 0x35
 8004004:	b083      	sub	sp, #12
 8004006:	22ff      	movs	r2, #255	; 0xff
 8004008:	2b01      	cmp	r3, #1
 800400a:	f88d 2007 	strb.w	r2, [sp, #7]
 800400e:	b2c5      	uxtb	r5, r0
 8004010:	d122      	bne.n	8004058 <cs43l22_Stop+0x5c>
 8004012:	b2d9      	uxtb	r1, r3
 8004014:	6823      	ldr	r3, [r4, #0]
 8004016:	699a      	ldr	r2, [r3, #24]
 8004018:	f012 0202 	ands.w	r2, r2, #2
 800401c:	d11d      	bne.n	800405a <cs43l22_Stop+0x5e>
 800401e:	f894 0034 	ldrb.w	r0, [r4, #52]	; 0x34
 8004022:	2801      	cmp	r0, #1
 8004024:	d019      	beq.n	800405a <cs43l22_Stop+0x5e>
 8004026:	2032      	movs	r0, #50	; 0x32
 8004028:	f884 0035 	strb.w	r0, [r4, #53]	; 0x35
 800402c:	f884 1034 	strb.w	r1, [r4, #52]	; 0x34
 8004030:	f884 2036 	strb.w	r2, [r4, #54]	; 0x36
 8004034:	681a      	ldr	r2, [r3, #0]
 8004036:	4975      	ldr	r1, [pc, #468]	; (800420c <cs43l22_Stop+0x210>)
 8004038:	f442 7280 	orr.w	r2, r2, #256	; 0x100
 800403c:	601a      	str	r2, [r3, #0]
 800403e:	6808      	ldr	r0, [r1, #0]
 8004040:	695a      	ldr	r2, [r3, #20]
 8004042:	07d2      	lsls	r2, r2, #31
 8004044:	d45f      	bmi.n	8004106 <cs43l22_Stop+0x10a>
 8004046:	680a      	ldr	r2, [r1, #0]
 8004048:	1a12      	subs	r2, r2, r0
 800404a:	f5b2 5f80 	cmp.w	r2, #4096	; 0x1000
 800404e:	d9f7      	bls.n	8004040 <cs43l22_Stop+0x44>
 8004050:	2201      	movs	r2, #1
 8004052:	f884 2035 	strb.w	r2, [r4, #53]	; 0x35
 8004056:	e0cc      	b.n	80041f2 <cs43l22_Stop+0x1f6>
 8004058:	6823      	ldr	r3, [r4, #0]
 800405a:	2202      	movs	r2, #2
 800405c:	f884 2035 	strb.w	r2, [r4, #53]	; 0x35
 8004060:	6819      	ldr	r1, [r3, #0]
 8004062:	2200      	movs	r2, #0
 8004064:	f021 0101 	bic.w	r1, r1, #1
 8004068:	6019      	str	r1, [r3, #0]
 800406a:	f884 2036 	strb.w	r2, [r4, #54]	; 0x36
 800406e:	f884 2035 	strb.w	r2, [r4, #53]	; 0x35
 8004072:	f894 1035 	ldrb.w	r1, [r4, #53]	; 0x35
 8004076:	f884 2034 	strb.w	r2, [r4, #52]	; 0x34
 800407a:	2900      	cmp	r1, #0
 800407c:	f000 80bc 	beq.w	80041f8 <cs43l22_Stop+0x1fc>
 8004080:	f894 2035 	ldrb.w	r2, [r4, #53]	; 0x35
 8004084:	219f      	movs	r1, #159	; 0x9f
 8004086:	2a01      	cmp	r2, #1
 8004088:	f88d 1007 	strb.w	r1, [sp, #7]
 800408c:	b2d1      	uxtb	r1, r2
 800408e:	d121      	bne.n	80040d4 <cs43l22_Stop+0xd8>
 8004090:	699a      	ldr	r2, [r3, #24]
 8004092:	f012 0202 	ands.w	r2, r2, #2
 8004096:	d11d      	bne.n	80040d4 <cs43l22_Stop+0xd8>
 8004098:	f894 0034 	ldrb.w	r0, [r4, #52]	; 0x34
 800409c:	2801      	cmp	r0, #1
 800409e:	d019      	beq.n	80040d4 <cs43l22_Stop+0xd8>
 80040a0:	2032      	movs	r0, #50	; 0x32
 80040a2:	f884 0035 	strb.w	r0, [r4, #53]	; 0x35
 80040a6:	f884 1034 	strb.w	r1, [r4, #52]	; 0x34
 80040aa:	f884 2036 	strb.w	r2, [r4, #54]	; 0x36
 80040ae:	681a      	ldr	r2, [r3, #0]
 80040b0:	4956      	ldr	r1, [pc, #344]	; (800420c <cs43l22_Stop+0x210>)
 80040b2:	f442 7280 	orr.w	r2, r2, #256	; 0x100
 80040b6:	601a      	str	r2, [r3, #0]
 80040b8:	6808      	ldr	r0, [r1, #0]
 80040ba:	695a      	ldr	r2, [r3, #20]
 80040bc:	07d2      	lsls	r2, r2, #31
 80040be:	d436      	bmi.n	800412e <cs43l22_Stop+0x132>
 80040c0:	680a      	ldr	r2, [r1, #0]
 80040c2:	1a12      	subs	r2, r2, r0
 80040c4:	f5b2 5f80 	cmp.w	r2, #4096	; 0x1000
 80040c8:	d9f7      	bls.n	80040ba <cs43l22_Stop+0xbe>
 80040ca:	2201      	movs	r2, #1
 80040cc:	f884 2035 	strb.w	r2, [r4, #53]	; 0x35
 80040d0:	f894 2036 	ldrb.w	r2, [r4, #54]	; 0x36
 80040d4:	2202      	movs	r2, #2
 80040d6:	f884 2035 	strb.w	r2, [r4, #53]	; 0x35
 80040da:	6819      	ldr	r1, [r3, #0]
 80040dc:	2200      	movs	r2, #0
 80040de:	f021 0101 	bic.w	r1, r1, #1
 80040e2:	6019      	str	r1, [r3, #0]
 80040e4:	f884 2036 	strb.w	r2, [r4, #54]	; 0x36
 80040e8:	f884 2035 	strb.w	r2, [r4, #53]	; 0x35
 80040ec:	f894 3035 	ldrb.w	r3, [r4, #53]	; 0x35
 80040f0:	f884 2034 	strb.w	r2, [r4, #52]	; 0x34
 80040f4:	2b00      	cmp	r3, #0
 80040f6:	f000 8083 	beq.w	8004200 <cs43l22_Stop+0x204>
 80040fa:	4b45      	ldr	r3, [pc, #276]	; (8004210 <cs43l22_Stop+0x214>)
 80040fc:	2201      	movs	r2, #1
 80040fe:	2000      	movs	r0, #0
 8004100:	701a      	strb	r2, [r3, #0]
 8004102:	b003      	add	sp, #12
 8004104:	bd30      	pop	{r4, r5, pc}
 8004106:	f005 02fe 	and.w	r2, r5, #254	; 0xfe
 800410a:	611a      	str	r2, [r3, #16]
 800410c:	6808      	ldr	r0, [r1, #0]
 800410e:	695a      	ldr	r2, [r3, #20]
 8004110:	f012 0f02 	tst.w	r2, #2
 8004114:	695a      	ldr	r2, [r3, #20]
 8004116:	d135      	bne.n	8004184 <cs43l22_Stop+0x188>
 8004118:	0552      	lsls	r2, r2, #21
 800411a:	d45b      	bmi.n	80041d4 <cs43l22_Stop+0x1d8>
 800411c:	680a      	ldr	r2, [r1, #0]
 800411e:	1a12      	subs	r2, r2, r0
 8004120:	f5b2 5f80 	cmp.w	r2, #4096	; 0x1000
 8004124:	d9f3      	bls.n	800410e <cs43l22_Stop+0x112>
 8004126:	2201      	movs	r2, #1
 8004128:	f884 2035 	strb.w	r2, [r4, #53]	; 0x35
 800412c:	e05f      	b.n	80041ee <cs43l22_Stop+0x1f2>
 800412e:	f005 05fe 	and.w	r5, r5, #254	; 0xfe
 8004132:	611d      	str	r5, [r3, #16]
 8004134:	6808      	ldr	r0, [r1, #0]
 8004136:	695a      	ldr	r2, [r3, #20]
 8004138:	f012 0f02 	tst.w	r2, #2
 800413c:	695a      	ldr	r2, [r3, #20]
 800413e:	d10a      	bne.n	8004156 <cs43l22_Stop+0x15a>
 8004140:	0555      	lsls	r5, r2, #21
 8004142:	d437      	bmi.n	80041b4 <cs43l22_Stop+0x1b8>
 8004144:	680a      	ldr	r2, [r1, #0]
 8004146:	1a12      	subs	r2, r2, r0
 8004148:	f5b2 5f80 	cmp.w	r2, #4096	; 0x1000
 800414c:	d9f3      	bls.n	8004136 <cs43l22_Stop+0x13a>
 800414e:	2201      	movs	r2, #1
 8004150:	f884 2035 	strb.w	r2, [r4, #53]	; 0x35
 8004154:	e03b      	b.n	80041ce <cs43l22_Stop+0x1d2>
 8004156:	699a      	ldr	r2, [r3, #24]
 8004158:	6808      	ldr	r0, [r1, #0]
 800415a:	695a      	ldr	r2, [r3, #20]
 800415c:	0612      	lsls	r2, r2, #24
 800415e:	d405      	bmi.n	800416c <cs43l22_Stop+0x170>
 8004160:	680a      	ldr	r2, [r1, #0]
 8004162:	1a12      	subs	r2, r2, r0
 8004164:	f5b2 5f80 	cmp.w	r2, #4096	; 0x1000
 8004168:	d9f7      	bls.n	800415a <cs43l22_Stop+0x15e>
 800416a:	e7ae      	b.n	80040ca <cs43l22_Stop+0xce>
 800416c:	2202      	movs	r2, #2
 800416e:	611a      	str	r2, [r3, #16]
 8004170:	f44f 5180 	mov.w	r1, #4096	; 0x1000
 8004174:	f10d 0007 	add.w	r0, sp, #7
 8004178:	f7ff fb40 	bl	80037fc <HAL_I2C_Mem_Write.part.0.constprop.0>
 800417c:	2800      	cmp	r0, #0
 800417e:	d0bc      	beq.n	80040fa <cs43l22_Stop+0xfe>
 8004180:	6823      	ldr	r3, [r4, #0]
 8004182:	e7a7      	b.n	80040d4 <cs43l22_Stop+0xd8>
 8004184:	699a      	ldr	r2, [r3, #24]
 8004186:	6808      	ldr	r0, [r1, #0]
 8004188:	695a      	ldr	r2, [r3, #20]
 800418a:	0612      	lsls	r2, r2, #24
 800418c:	d405      	bmi.n	800419a <cs43l22_Stop+0x19e>
 800418e:	680a      	ldr	r2, [r1, #0]
 8004190:	1a12      	subs	r2, r2, r0
 8004192:	f5b2 5f80 	cmp.w	r2, #4096	; 0x1000
 8004196:	d9f7      	bls.n	8004188 <cs43l22_Stop+0x18c>
 8004198:	e75a      	b.n	8004050 <cs43l22_Stop+0x54>
 800419a:	2204      	movs	r2, #4
 800419c:	611a      	str	r2, [r3, #16]
 800419e:	f44f 5180 	mov.w	r1, #4096	; 0x1000
 80041a2:	f10d 0007 	add.w	r0, sp, #7
 80041a6:	f7ff fb29 	bl	80037fc <HAL_I2C_Mem_Write.part.0.constprop.0>
 80041aa:	6823      	ldr	r3, [r4, #0]
 80041ac:	2800      	cmp	r0, #0
 80041ae:	f43f af67 	beq.w	8004080 <cs43l22_Stop+0x84>
 80041b2:	e752      	b.n	800405a <cs43l22_Stop+0x5e>
 80041b4:	681a      	ldr	r2, [r3, #0]
 80041b6:	f46f 6580 	mvn.w	r5, #1024	; 0x400
 80041ba:	f442 7200 	orr.w	r2, r2, #512	; 0x200
 80041be:	2004      	movs	r0, #4
 80041c0:	2101      	movs	r1, #1
 80041c2:	601a      	str	r2, [r3, #0]
 80041c4:	615d      	str	r5, [r3, #20]
 80041c6:	f884 0036 	strb.w	r0, [r4, #54]	; 0x36
 80041ca:	f884 1035 	strb.w	r1, [r4, #53]	; 0x35
 80041ce:	f894 2036 	ldrb.w	r2, [r4, #54]	; 0x36
 80041d2:	e77d      	b.n	80040d0 <cs43l22_Stop+0xd4>
 80041d4:	681a      	ldr	r2, [r3, #0]
 80041d6:	f442 7200 	orr.w	r2, r2, #512	; 0x200
 80041da:	601a      	str	r2, [r3, #0]
 80041dc:	f46f 6080 	mvn.w	r0, #1024	; 0x400
 80041e0:	2104      	movs	r1, #4
 80041e2:	2201      	movs	r2, #1
 80041e4:	6158      	str	r0, [r3, #20]
 80041e6:	f884 1036 	strb.w	r1, [r4, #54]	; 0x36
 80041ea:	f884 2035 	strb.w	r2, [r4, #53]	; 0x35
 80041ee:	f894 2036 	ldrb.w	r2, [r4, #54]	; 0x36
 80041f2:	f894 2036 	ldrb.w	r2, [r4, #54]	; 0x36
 80041f6:	e730      	b.n	800405a <cs43l22_Stop+0x5e>
 80041f8:	f7fe fd88 	bl	8002d0c <I2Cx_Init.part.0>
 80041fc:	6823      	ldr	r3, [r4, #0]
 80041fe:	e73f      	b.n	8004080 <cs43l22_Stop+0x84>
 8004200:	f7fe fd84 	bl	8002d0c <I2Cx_Init.part.0>
 8004204:	e779      	b.n	80040fa <cs43l22_Stop+0xfe>
 8004206:	bf00      	nop
 8004208:	200005b0 	.word	0x200005b0
 800420c:	20002f54 	.word	0x20002f54
 8004210:	20000001 	.word	0x20000001

08004214 <I2Cx_WriteData>:
I2Cx_WriteData():
 8004214:	b570      	push	{r4, r5, r6, lr}
 8004216:	4c3f      	ldr	r4, [pc, #252]	; (8004314 <I2Cx_WriteData+0x100>)
 8004218:	f894 3035 	ldrb.w	r3, [r4, #53]	; 0x35
 800421c:	b082      	sub	sp, #8
 800421e:	2b01      	cmp	r3, #1
 8004220:	f88d 2007 	strb.w	r2, [sp, #7]
 8004224:	d12b      	bne.n	800427e <I2Cx_WriteData+0x6a>
 8004226:	b2dd      	uxtb	r5, r3
 8004228:	6823      	ldr	r3, [r4, #0]
 800422a:	699a      	ldr	r2, [r3, #24]
 800422c:	f012 0202 	ands.w	r2, r2, #2
 8004230:	d126      	bne.n	8004280 <I2Cx_WriteData+0x6c>
 8004232:	f894 c034 	ldrb.w	ip, [r4, #52]	; 0x34
 8004236:	f1bc 0f01 	cmp.w	ip, #1
 800423a:	d021      	beq.n	8004280 <I2Cx_WriteData+0x6c>
 800423c:	f884 5034 	strb.w	r5, [r4, #52]	; 0x34
 8004240:	2532      	movs	r5, #50	; 0x32
 8004242:	f884 5035 	strb.w	r5, [r4, #53]	; 0x35
 8004246:	f884 2036 	strb.w	r2, [r4, #54]	; 0x36
 800424a:	681a      	ldr	r2, [r3, #0]
 800424c:	4d32      	ldr	r5, [pc, #200]	; (8004318 <I2Cx_WriteData+0x104>)
 800424e:	f442 7280 	orr.w	r2, r2, #256	; 0x100
 8004252:	601a      	str	r2, [r3, #0]
 8004254:	682e      	ldr	r6, [r5, #0]
 8004256:	695a      	ldr	r2, [r3, #20]
 8004258:	07d2      	lsls	r2, r2, #31
 800425a:	d425      	bmi.n	80042a8 <I2Cx_WriteData+0x94>
 800425c:	682a      	ldr	r2, [r5, #0]
 800425e:	1b92      	subs	r2, r2, r6
 8004260:	f5b2 5f80 	cmp.w	r2, #4096	; 0x1000
 8004264:	d9f7      	bls.n	8004256 <I2Cx_WriteData+0x42>
 8004266:	2201      	movs	r2, #1
 8004268:	f884 2035 	strb.w	r2, [r4, #53]	; 0x35
 800426c:	e04a      	b.n	8004304 <I2Cx_WriteData+0xf0>
 800426e:	6119      	str	r1, [r3, #16]
 8004270:	f10d 0007 	add.w	r0, sp, #7
 8004274:	f44f 5180 	mov.w	r1, #4096	; 0x1000
 8004278:	f7ff fac0 	bl	80037fc <HAL_I2C_Mem_Write.part.0.constprop.0>
 800427c:	b190      	cbz	r0, 80042a4 <I2Cx_WriteData+0x90>
 800427e:	6823      	ldr	r3, [r4, #0]
 8004280:	2202      	movs	r2, #2
 8004282:	f884 2035 	strb.w	r2, [r4, #53]	; 0x35
 8004286:	6819      	ldr	r1, [r3, #0]
 8004288:	2200      	movs	r2, #0
 800428a:	f021 0101 	bic.w	r1, r1, #1
 800428e:	6019      	str	r1, [r3, #0]
 8004290:	f884 2036 	strb.w	r2, [r4, #54]	; 0x36
 8004294:	f884 2035 	strb.w	r2, [r4, #53]	; 0x35
 8004298:	f894 3035 	ldrb.w	r3, [r4, #53]	; 0x35
 800429c:	f884 2034 	strb.w	r2, [r4, #52]	; 0x34
 80042a0:	2b00      	cmp	r3, #0
 80042a2:	d032      	beq.n	800430a <I2Cx_WriteData+0xf6>
 80042a4:	b002      	add	sp, #8
 80042a6:	bd70      	pop	{r4, r5, r6, pc}
 80042a8:	f000 00fe 	and.w	r0, r0, #254	; 0xfe
 80042ac:	6118      	str	r0, [r3, #16]
 80042ae:	6828      	ldr	r0, [r5, #0]
 80042b0:	695a      	ldr	r2, [r3, #20]
 80042b2:	f012 0f02 	tst.w	r2, #2
 80042b6:	695a      	ldr	r2, [r3, #20]
 80042b8:	d10a      	bne.n	80042d0 <I2Cx_WriteData+0xbc>
 80042ba:	0556      	lsls	r6, r2, #21
 80042bc:	d413      	bmi.n	80042e6 <I2Cx_WriteData+0xd2>
 80042be:	682a      	ldr	r2, [r5, #0]
 80042c0:	1a12      	subs	r2, r2, r0
 80042c2:	f5b2 5f80 	cmp.w	r2, #4096	; 0x1000
 80042c6:	d9f3      	bls.n	80042b0 <I2Cx_WriteData+0x9c>
 80042c8:	2201      	movs	r2, #1
 80042ca:	f884 2035 	strb.w	r2, [r4, #53]	; 0x35
 80042ce:	e017      	b.n	8004300 <I2Cx_WriteData+0xec>
 80042d0:	699a      	ldr	r2, [r3, #24]
 80042d2:	6828      	ldr	r0, [r5, #0]
 80042d4:	695a      	ldr	r2, [r3, #20]
 80042d6:	0612      	lsls	r2, r2, #24
 80042d8:	d4c9      	bmi.n	800426e <I2Cx_WriteData+0x5a>
 80042da:	682a      	ldr	r2, [r5, #0]
 80042dc:	1a12      	subs	r2, r2, r0
 80042de:	f5b2 5f80 	cmp.w	r2, #4096	; 0x1000
 80042e2:	d9f7      	bls.n	80042d4 <I2Cx_WriteData+0xc0>
 80042e4:	e7bf      	b.n	8004266 <I2Cx_WriteData+0x52>
 80042e6:	681a      	ldr	r2, [r3, #0]
 80042e8:	f46f 6580 	mvn.w	r5, #1024	; 0x400
 80042ec:	f442 7200 	orr.w	r2, r2, #512	; 0x200
 80042f0:	2004      	movs	r0, #4
 80042f2:	2101      	movs	r1, #1
 80042f4:	601a      	str	r2, [r3, #0]
 80042f6:	615d      	str	r5, [r3, #20]
 80042f8:	f884 0036 	strb.w	r0, [r4, #54]	; 0x36
 80042fc:	f884 1035 	strb.w	r1, [r4, #53]	; 0x35
 8004300:	f894 2036 	ldrb.w	r2, [r4, #54]	; 0x36
 8004304:	f894 2036 	ldrb.w	r2, [r4, #54]	; 0x36
 8004308:	e7ba      	b.n	8004280 <I2Cx_WriteData+0x6c>
 800430a:	f7fe fcff 	bl	8002d0c <I2Cx_Init.part.0>
 800430e:	b002      	add	sp, #8
 8004310:	bd70      	pop	{r4, r5, r6, pc}
 8004312:	bf00      	nop
 8004314:	200005b0 	.word	0x200005b0
 8004318:	20002f54 	.word	0x20002f54

0800431c <cs43l22_SetVolume>:
cs43l22_SetVolume():
 800431c:	b570      	push	{r4, r5, r6, lr}
 800431e:	2964      	cmp	r1, #100	; 0x64
 8004320:	b082      	sub	sp, #8
 8004322:	d850      	bhi.n	80043c6 <cs43l22_SetVolume+0xaa>
 8004324:	4b8c      	ldr	r3, [pc, #560]	; (8004558 <cs43l22_SetVolume+0x23c>)
 8004326:	ebc1 2101 	rsb	r1, r1, r1, lsl #8
 800432a:	fba3 3401 	umull	r3, r4, r3, r1
 800432e:	f3c4 1447 	ubfx	r4, r4, #5, #8
 8004332:	4d8a      	ldr	r5, [pc, #552]	; (800455c <cs43l22_SetVolume+0x240>)
 8004334:	f895 3035 	ldrb.w	r3, [r5, #53]	; 0x35
 8004338:	3419      	adds	r4, #25
 800433a:	b2e4      	uxtb	r4, r4
 800433c:	2b01      	cmp	r3, #1
 800433e:	b2d9      	uxtb	r1, r3
 8004340:	f88d 4007 	strb.w	r4, [sp, #7]
 8004344:	682b      	ldr	r3, [r5, #0]
 8004346:	b2c6      	uxtb	r6, r0
 8004348:	d122      	bne.n	8004390 <cs43l22_SetVolume+0x74>
 800434a:	699a      	ldr	r2, [r3, #24]
 800434c:	f012 0202 	ands.w	r2, r2, #2
 8004350:	d11e      	bne.n	8004390 <cs43l22_SetVolume+0x74>
 8004352:	f895 0034 	ldrb.w	r0, [r5, #52]	; 0x34
 8004356:	2801      	cmp	r0, #1
 8004358:	d01a      	beq.n	8004390 <cs43l22_SetVolume+0x74>
 800435a:	f885 1034 	strb.w	r1, [r5, #52]	; 0x34
 800435e:	2132      	movs	r1, #50	; 0x32
 8004360:	f885 1035 	strb.w	r1, [r5, #53]	; 0x35
 8004364:	f885 2036 	strb.w	r2, [r5, #54]	; 0x36
 8004368:	681a      	ldr	r2, [r3, #0]
 800436a:	497d      	ldr	r1, [pc, #500]	; (8004560 <cs43l22_SetVolume+0x244>)
 800436c:	f442 7280 	orr.w	r2, r2, #256	; 0x100
 8004370:	601a      	str	r2, [r3, #0]
 8004372:	6808      	ldr	r0, [r1, #0]
 8004374:	695a      	ldr	r2, [r3, #20]
 8004376:	07d2      	lsls	r2, r2, #31
 8004378:	f100 8093 	bmi.w	80044a2 <cs43l22_SetVolume+0x186>
 800437c:	680a      	ldr	r2, [r1, #0]
 800437e:	1a12      	subs	r2, r2, r0
 8004380:	f5b2 5f80 	cmp.w	r2, #4096	; 0x1000
 8004384:	d9f6      	bls.n	8004374 <cs43l22_SetVolume+0x58>
 8004386:	2201      	movs	r2, #1
 8004388:	f885 2035 	strb.w	r2, [r5, #53]	; 0x35
 800438c:	f895 2036 	ldrb.w	r2, [r5, #54]	; 0x36
 8004390:	2202      	movs	r2, #2
 8004392:	f885 2035 	strb.w	r2, [r5, #53]	; 0x35
 8004396:	6819      	ldr	r1, [r3, #0]
 8004398:	2200      	movs	r2, #0
 800439a:	f021 0101 	bic.w	r1, r1, #1
 800439e:	6019      	str	r1, [r3, #0]
 80043a0:	f885 2036 	strb.w	r2, [r5, #54]	; 0x36
 80043a4:	f885 2035 	strb.w	r2, [r5, #53]	; 0x35
 80043a8:	f895 3035 	ldrb.w	r3, [r5, #53]	; 0x35
 80043ac:	f885 2034 	strb.w	r2, [r5, #52]	; 0x34
 80043b0:	2b00      	cmp	r3, #0
 80043b2:	f000 80cc 	beq.w	800454e <cs43l22_SetVolume+0x232>
 80043b6:	4630      	mov	r0, r6
 80043b8:	4622      	mov	r2, r4
 80043ba:	2121      	movs	r1, #33	; 0x21
 80043bc:	f7ff ff2a 	bl	8004214 <I2Cx_WriteData>
 80043c0:	2000      	movs	r0, #0
 80043c2:	b002      	add	sp, #8
 80043c4:	bd70      	pop	{r4, r5, r6, pc}
 80043c6:	29e6      	cmp	r1, #230	; 0xe6
 80043c8:	f240 80c4 	bls.w	8004554 <cs43l22_SetVolume+0x238>
 80043cc:	4d63      	ldr	r5, [pc, #396]	; (800455c <cs43l22_SetVolume+0x240>)
 80043ce:	f895 3035 	ldrb.w	r3, [r5, #53]	; 0x35
 80043d2:	227d      	movs	r2, #125	; 0x7d
 80043d4:	2b01      	cmp	r3, #1
 80043d6:	b2d9      	uxtb	r1, r3
 80043d8:	f88d 2007 	strb.w	r2, [sp, #7]
 80043dc:	682b      	ldr	r3, [r5, #0]
 80043de:	b2c4      	uxtb	r4, r0
 80043e0:	d131      	bne.n	8004446 <cs43l22_SetVolume+0x12a>
 80043e2:	699a      	ldr	r2, [r3, #24]
 80043e4:	f012 0202 	ands.w	r2, r2, #2
 80043e8:	d12d      	bne.n	8004446 <cs43l22_SetVolume+0x12a>
 80043ea:	f895 0034 	ldrb.w	r0, [r5, #52]	; 0x34
 80043ee:	2801      	cmp	r0, #1
 80043f0:	d029      	beq.n	8004446 <cs43l22_SetVolume+0x12a>
 80043f2:	2032      	movs	r0, #50	; 0x32
 80043f4:	f885 0035 	strb.w	r0, [r5, #53]	; 0x35
 80043f8:	f885 1034 	strb.w	r1, [r5, #52]	; 0x34
 80043fc:	f885 2036 	strb.w	r2, [r5, #54]	; 0x36
 8004400:	681a      	ldr	r2, [r3, #0]
 8004402:	4957      	ldr	r1, [pc, #348]	; (8004560 <cs43l22_SetVolume+0x244>)
 8004404:	f442 7280 	orr.w	r2, r2, #256	; 0x100
 8004408:	601a      	str	r2, [r3, #0]
 800440a:	6808      	ldr	r0, [r1, #0]
 800440c:	695a      	ldr	r2, [r3, #20]
 800440e:	07d6      	lsls	r6, r2, #31
 8004410:	d433      	bmi.n	800447a <cs43l22_SetVolume+0x15e>
 8004412:	680a      	ldr	r2, [r1, #0]
 8004414:	1a12      	subs	r2, r2, r0
 8004416:	f5b2 5f80 	cmp.w	r2, #4096	; 0x1000
 800441a:	d9f7      	bls.n	800440c <cs43l22_SetVolume+0xf0>
 800441c:	2201      	movs	r2, #1
 800441e:	f885 2035 	strb.w	r2, [r5, #53]	; 0x35
 8004422:	e00e      	b.n	8004442 <cs43l22_SetVolume+0x126>
 8004424:	681a      	ldr	r2, [r3, #0]
 8004426:	f442 7200 	orr.w	r2, r2, #512	; 0x200
 800442a:	601a      	str	r2, [r3, #0]
 800442c:	f46f 6080 	mvn.w	r0, #1024	; 0x400
 8004430:	2104      	movs	r1, #4
 8004432:	2201      	movs	r2, #1
 8004434:	6158      	str	r0, [r3, #20]
 8004436:	f885 1036 	strb.w	r1, [r5, #54]	; 0x36
 800443a:	f885 2035 	strb.w	r2, [r5, #53]	; 0x35
 800443e:	f895 2036 	ldrb.w	r2, [r5, #54]	; 0x36
 8004442:	f895 2036 	ldrb.w	r2, [r5, #54]	; 0x36
 8004446:	2202      	movs	r2, #2
 8004448:	f885 2035 	strb.w	r2, [r5, #53]	; 0x35
 800444c:	6819      	ldr	r1, [r3, #0]
 800444e:	2200      	movs	r2, #0
 8004450:	f021 0101 	bic.w	r1, r1, #1
 8004454:	6019      	str	r1, [r3, #0]
 8004456:	f885 2036 	strb.w	r2, [r5, #54]	; 0x36
 800445a:	f885 2035 	strb.w	r2, [r5, #53]	; 0x35
 800445e:	f895 3035 	ldrb.w	r3, [r5, #53]	; 0x35
 8004462:	f885 2034 	strb.w	r2, [r5, #52]	; 0x34
 8004466:	2b00      	cmp	r3, #0
 8004468:	d06e      	beq.n	8004548 <cs43l22_SetVolume+0x22c>
 800446a:	4620      	mov	r0, r4
 800446c:	227d      	movs	r2, #125	; 0x7d
 800446e:	2121      	movs	r1, #33	; 0x21
 8004470:	f7ff fed0 	bl	8004214 <I2Cx_WriteData>
 8004474:	2000      	movs	r0, #0
 8004476:	b002      	add	sp, #8
 8004478:	bd70      	pop	{r4, r5, r6, pc}
 800447a:	f004 02fe 	and.w	r2, r4, #254	; 0xfe
 800447e:	611a      	str	r2, [r3, #16]
 8004480:	6808      	ldr	r0, [r1, #0]
 8004482:	695a      	ldr	r2, [r3, #20]
 8004484:	f012 0f02 	tst.w	r2, #2
 8004488:	695a      	ldr	r2, [r3, #20]
 800448a:	d11e      	bne.n	80044ca <cs43l22_SetVolume+0x1ae>
 800448c:	0552      	lsls	r2, r2, #21
 800448e:	d4c9      	bmi.n	8004424 <cs43l22_SetVolume+0x108>
 8004490:	680a      	ldr	r2, [r1, #0]
 8004492:	1a12      	subs	r2, r2, r0
 8004494:	f5b2 5f80 	cmp.w	r2, #4096	; 0x1000
 8004498:	d9f3      	bls.n	8004482 <cs43l22_SetVolume+0x166>
 800449a:	2201      	movs	r2, #1
 800449c:	f885 2035 	strb.w	r2, [r5, #53]	; 0x35
 80044a0:	e7cd      	b.n	800443e <cs43l22_SetVolume+0x122>
 80044a2:	f006 02fe 	and.w	r2, r6, #254	; 0xfe
 80044a6:	611a      	str	r2, [r3, #16]
 80044a8:	6808      	ldr	r0, [r1, #0]
 80044aa:	695a      	ldr	r2, [r3, #20]
 80044ac:	f012 0f02 	tst.w	r2, #2
 80044b0:	695a      	ldr	r2, [r3, #20]
 80044b2:	d121      	bne.n	80044f8 <cs43l22_SetVolume+0x1dc>
 80044b4:	0552      	lsls	r2, r2, #21
 80044b6:	d437      	bmi.n	8004528 <cs43l22_SetVolume+0x20c>
 80044b8:	680a      	ldr	r2, [r1, #0]
 80044ba:	1a12      	subs	r2, r2, r0
 80044bc:	f5b2 5f80 	cmp.w	r2, #4096	; 0x1000
 80044c0:	d9f3      	bls.n	80044aa <cs43l22_SetVolume+0x18e>
 80044c2:	2201      	movs	r2, #1
 80044c4:	f885 2035 	strb.w	r2, [r5, #53]	; 0x35
 80044c8:	e03b      	b.n	8004542 <cs43l22_SetVolume+0x226>
 80044ca:	699a      	ldr	r2, [r3, #24]
 80044cc:	6808      	ldr	r0, [r1, #0]
 80044ce:	695a      	ldr	r2, [r3, #20]
 80044d0:	0616      	lsls	r6, r2, #24
 80044d2:	d405      	bmi.n	80044e0 <cs43l22_SetVolume+0x1c4>
 80044d4:	680a      	ldr	r2, [r1, #0]
 80044d6:	1a12      	subs	r2, r2, r0
 80044d8:	f5b2 5f80 	cmp.w	r2, #4096	; 0x1000
 80044dc:	d9f7      	bls.n	80044ce <cs43l22_SetVolume+0x1b2>
 80044de:	e79d      	b.n	800441c <cs43l22_SetVolume+0x100>
 80044e0:	2220      	movs	r2, #32
 80044e2:	611a      	str	r2, [r3, #16]
 80044e4:	f44f 5180 	mov.w	r1, #4096	; 0x1000
 80044e8:	f10d 0007 	add.w	r0, sp, #7
 80044ec:	f7ff f986 	bl	80037fc <HAL_I2C_Mem_Write.part.0.constprop.0>
 80044f0:	2800      	cmp	r0, #0
 80044f2:	d0ba      	beq.n	800446a <cs43l22_SetVolume+0x14e>
 80044f4:	682b      	ldr	r3, [r5, #0]
 80044f6:	e7a6      	b.n	8004446 <cs43l22_SetVolume+0x12a>
 80044f8:	699a      	ldr	r2, [r3, #24]
 80044fa:	6808      	ldr	r0, [r1, #0]
 80044fc:	695a      	ldr	r2, [r3, #20]
 80044fe:	0612      	lsls	r2, r2, #24
 8004500:	d405      	bmi.n	800450e <cs43l22_SetVolume+0x1f2>
 8004502:	680a      	ldr	r2, [r1, #0]
 8004504:	1a12      	subs	r2, r2, r0
 8004506:	f5b2 5f80 	cmp.w	r2, #4096	; 0x1000
 800450a:	d9f7      	bls.n	80044fc <cs43l22_SetVolume+0x1e0>
 800450c:	e73b      	b.n	8004386 <cs43l22_SetVolume+0x6a>
 800450e:	2220      	movs	r2, #32
 8004510:	611a      	str	r2, [r3, #16]
 8004512:	f44f 5180 	mov.w	r1, #4096	; 0x1000
 8004516:	f10d 0007 	add.w	r0, sp, #7
 800451a:	f7ff f96f 	bl	80037fc <HAL_I2C_Mem_Write.part.0.constprop.0>
 800451e:	2800      	cmp	r0, #0
 8004520:	f43f af49 	beq.w	80043b6 <cs43l22_SetVolume+0x9a>
 8004524:	682b      	ldr	r3, [r5, #0]
 8004526:	e733      	b.n	8004390 <cs43l22_SetVolume+0x74>
 8004528:	681a      	ldr	r2, [r3, #0]
 800452a:	f46f 6180 	mvn.w	r1, #1024	; 0x400
 800452e:	f442 7200 	orr.w	r2, r2, #512	; 0x200
 8004532:	601a      	str	r2, [r3, #0]
 8004534:	6159      	str	r1, [r3, #20]
 8004536:	2201      	movs	r2, #1
 8004538:	2104      	movs	r1, #4
 800453a:	f885 1036 	strb.w	r1, [r5, #54]	; 0x36
 800453e:	f885 2035 	strb.w	r2, [r5, #53]	; 0x35
 8004542:	f895 2036 	ldrb.w	r2, [r5, #54]	; 0x36
 8004546:	e721      	b.n	800438c <cs43l22_SetVolume+0x70>
 8004548:	f7fe fbe0 	bl	8002d0c <I2Cx_Init.part.0>
 800454c:	e78d      	b.n	800446a <cs43l22_SetVolume+0x14e>
 800454e:	f7fe fbdd 	bl	8002d0c <I2Cx_Init.part.0>
 8004552:	e730      	b.n	80043b6 <cs43l22_SetVolume+0x9a>
 8004554:	2464      	movs	r4, #100	; 0x64
 8004556:	e6ec      	b.n	8004332 <cs43l22_SetVolume+0x16>
 8004558:	51eb851f 	.word	0x51eb851f
 800455c:	200005b0 	.word	0x200005b0
 8004560:	20002f54 	.word	0x20002f54

08004564 <cs43l22_Init>:
cs43l22_Init():
 8004564:	e92d 4178 	stmdb	sp!, {r3, r4, r5, r6, r8, lr}
 8004568:	b2c4      	uxtb	r4, r0
 800456a:	460d      	mov	r5, r1
 800456c:	4606      	mov	r6, r0
 800456e:	4690      	mov	r8, r2
 8004570:	f7fe fc9c 	bl	8002eac <AUDIO_IO_Init>
 8004574:	2102      	movs	r1, #2
 8004576:	2201      	movs	r2, #1
 8004578:	4620      	mov	r0, r4
 800457a:	f7ff fe4b 	bl	8004214 <I2Cx_WriteData>
 800457e:	1e69      	subs	r1, r5, #1
 8004580:	2903      	cmp	r1, #3
 8004582:	d866      	bhi.n	8004652 <cs43l22_Init+0xee>
 8004584:	e8df f001 	tbb	[pc, r1]
 8004588:	65024961 	.word	0x65024961
 800458c:	4b33      	ldr	r3, [pc, #204]	; (800465c <cs43l22_Init+0xf8>)
 800458e:	22aa      	movs	r2, #170	; 0xaa
 8004590:	701a      	strb	r2, [r3, #0]
 8004592:	781a      	ldrb	r2, [r3, #0]
 8004594:	4620      	mov	r0, r4
 8004596:	2104      	movs	r1, #4
 8004598:	f7ff fe3c 	bl	8004214 <I2Cx_WriteData>
 800459c:	4620      	mov	r0, r4
 800459e:	2281      	movs	r2, #129	; 0x81
 80045a0:	2105      	movs	r1, #5
 80045a2:	f7ff fe37 	bl	8004214 <I2Cx_WriteData>
 80045a6:	2204      	movs	r2, #4
 80045a8:	4620      	mov	r0, r4
 80045aa:	2106      	movs	r1, #6
 80045ac:	f7ff fe32 	bl	8004214 <I2Cx_WriteData>
 80045b0:	4641      	mov	r1, r8
 80045b2:	4630      	mov	r0, r6
 80045b4:	f7ff feb2 	bl	800431c <cs43l22_SetVolume>
 80045b8:	2206      	movs	r2, #6
 80045ba:	210f      	movs	r1, #15
 80045bc:	4605      	mov	r5, r0
 80045be:	4620      	mov	r0, r4
 80045c0:	f7ff fe28 	bl	8004214 <I2Cx_WriteData>
 80045c4:	4620      	mov	r0, r4
 80045c6:	2200      	movs	r2, #0
 80045c8:	2124      	movs	r1, #36	; 0x24
 80045ca:	f7ff fe23 	bl	8004214 <I2Cx_WriteData>
 80045ce:	2200      	movs	r2, #0
 80045d0:	2125      	movs	r1, #37	; 0x25
 80045d2:	4620      	mov	r0, r4
 80045d4:	f7ff fe1e 	bl	8004214 <I2Cx_WriteData>
 80045d8:	4620      	mov	r0, r4
 80045da:	2200      	movs	r2, #0
 80045dc:	210a      	movs	r1, #10
 80045de:	f7ff fe19 	bl	8004214 <I2Cx_WriteData>
 80045e2:	4620      	mov	r0, r4
 80045e4:	2204      	movs	r2, #4
 80045e6:	210e      	movs	r1, #14
 80045e8:	f7ff fe14 	bl	8004214 <I2Cx_WriteData>
 80045ec:	4620      	mov	r0, r4
 80045ee:	2200      	movs	r2, #0
 80045f0:	2127      	movs	r1, #39	; 0x27
 80045f2:	f7ff fe0f 	bl	8004214 <I2Cx_WriteData>
 80045f6:	4620      	mov	r0, r4
 80045f8:	220f      	movs	r2, #15
 80045fa:	211f      	movs	r1, #31
 80045fc:	f7ff fe0a 	bl	8004214 <I2Cx_WriteData>
 8004600:	4620      	mov	r0, r4
 8004602:	220a      	movs	r2, #10
 8004604:	211a      	movs	r1, #26
 8004606:	f7ff fe05 	bl	8004214 <I2Cx_WriteData>
 800460a:	4620      	mov	r0, r4
 800460c:	220a      	movs	r2, #10
 800460e:	211b      	movs	r1, #27
 8004610:	f7ff fe00 	bl	8004214 <I2Cx_WriteData>
 8004614:	4628      	mov	r0, r5
 8004616:	e8bd 8178 	ldmia.w	sp!, {r3, r4, r5, r6, r8, pc}
 800461a:	4b10      	ldr	r3, [pc, #64]	; (800465c <cs43l22_Init+0xf8>)
 800461c:	22af      	movs	r2, #175	; 0xaf
 800461e:	701a      	strb	r2, [r3, #0]
 8004620:	781a      	ldrb	r2, [r3, #0]
 8004622:	2104      	movs	r1, #4
 8004624:	4620      	mov	r0, r4
 8004626:	f7ff fdf5 	bl	8004214 <I2Cx_WriteData>
 800462a:	2281      	movs	r2, #129	; 0x81
 800462c:	2105      	movs	r1, #5
 800462e:	4620      	mov	r0, r4
 8004630:	f7ff fdf0 	bl	8004214 <I2Cx_WriteData>
 8004634:	2204      	movs	r2, #4
 8004636:	2106      	movs	r1, #6
 8004638:	4620      	mov	r0, r4
 800463a:	f7ff fdeb 	bl	8004214 <I2Cx_WriteData>
 800463e:	4641      	mov	r1, r8
 8004640:	4630      	mov	r0, r6
 8004642:	f7ff fe6b 	bl	800431c <cs43l22_SetVolume>
 8004646:	4605      	mov	r5, r0
 8004648:	e7c6      	b.n	80045d8 <cs43l22_Init+0x74>
 800464a:	4b04      	ldr	r3, [pc, #16]	; (800465c <cs43l22_Init+0xf8>)
 800464c:	22fa      	movs	r2, #250	; 0xfa
 800464e:	701a      	strb	r2, [r3, #0]
 8004650:	e79f      	b.n	8004592 <cs43l22_Init+0x2e>
 8004652:	4b02      	ldr	r3, [pc, #8]	; (800465c <cs43l22_Init+0xf8>)
 8004654:	2205      	movs	r2, #5
 8004656:	701a      	strb	r2, [r3, #0]
 8004658:	e79b      	b.n	8004592 <cs43l22_Init+0x2e>
 800465a:	bf00      	nop
 800465c:	20000638 	.word	0x20000638

08004660 <cs43l22_SetMute>:
cs43l22_SetMute():
 8004660:	b530      	push	{r4, r5, lr}
 8004662:	2901      	cmp	r1, #1
 8004664:	b083      	sub	sp, #12
 8004666:	d043      	beq.n	80046f0 <cs43l22_SetMute+0x90>
 8004668:	4b63      	ldr	r3, [pc, #396]	; (80047f8 <cs43l22_SetMute+0x198>)
 800466a:	4c64      	ldr	r4, [pc, #400]	; (80047fc <cs43l22_SetMute+0x19c>)
 800466c:	781a      	ldrb	r2, [r3, #0]
 800466e:	f894 3035 	ldrb.w	r3, [r4, #53]	; 0x35
 8004672:	f88d 2007 	strb.w	r2, [sp, #7]
 8004676:	2b01      	cmp	r3, #1
 8004678:	b2d9      	uxtb	r1, r3
 800467a:	6823      	ldr	r3, [r4, #0]
 800467c:	d123      	bne.n	80046c6 <cs43l22_SetMute+0x66>
 800467e:	699a      	ldr	r2, [r3, #24]
 8004680:	f012 0202 	ands.w	r2, r2, #2
 8004684:	d11f      	bne.n	80046c6 <cs43l22_SetMute+0x66>
 8004686:	f894 c034 	ldrb.w	ip, [r4, #52]	; 0x34
 800468a:	f1bc 0f01 	cmp.w	ip, #1
 800468e:	d01a      	beq.n	80046c6 <cs43l22_SetMute+0x66>
 8004690:	f04f 0c32 	mov.w	ip, #50	; 0x32
 8004694:	f884 c035 	strb.w	ip, [r4, #53]	; 0x35
 8004698:	f884 1034 	strb.w	r1, [r4, #52]	; 0x34
 800469c:	f884 2036 	strb.w	r2, [r4, #54]	; 0x36
 80046a0:	681a      	ldr	r2, [r3, #0]
 80046a2:	4957      	ldr	r1, [pc, #348]	; (8004800 <cs43l22_SetMute+0x1a0>)
 80046a4:	f442 7280 	orr.w	r2, r2, #256	; 0x100
 80046a8:	601a      	str	r2, [r3, #0]
 80046aa:	680d      	ldr	r5, [r1, #0]
 80046ac:	695a      	ldr	r2, [r3, #20]
 80046ae:	07d2      	lsls	r2, r2, #31
 80046b0:	d446      	bmi.n	8004740 <cs43l22_SetMute+0xe0>
 80046b2:	680a      	ldr	r2, [r1, #0]
 80046b4:	1b52      	subs	r2, r2, r5
 80046b6:	f5b2 5f80 	cmp.w	r2, #4096	; 0x1000
 80046ba:	d9f7      	bls.n	80046ac <cs43l22_SetMute+0x4c>
 80046bc:	2201      	movs	r2, #1
 80046be:	f884 2035 	strb.w	r2, [r4, #53]	; 0x35
 80046c2:	f894 2036 	ldrb.w	r2, [r4, #54]	; 0x36
 80046c6:	2202      	movs	r2, #2
 80046c8:	f884 2035 	strb.w	r2, [r4, #53]	; 0x35
 80046cc:	6819      	ldr	r1, [r3, #0]
 80046ce:	2200      	movs	r2, #0
 80046d0:	f021 0101 	bic.w	r1, r1, #1
 80046d4:	6019      	str	r1, [r3, #0]
 80046d6:	f884 2036 	strb.w	r2, [r4, #54]	; 0x36
 80046da:	f884 2035 	strb.w	r2, [r4, #53]	; 0x35
 80046de:	f894 3035 	ldrb.w	r3, [r4, #53]	; 0x35
 80046e2:	f884 2034 	strb.w	r2, [r4, #52]	; 0x34
 80046e6:	2b00      	cmp	r3, #0
 80046e8:	d05f      	beq.n	80047aa <cs43l22_SetMute+0x14a>
 80046ea:	2000      	movs	r0, #0
 80046ec:	b003      	add	sp, #12
 80046ee:	bd30      	pop	{r4, r5, pc}
 80046f0:	4c42      	ldr	r4, [pc, #264]	; (80047fc <cs43l22_SetMute+0x19c>)
 80046f2:	f894 3035 	ldrb.w	r3, [r4, #53]	; 0x35
 80046f6:	22ff      	movs	r2, #255	; 0xff
 80046f8:	2b01      	cmp	r3, #1
 80046fa:	b2d9      	uxtb	r1, r3
 80046fc:	f88d 2007 	strb.w	r2, [sp, #7]
 8004700:	6823      	ldr	r3, [r4, #0]
 8004702:	d1e0      	bne.n	80046c6 <cs43l22_SetMute+0x66>
 8004704:	699a      	ldr	r2, [r3, #24]
 8004706:	f012 0202 	ands.w	r2, r2, #2
 800470a:	d1dc      	bne.n	80046c6 <cs43l22_SetMute+0x66>
 800470c:	f894 5034 	ldrb.w	r5, [r4, #52]	; 0x34
 8004710:	2d01      	cmp	r5, #1
 8004712:	d0d8      	beq.n	80046c6 <cs43l22_SetMute+0x66>
 8004714:	2532      	movs	r5, #50	; 0x32
 8004716:	f884 5035 	strb.w	r5, [r4, #53]	; 0x35
 800471a:	f884 1034 	strb.w	r1, [r4, #52]	; 0x34
 800471e:	f884 2036 	strb.w	r2, [r4, #54]	; 0x36
 8004722:	681a      	ldr	r2, [r3, #0]
 8004724:	4936      	ldr	r1, [pc, #216]	; (8004800 <cs43l22_SetMute+0x1a0>)
 8004726:	f442 7280 	orr.w	r2, r2, #256	; 0x100
 800472a:	601a      	str	r2, [r3, #0]
 800472c:	680d      	ldr	r5, [r1, #0]
 800472e:	695a      	ldr	r2, [r3, #20]
 8004730:	07d2      	lsls	r2, r2, #31
 8004732:	d419      	bmi.n	8004768 <cs43l22_SetMute+0x108>
 8004734:	680a      	ldr	r2, [r1, #0]
 8004736:	1b52      	subs	r2, r2, r5
 8004738:	f5b2 5f80 	cmp.w	r2, #4096	; 0x1000
 800473c:	d9f7      	bls.n	800472e <cs43l22_SetMute+0xce>
 800473e:	e7bd      	b.n	80046bc <cs43l22_SetMute+0x5c>
 8004740:	f000 00fe 	and.w	r0, r0, #254	; 0xfe
 8004744:	6118      	str	r0, [r3, #16]
 8004746:	6808      	ldr	r0, [r1, #0]
 8004748:	695a      	ldr	r2, [r3, #20]
 800474a:	f012 0f02 	tst.w	r2, #2
 800474e:	695a      	ldr	r2, [r3, #20]
 8004750:	d130      	bne.n	80047b4 <cs43l22_SetMute+0x154>
 8004752:	0555      	lsls	r5, r2, #21
 8004754:	d419      	bmi.n	800478a <cs43l22_SetMute+0x12a>
 8004756:	680a      	ldr	r2, [r1, #0]
 8004758:	1a12      	subs	r2, r2, r0
 800475a:	f5b2 5f80 	cmp.w	r2, #4096	; 0x1000
 800475e:	d9f3      	bls.n	8004748 <cs43l22_SetMute+0xe8>
 8004760:	2201      	movs	r2, #1
 8004762:	f884 2035 	strb.w	r2, [r4, #53]	; 0x35
 8004766:	e01d      	b.n	80047a4 <cs43l22_SetMute+0x144>
 8004768:	f000 00fe 	and.w	r0, r0, #254	; 0xfe
 800476c:	6118      	str	r0, [r3, #16]
 800476e:	6808      	ldr	r0, [r1, #0]
 8004770:	695a      	ldr	r2, [r3, #20]
 8004772:	f012 0f02 	tst.w	r2, #2
 8004776:	695a      	ldr	r2, [r3, #20]
 8004778:	d133      	bne.n	80047e2 <cs43l22_SetMute+0x182>
 800477a:	0552      	lsls	r2, r2, #21
 800477c:	d405      	bmi.n	800478a <cs43l22_SetMute+0x12a>
 800477e:	680a      	ldr	r2, [r1, #0]
 8004780:	1a12      	subs	r2, r2, r0
 8004782:	f5b2 5f80 	cmp.w	r2, #4096	; 0x1000
 8004786:	d9f3      	bls.n	8004770 <cs43l22_SetMute+0x110>
 8004788:	e7ea      	b.n	8004760 <cs43l22_SetMute+0x100>
 800478a:	681a      	ldr	r2, [r3, #0]
 800478c:	f46f 6580 	mvn.w	r5, #1024	; 0x400
 8004790:	f442 7200 	orr.w	r2, r2, #512	; 0x200
 8004794:	2004      	movs	r0, #4
 8004796:	2101      	movs	r1, #1
 8004798:	601a      	str	r2, [r3, #0]
 800479a:	615d      	str	r5, [r3, #20]
 800479c:	f884 0036 	strb.w	r0, [r4, #54]	; 0x36
 80047a0:	f884 1035 	strb.w	r1, [r4, #53]	; 0x35
 80047a4:	f894 2036 	ldrb.w	r2, [r4, #54]	; 0x36
 80047a8:	e78b      	b.n	80046c2 <cs43l22_SetMute+0x62>
 80047aa:	f7fe faaf 	bl	8002d0c <I2Cx_Init.part.0>
 80047ae:	2000      	movs	r0, #0
 80047b0:	b003      	add	sp, #12
 80047b2:	bd30      	pop	{r4, r5, pc}
 80047b4:	699a      	ldr	r2, [r3, #24]
 80047b6:	6808      	ldr	r0, [r1, #0]
 80047b8:	695a      	ldr	r2, [r3, #20]
 80047ba:	0612      	lsls	r2, r2, #24
 80047bc:	d405      	bmi.n	80047ca <cs43l22_SetMute+0x16a>
 80047be:	680a      	ldr	r2, [r1, #0]
 80047c0:	1a12      	subs	r2, r2, r0
 80047c2:	f5b2 5f80 	cmp.w	r2, #4096	; 0x1000
 80047c6:	d9f7      	bls.n	80047b8 <cs43l22_SetMute+0x158>
 80047c8:	e778      	b.n	80046bc <cs43l22_SetMute+0x5c>
 80047ca:	2204      	movs	r2, #4
 80047cc:	611a      	str	r2, [r3, #16]
 80047ce:	f44f 5180 	mov.w	r1, #4096	; 0x1000
 80047d2:	f10d 0007 	add.w	r0, sp, #7
 80047d6:	f7ff f811 	bl	80037fc <HAL_I2C_Mem_Write.part.0.constprop.0>
 80047da:	2800      	cmp	r0, #0
 80047dc:	d085      	beq.n	80046ea <cs43l22_SetMute+0x8a>
 80047de:	6823      	ldr	r3, [r4, #0]
 80047e0:	e771      	b.n	80046c6 <cs43l22_SetMute+0x66>
 80047e2:	699a      	ldr	r2, [r3, #24]
 80047e4:	6808      	ldr	r0, [r1, #0]
 80047e6:	695a      	ldr	r2, [r3, #20]
 80047e8:	0615      	lsls	r5, r2, #24
 80047ea:	d4ee      	bmi.n	80047ca <cs43l22_SetMute+0x16a>
 80047ec:	680a      	ldr	r2, [r1, #0]
 80047ee:	1a12      	subs	r2, r2, r0
 80047f0:	f5b2 5f80 	cmp.w	r2, #4096	; 0x1000
 80047f4:	d9f7      	bls.n	80047e6 <cs43l22_SetMute+0x186>
 80047f6:	e761      	b.n	80046bc <cs43l22_SetMute+0x5c>
 80047f8:	20000638 	.word	0x20000638
 80047fc:	200005b0 	.word	0x200005b0
 8004800:	20002f54 	.word	0x20002f54

08004804 <cs43l22_SetOutputMode>:
cs43l22_SetOutputMode():
 8004804:	b530      	push	{r4, r5, lr}
 8004806:	3901      	subs	r1, #1
 8004808:	b083      	sub	sp, #12
 800480a:	2903      	cmp	r1, #3
 800480c:	d82f      	bhi.n	800486e <cs43l22_SetOutputMode+0x6a>
 800480e:	e8df f001 	tbb	[pc, r1]
 8004812:	1823      	.short	0x1823
 8004814:	020d      	.short	0x020d
 8004816:	2205      	movs	r2, #5
 8004818:	2104      	movs	r1, #4
 800481a:	b2c0      	uxtb	r0, r0
 800481c:	f7ff fcfa 	bl	8004214 <I2Cx_WriteData>
 8004820:	4b53      	ldr	r3, [pc, #332]	; (8004970 <cs43l22_SetOutputMode+0x16c>)
 8004822:	2205      	movs	r2, #5
 8004824:	701a      	strb	r2, [r3, #0]
 8004826:	2000      	movs	r0, #0
 8004828:	b003      	add	sp, #12
 800482a:	bd30      	pop	{r4, r5, pc}
 800482c:	22aa      	movs	r2, #170	; 0xaa
 800482e:	2104      	movs	r1, #4
 8004830:	b2c0      	uxtb	r0, r0
 8004832:	f7ff fcef 	bl	8004214 <I2Cx_WriteData>
 8004836:	4b4e      	ldr	r3, [pc, #312]	; (8004970 <cs43l22_SetOutputMode+0x16c>)
 8004838:	22aa      	movs	r2, #170	; 0xaa
 800483a:	2000      	movs	r0, #0
 800483c:	701a      	strb	r2, [r3, #0]
 800483e:	b003      	add	sp, #12
 8004840:	bd30      	pop	{r4, r5, pc}
 8004842:	22af      	movs	r2, #175	; 0xaf
 8004844:	2104      	movs	r1, #4
 8004846:	b2c0      	uxtb	r0, r0
 8004848:	f7ff fce4 	bl	8004214 <I2Cx_WriteData>
 800484c:	4b48      	ldr	r3, [pc, #288]	; (8004970 <cs43l22_SetOutputMode+0x16c>)
 800484e:	22af      	movs	r2, #175	; 0xaf
 8004850:	2000      	movs	r0, #0
 8004852:	701a      	strb	r2, [r3, #0]
 8004854:	b003      	add	sp, #12
 8004856:	bd30      	pop	{r4, r5, pc}
 8004858:	22fa      	movs	r2, #250	; 0xfa
 800485a:	2104      	movs	r1, #4
 800485c:	b2c0      	uxtb	r0, r0
 800485e:	f7ff fcd9 	bl	8004214 <I2Cx_WriteData>
 8004862:	4b43      	ldr	r3, [pc, #268]	; (8004970 <cs43l22_SetOutputMode+0x16c>)
 8004864:	22fa      	movs	r2, #250	; 0xfa
 8004866:	2000      	movs	r0, #0
 8004868:	701a      	strb	r2, [r3, #0]
 800486a:	b003      	add	sp, #12
 800486c:	bd30      	pop	{r4, r5, pc}
 800486e:	4c41      	ldr	r4, [pc, #260]	; (8004974 <cs43l22_SetOutputMode+0x170>)
 8004870:	f894 3035 	ldrb.w	r3, [r4, #53]	; 0x35
 8004874:	2205      	movs	r2, #5
 8004876:	2b01      	cmp	r3, #1
 8004878:	b2d9      	uxtb	r1, r3
 800487a:	f88d 2007 	strb.w	r2, [sp, #7]
 800487e:	6823      	ldr	r3, [r4, #0]
 8004880:	d123      	bne.n	80048ca <cs43l22_SetOutputMode+0xc6>
 8004882:	699a      	ldr	r2, [r3, #24]
 8004884:	f012 0202 	ands.w	r2, r2, #2
 8004888:	d11f      	bne.n	80048ca <cs43l22_SetOutputMode+0xc6>
 800488a:	f894 c034 	ldrb.w	ip, [r4, #52]	; 0x34
 800488e:	f1bc 0f01 	cmp.w	ip, #1
 8004892:	d01a      	beq.n	80048ca <cs43l22_SetOutputMode+0xc6>
 8004894:	f04f 0c32 	mov.w	ip, #50	; 0x32
 8004898:	f884 c035 	strb.w	ip, [r4, #53]	; 0x35
 800489c:	f884 1034 	strb.w	r1, [r4, #52]	; 0x34
 80048a0:	f884 2036 	strb.w	r2, [r4, #54]	; 0x36
 80048a4:	6819      	ldr	r1, [r3, #0]
 80048a6:	4a34      	ldr	r2, [pc, #208]	; (8004978 <cs43l22_SetOutputMode+0x174>)
 80048a8:	f441 7180 	orr.w	r1, r1, #256	; 0x100
 80048ac:	6019      	str	r1, [r3, #0]
 80048ae:	6815      	ldr	r5, [r2, #0]
 80048b0:	6959      	ldr	r1, [r3, #20]
 80048b2:	07c9      	lsls	r1, r1, #31
 80048b4:	d421      	bmi.n	80048fa <cs43l22_SetOutputMode+0xf6>
 80048b6:	6811      	ldr	r1, [r2, #0]
 80048b8:	1b49      	subs	r1, r1, r5
 80048ba:	f5b1 5f80 	cmp.w	r1, #4096	; 0x1000
 80048be:	d9f7      	bls.n	80048b0 <cs43l22_SetOutputMode+0xac>
 80048c0:	2201      	movs	r2, #1
 80048c2:	f884 2035 	strb.w	r2, [r4, #53]	; 0x35
 80048c6:	f894 2036 	ldrb.w	r2, [r4, #54]	; 0x36
 80048ca:	2202      	movs	r2, #2
 80048cc:	f884 2035 	strb.w	r2, [r4, #53]	; 0x35
 80048d0:	6819      	ldr	r1, [r3, #0]
 80048d2:	2200      	movs	r2, #0
 80048d4:	f021 0101 	bic.w	r1, r1, #1
 80048d8:	6019      	str	r1, [r3, #0]
 80048da:	f884 2036 	strb.w	r2, [r4, #54]	; 0x36
 80048de:	f884 2035 	strb.w	r2, [r4, #53]	; 0x35
 80048e2:	f894 3035 	ldrb.w	r3, [r4, #53]	; 0x35
 80048e6:	f884 2034 	strb.w	r2, [r4, #52]	; 0x34
 80048ea:	b11b      	cbz	r3, 80048f4 <cs43l22_SetOutputMode+0xf0>
 80048ec:	4b20      	ldr	r3, [pc, #128]	; (8004970 <cs43l22_SetOutputMode+0x16c>)
 80048ee:	2205      	movs	r2, #5
 80048f0:	701a      	strb	r2, [r3, #0]
 80048f2:	e798      	b.n	8004826 <cs43l22_SetOutputMode+0x22>
 80048f4:	f7fe fa0a 	bl	8002d0c <I2Cx_Init.part.0>
 80048f8:	e7f8      	b.n	80048ec <cs43l22_SetOutputMode+0xe8>
 80048fa:	f000 00fe 	and.w	r0, r0, #254	; 0xfe
 80048fe:	6118      	str	r0, [r3, #16]
 8004900:	6810      	ldr	r0, [r2, #0]
 8004902:	6959      	ldr	r1, [r3, #20]
 8004904:	f011 0f02 	tst.w	r1, #2
 8004908:	6959      	ldr	r1, [r3, #20]
 800490a:	d10c      	bne.n	8004926 <cs43l22_SetOutputMode+0x122>
 800490c:	054d      	lsls	r5, r1, #21
 800490e:	d415      	bmi.n	800493c <cs43l22_SetOutputMode+0x138>
 8004910:	6811      	ldr	r1, [r2, #0]
 8004912:	1a09      	subs	r1, r1, r0
 8004914:	f5b1 5f80 	cmp.w	r1, #4096	; 0x1000
 8004918:	d9f3      	bls.n	8004902 <cs43l22_SetOutputMode+0xfe>
 800491a:	2201      	movs	r2, #1
 800491c:	f884 2035 	strb.w	r2, [r4, #53]	; 0x35
 8004920:	f894 2036 	ldrb.w	r2, [r4, #54]	; 0x36
 8004924:	e7cf      	b.n	80048c6 <cs43l22_SetOutputMode+0xc2>
 8004926:	6999      	ldr	r1, [r3, #24]
 8004928:	6810      	ldr	r0, [r2, #0]
 800492a:	6959      	ldr	r1, [r3, #20]
 800492c:	0609      	lsls	r1, r1, #24
 800492e:	d413      	bmi.n	8004958 <cs43l22_SetOutputMode+0x154>
 8004930:	6811      	ldr	r1, [r2, #0]
 8004932:	1a09      	subs	r1, r1, r0
 8004934:	f5b1 5f80 	cmp.w	r1, #4096	; 0x1000
 8004938:	d9f7      	bls.n	800492a <cs43l22_SetOutputMode+0x126>
 800493a:	e7c1      	b.n	80048c0 <cs43l22_SetOutputMode+0xbc>
 800493c:	681a      	ldr	r2, [r3, #0]
 800493e:	f46f 6580 	mvn.w	r5, #1024	; 0x400
 8004942:	f442 7200 	orr.w	r2, r2, #512	; 0x200
 8004946:	2004      	movs	r0, #4
 8004948:	2101      	movs	r1, #1
 800494a:	601a      	str	r2, [r3, #0]
 800494c:	615d      	str	r5, [r3, #20]
 800494e:	f884 0036 	strb.w	r0, [r4, #54]	; 0x36
 8004952:	f884 1035 	strb.w	r1, [r4, #53]	; 0x35
 8004956:	e7e3      	b.n	8004920 <cs43l22_SetOutputMode+0x11c>
 8004958:	2204      	movs	r2, #4
 800495a:	611a      	str	r2, [r3, #16]
 800495c:	f44f 5180 	mov.w	r1, #4096	; 0x1000
 8004960:	f10d 0007 	add.w	r0, sp, #7
 8004964:	f7fe ff4a 	bl	80037fc <HAL_I2C_Mem_Write.part.0.constprop.0>
 8004968:	2800      	cmp	r0, #0
 800496a:	d0bf      	beq.n	80048ec <cs43l22_SetOutputMode+0xe8>
 800496c:	6823      	ldr	r3, [r4, #0]
 800496e:	e7ac      	b.n	80048ca <cs43l22_SetOutputMode+0xc6>
 8004970:	20000638 	.word	0x20000638
 8004974:	200005b0 	.word	0x200005b0
 8004978:	20002f54 	.word	0x20002f54

0800497c <computemydsp.constprop.0>:
computemydsp.constprop.0():
 800497c:	e92d 4778 	stmdb	sp!, {r3, r4, r5, r6, r8, r9, sl, lr}
 8004980:	ed90 0a00 	vldr	s0, [r0]
 8004984:	4b61      	ldr	r3, [pc, #388]	; (8004b0c <computemydsp.constprop.0+0x190>)
 8004986:	ed2d 8b08 	vpush	{d8-d11}
 800498a:	edd0 8a02 	vldr	s17, [r0, #8]
 800498e:	ee28 0a80 	vmul.f32	s0, s17, s0
 8004992:	4604      	mov	r4, r0
 8004994:	e9d3 9a00 	ldrd	r9, sl, [r3]
 8004998:	4688      	mov	r8, r1
 800499a:	f002 fd69 	bl	8007470 <tanf>
 800499e:	ed94 7a03 	vldr	s14, [r4, #12]
 80049a2:	ed94 ba09 	vldr	s22, [r4, #36]	; 0x24
 80049a6:	eeb7 aa00 	vmov.f32	s20, #112	; 0x3f800000  1.0
 80049aa:	eeca aa07 	vdiv.f32	s21, s20, s14
 80049ae:	ee8a 7a00 	vdiv.f32	s14, s20, s0
 80049b2:	ee60 6a00 	vmul.f32	s13, s0, s0
 80049b6:	ee3a 6a87 	vadd.f32	s12, s21, s14
 80049ba:	eef0 7a40 	vmov.f32	s15, s0
 80049be:	ee8a 8a26 	vdiv.f32	s16, s20, s13
 80049c2:	ee77 6a6a 	vsub.f32	s13, s14, s21
 80049c6:	ee86 7a27 	vdiv.f32	s14, s12, s15
 80049ca:	ed94 0a0a 	vldr	s0, [r4, #40]	; 0x28
 80049ce:	ee28 0a80 	vmul.f32	s0, s17, s0
 80049d2:	eec6 8aa7 	vdiv.f32	s17, s13, s15
 80049d6:	ee77 7a0a 	vadd.f32	s15, s14, s20
 80049da:	ee3a 8a48 	vsub.f32	s16, s20, s16
 80049de:	ee8a 9a27 	vdiv.f32	s18, s20, s15
 80049e2:	eecb 9a27 	vdiv.f32	s19, s22, s15
 80049e6:	f002 fd43 	bl	8007470 <tanf>
 80049ea:	eeca 7a00 	vdiv.f32	s15, s20, s0
 80049ee:	ee20 7a00 	vmul.f32	s14, s0, s0
 80049f2:	ee7a 6aa7 	vadd.f32	s13, s21, s15
 80049f6:	ee8a 5a07 	vdiv.f32	s10, s20, s14
 80049fa:	ee37 7aea 	vsub.f32	s14, s15, s21
 80049fe:	eec6 7a80 	vdiv.f32	s15, s13, s0
 8004a02:	eec7 4a00 	vdiv.f32	s9, s14, s0
 8004a06:	ee77 7a8a 	vadd.f32	s15, s15, s20
 8004a0a:	ee3a 5a45 	vsub.f32	s10, s20, s10
 8004a0e:	ee8a 4a27 	vdiv.f32	s8, s20, s15
 8004a12:	eecb 3a27 	vdiv.f32	s7, s22, s15
 8004a16:	ee38 8a08 	vadd.f32	s16, s16, s16
 8004a1a:	ee78 8a8a 	vadd.f32	s17, s17, s20
 8004a1e:	ee35 5a05 	vadd.f32	s10, s10, s10
 8004a22:	ee74 4a8a 	vadd.f32	s9, s9, s20
 8004a26:	f1b8 0f00 	cmp.w	r8, #0
 8004a2a:	d06a      	beq.n	8004b02 <computemydsp.constprop.0+0x186>
 8004a2c:	6963      	ldr	r3, [r4, #20]
 8004a2e:	edd4 5a08 	vldr	s11, [r4, #32]
 8004a32:	ed94 6a07 	vldr	s12, [r4, #28]
 8004a36:	ed9f 3a36 	vldr	s6, [pc, #216]	; 8004b10 <computemydsp.constprop.0+0x194>
 8004a3a:	4936      	ldr	r1, [pc, #216]	; (8004b14 <computemydsp.constprop.0+0x198>)
 8004a3c:	464a      	mov	r2, r9
 8004a3e:	46d6      	mov	lr, sl
 8004a40:	eb09 0688 	add.w	r6, r9, r8, lsl #2
 8004a44:	f243 0539 	movw	r5, #12345	; 0x3039
 8004a48:	fb01 5303 	mla	r3, r1, r3, r5
 8004a4c:	ee68 7a06 	vmul.f32	s15, s16, s12
 8004a50:	ee28 7aa5 	vmul.f32	s14, s17, s11
 8004a54:	ee06 3a90 	vmov	s13, r3
 8004a58:	ee37 7a27 	vadd.f32	s14, s14, s15
 8004a5c:	eef8 6ae6 	vcvt.f32.s32	s13, s13
 8004a60:	ee27 7a09 	vmul.f32	s14, s14, s18
 8004a64:	ee66 6a83 	vmul.f32	s13, s13, s6
 8004a68:	ee36 6a06 	vadd.f32	s12, s12, s12
 8004a6c:	ee36 7ac7 	vsub.f32	s14, s13, s14
 8004a70:	ee77 5a25 	vadd.f32	s11, s14, s11
 8004a74:	ed84 7a06 	vstr	s14, [r4, #24]
 8004a78:	ee75 5a86 	vadd.f32	s11, s11, s12
 8004a7c:	ee65 2aa9 	vmul.f32	s5, s11, s19
 8004a80:	ece2 2a01 	vstmia	r2!, {s5}
 8004a84:	edd4 7a0d 	vldr	s15, [r4, #52]	; 0x34
 8004a88:	ed94 6a0c 	vldr	s12, [r4, #48]	; 0x30
 8004a8c:	ee64 5aa7 	vmul.f32	s11, s9, s15
 8004a90:	ee25 2a06 	vmul.f32	s4, s10, s12
 8004a94:	ee36 6a06 	vadd.f32	s12, s12, s12
 8004a98:	ee75 5a82 	vadd.f32	s11, s11, s4
 8004a9c:	42b2      	cmp	r2, r6
 8004a9e:	ee65 5a84 	vmul.f32	s11, s11, s8
 8004aa2:	ee76 6ae5 	vsub.f32	s13, s13, s11
 8004aa6:	ee77 7aa6 	vadd.f32	s15, s15, s13
 8004aaa:	edc4 6a0b 	vstr	s13, [r4, #44]	; 0x2c
 8004aae:	ee77 7a86 	vadd.f32	s15, s15, s12
 8004ab2:	ee67 7aa3 	vmul.f32	s15, s15, s7
 8004ab6:	ecee 7a01 	vstmia	lr!, {s15}
 8004aba:	ed94 6a06 	vldr	s12, [r4, #24]
 8004abe:	f8d4 c030 	ldr.w	ip, [r4, #48]	; 0x30
 8004ac2:	6ae0      	ldr	r0, [r4, #44]	; 0x2c
 8004ac4:	edd4 5a07 	vldr	s11, [r4, #28]
 8004ac8:	f8c4 c034 	str.w	ip, [r4, #52]	; 0x34
 8004acc:	ed84 6a07 	vstr	s12, [r4, #28]
 8004ad0:	6320      	str	r0, [r4, #48]	; 0x30
 8004ad2:	d1b9      	bne.n	8004a48 <computemydsp.constprop.0+0xcc>
 8004ad4:	f108 38ff 	add.w	r8, r8, #4294967295	; 0xffffffff
 8004ad8:	eb09 0988 	add.w	r9, r9, r8, lsl #2
 8004adc:	eb0a 0a88 	add.w	sl, sl, r8, lsl #2
 8004ae0:	6123      	str	r3, [r4, #16]
 8004ae2:	ed84 7a06 	vstr	s14, [r4, #24]
 8004ae6:	edc9 2a00 	vstr	s5, [r9]
 8004aea:	edc4 6a0b 	vstr	s13, [r4, #44]	; 0x2c
 8004aee:	edca 7a00 	vstr	s15, [sl]
 8004af2:	6163      	str	r3, [r4, #20]
 8004af4:	edc4 5a08 	vstr	s11, [r4, #32]
 8004af8:	ed84 6a07 	vstr	s12, [r4, #28]
 8004afc:	f8c4 c034 	str.w	ip, [r4, #52]	; 0x34
 8004b00:	6320      	str	r0, [r4, #48]	; 0x30
 8004b02:	ecbd 8b08 	vpop	{d8-d11}
 8004b06:	e8bd 8778 	ldmia.w	sp!, {r3, r4, r5, r6, r8, r9, sl, pc}
 8004b0a:	bf00      	nop
 8004b0c:	20000050 	.word	0x20000050
 8004b10:	30000000 	.word	0x30000000
 8004b14:	41c64e6d 	.word	0x41c64e6d

08004b18 <I2S_DMATxCplt>:
I2S_DMATxCplt():
 8004b18:	b508      	push	{r3, lr}
 8004b1a:	6803      	ldr	r3, [r0, #0]
 8004b1c:	6b82      	ldr	r2, [r0, #56]	; 0x38
 8004b1e:	681b      	ldr	r3, [r3, #0]
 8004b20:	6811      	ldr	r1, [r2, #0]
 8004b22:	f413 7380 	ands.w	r3, r3, #256	; 0x100
 8004b26:	d10e      	bne.n	8004b46 <I2S_DMATxCplt+0x2e>
 8004b28:	8553      	strh	r3, [r2, #42]	; 0x2a
 8004b2a:	684b      	ldr	r3, [r1, #4]
 8004b2c:	6a10      	ldr	r0, [r2, #32]
 8004b2e:	f023 0302 	bic.w	r3, r3, #2
 8004b32:	2801      	cmp	r0, #1
 8004b34:	604b      	str	r3, [r1, #4]
 8004b36:	d037      	beq.n	8004ba8 <I2S_DMATxCplt+0x90>
 8004b38:	f892 303d 	ldrb.w	r3, [r2, #61]	; 0x3d
 8004b3c:	2b32      	cmp	r3, #50	; 0x32
 8004b3e:	d041      	beq.n	8004bc4 <I2S_DMATxCplt+0xac>
 8004b40:	2301      	movs	r3, #1
 8004b42:	f882 303d 	strb.w	r3, [r2, #61]	; 0x3d
 8004b46:	4b22      	ldr	r3, [pc, #136]	; (8004bd0 <I2S_DMATxCplt+0xb8>)
 8004b48:	4299      	cmp	r1, r3
 8004b4a:	d000      	beq.n	8004b4e <I2S_DMATxCplt+0x36>
 8004b4c:	bd08      	pop	{r3, pc}
 8004b4e:	4a21      	ldr	r2, [pc, #132]	; (8004bd4 <I2S_DMATxCplt+0xbc>)
 8004b50:	4b21      	ldr	r3, [pc, #132]	; (8004bd8 <I2S_DMATxCplt+0xc0>)
 8004b52:	f44f 5100 	mov.w	r1, #8192	; 0x2000
 8004b56:	6818      	ldr	r0, [r3, #0]
 8004b58:	8351      	strh	r1, [r2, #26]
 8004b5a:	f44f 71fa 	mov.w	r1, #500	; 0x1f4
 8004b5e:	f7ff ff0d 	bl	800497c <computemydsp.constprop.0>
 8004b62:	4b1e      	ldr	r3, [pc, #120]	; (8004bdc <I2S_DMATxCplt+0xc4>)
 8004b64:	491e      	ldr	r1, [pc, #120]	; (8004be0 <I2S_DMATxCplt+0xc8>)
 8004b66:	4a1f      	ldr	r2, [pc, #124]	; (8004be4 <I2S_DMATxCplt+0xcc>)
 8004b68:	eddf 6a1f 	vldr	s13, [pc, #124]	; 8004be8 <I2S_DMATxCplt+0xd0>
 8004b6c:	f503 60fa 	add.w	r0, r3, #2000	; 0x7d0
 8004b70:	ecb1 7a01 	vldmia	r1!, {s14}
 8004b74:	ecf2 7a01 	vldmia	r2!, {s15}
 8004b78:	ee27 7a26 	vmul.f32	s14, s14, s13
 8004b7c:	ee67 7aa6 	vmul.f32	s15, s15, s13
 8004b80:	eebd 7ac7 	vcvt.s32.f32	s14, s14
 8004b84:	eefd 7ae7 	vcvt.s32.f32	s15, s15
 8004b88:	ee17 ca10 	vmov	ip, s14
 8004b8c:	f823 cc04 	strh.w	ip, [r3, #-4]
 8004b90:	ee17 ca90 	vmov	ip, s15
 8004b94:	3304      	adds	r3, #4
 8004b96:	f823 cc06 	strh.w	ip, [r3, #-6]
 8004b9a:	4298      	cmp	r0, r3
 8004b9c:	d1e8      	bne.n	8004b70 <I2S_DMATxCplt+0x58>
 8004b9e:	4b0d      	ldr	r3, [pc, #52]	; (8004bd4 <I2S_DMATxCplt+0xbc>)
 8004ba0:	f44f 5200 	mov.w	r2, #8192	; 0x2000
 8004ba4:	831a      	strh	r2, [r3, #24]
 8004ba6:	bd08      	pop	{r3, pc}
 8004ba8:	4810      	ldr	r0, [pc, #64]	; (8004bec <I2S_DMATxCplt+0xd4>)
 8004baa:	4b11      	ldr	r3, [pc, #68]	; (8004bf0 <I2S_DMATxCplt+0xd8>)
 8004bac:	4281      	cmp	r1, r0
 8004bae:	bf18      	it	ne
 8004bb0:	f04f 2340 	movne.w	r3, #1073758208	; 0x40004000
 8004bb4:	6858      	ldr	r0, [r3, #4]
 8004bb6:	f020 0001 	bic.w	r0, r0, #1
 8004bba:	6058      	str	r0, [r3, #4]
 8004bbc:	f892 303d 	ldrb.w	r3, [r2, #61]	; 0x3d
 8004bc0:	2b32      	cmp	r3, #50	; 0x32
 8004bc2:	d1bd      	bne.n	8004b40 <I2S_DMATxCplt+0x28>
 8004bc4:	8e53      	ldrh	r3, [r2, #50]	; 0x32
 8004bc6:	b29b      	uxth	r3, r3
 8004bc8:	2b00      	cmp	r3, #0
 8004bca:	d1bc      	bne.n	8004b46 <I2S_DMATxCplt+0x2e>
 8004bcc:	e7b8      	b.n	8004b40 <I2S_DMATxCplt+0x28>
 8004bce:	bf00      	nop
 8004bd0:	40003c00 	.word	0x40003c00
 8004bd4:	40020c00 	.word	0x40020c00
 8004bd8:	200015f0 	.word	0x200015f0
 8004bdc:	20000e20 	.word	0x20000e20
 8004be0:	20001fb0 	.word	0x20001fb0
 8004be4:	20002780 	.word	0x20002780
 8004be8:	46fffe00 	.word	0x46fffe00
 8004bec:	40003800 	.word	0x40003800
 8004bf0:	40003400 	.word	0x40003400

08004bf4 <I2S_DMATxHalfCplt>:
I2S_DMATxHalfCplt():
 8004bf4:	6b82      	ldr	r2, [r0, #56]	; 0x38
 8004bf6:	b508      	push	{r3, lr}
 8004bf8:	6812      	ldr	r2, [r2, #0]
 8004bfa:	4b18      	ldr	r3, [pc, #96]	; (8004c5c <I2S_DMATxHalfCplt+0x68>)
 8004bfc:	429a      	cmp	r2, r3
 8004bfe:	d000      	beq.n	8004c02 <I2S_DMATxHalfCplt+0xe>
 8004c00:	bd08      	pop	{r3, pc}
 8004c02:	4a17      	ldr	r2, [pc, #92]	; (8004c60 <I2S_DMATxHalfCplt+0x6c>)
 8004c04:	4b17      	ldr	r3, [pc, #92]	; (8004c64 <I2S_DMATxHalfCplt+0x70>)
 8004c06:	f44f 5100 	mov.w	r1, #8192	; 0x2000
 8004c0a:	6818      	ldr	r0, [r3, #0]
 8004c0c:	8351      	strh	r1, [r2, #26]
 8004c0e:	f44f 71fa 	mov.w	r1, #500	; 0x1f4
 8004c12:	f7ff feb3 	bl	800497c <computemydsp.constprop.0>
 8004c16:	4b14      	ldr	r3, [pc, #80]	; (8004c68 <I2S_DMATxHalfCplt+0x74>)
 8004c18:	4914      	ldr	r1, [pc, #80]	; (8004c6c <I2S_DMATxHalfCplt+0x78>)
 8004c1a:	4a15      	ldr	r2, [pc, #84]	; (8004c70 <I2S_DMATxHalfCplt+0x7c>)
 8004c1c:	eddf 6a15 	vldr	s13, [pc, #84]	; 8004c74 <I2S_DMATxHalfCplt+0x80>
 8004c20:	f503 60fa 	add.w	r0, r3, #2000	; 0x7d0
 8004c24:	ecb1 7a01 	vldmia	r1!, {s14}
 8004c28:	ecf2 7a01 	vldmia	r2!, {s15}
 8004c2c:	ee27 7a26 	vmul.f32	s14, s14, s13
 8004c30:	ee67 7aa6 	vmul.f32	s15, s15, s13
 8004c34:	eebd 7ac7 	vcvt.s32.f32	s14, s14
 8004c38:	eefd 7ae7 	vcvt.s32.f32	s15, s15
 8004c3c:	ee17 ca10 	vmov	ip, s14
 8004c40:	f823 cc04 	strh.w	ip, [r3, #-4]
 8004c44:	ee17 ca90 	vmov	ip, s15
 8004c48:	3304      	adds	r3, #4
 8004c4a:	f823 cc06 	strh.w	ip, [r3, #-6]
 8004c4e:	4298      	cmp	r0, r3
 8004c50:	d1e8      	bne.n	8004c24 <I2S_DMATxHalfCplt+0x30>
 8004c52:	4b03      	ldr	r3, [pc, #12]	; (8004c60 <I2S_DMATxHalfCplt+0x6c>)
 8004c54:	f44f 5200 	mov.w	r2, #8192	; 0x2000
 8004c58:	831a      	strh	r2, [r3, #24]
 8004c5a:	bd08      	pop	{r3, pc}
 8004c5c:	40003c00 	.word	0x40003c00
 8004c60:	40020c00 	.word	0x40020c00
 8004c64:	200015f0 	.word	0x200015f0
 8004c68:	20000650 	.word	0x20000650
 8004c6c:	20001fb0 	.word	0x20001fb0
 8004c70:	20002780 	.word	0x20002780
 8004c74:	46fffe00 	.word	0x46fffe00

08004c78 <HardFault_Handler>:
BSP_AUDIO_OUT_Error_CallBack():
 8004c78:	e7fe      	b.n	8004c78 <HardFault_Handler>
 8004c7a:	bf00      	nop

08004c7c <NMI_Handler>:
HAL_MspInit():
 8004c7c:	4770      	bx	lr
 8004c7e:	bf00      	nop

08004c80 <USBH_MIDI_InterfaceDeInit>:
USBH_MIDI_InterfaceDeInit():
 8004c80:	b570      	push	{r4, r5, r6, lr}
 8004c82:	f8d0 35c4 	ldr.w	r3, [r0, #1476]	; 0x5c4
 8004c86:	69dd      	ldr	r5, [r3, #28]
 8004c88:	78a9      	ldrb	r1, [r5, #2]
 8004c8a:	4604      	mov	r4, r0
 8004c8c:	b951      	cbnz	r1, 8004ca4 <USBH_MIDI_InterfaceDeInit+0x24>
 8004c8e:	7869      	ldrb	r1, [r5, #1]
 8004c90:	bb31      	cbnz	r1, 8004ce0 <USBH_MIDI_InterfaceDeInit+0x60>
 8004c92:	4628      	mov	r0, r5
 8004c94:	f003 ff74 	bl	8008b80 <free>
 8004c98:	f8d4 35c4 	ldr.w	r3, [r4, #1476]	; 0x5c4
 8004c9c:	2200      	movs	r2, #0
 8004c9e:	61da      	str	r2, [r3, #28]
 8004ca0:	2000      	movs	r0, #0
 8004ca2:	bd70      	pop	{r4, r5, r6, pc}
 8004ca4:	f8d0 6610 	ldr.w	r6, [r0, #1552]	; 0x610
 8004ca8:	f896 3288 	ldrb.w	r3, [r6, #648]	; 0x288
 8004cac:	2b01      	cmp	r3, #1
 8004cae:	d009      	beq.n	8004cc4 <USBH_MIDI_InterfaceDeInit+0x44>
 8004cb0:	2301      	movs	r3, #1
 8004cb2:	f886 3288 	strb.w	r3, [r6, #648]	; 0x288
 8004cb6:	6830      	ldr	r0, [r6, #0]
 8004cb8:	f7fb fbfc 	bl	80004b4 <USB_HC_Halt>
 8004cbc:	2300      	movs	r3, #0
 8004cbe:	f886 3288 	strb.w	r3, [r6, #648]	; 0x288
 8004cc2:	78a9      	ldrb	r1, [r5, #2]
 8004cc4:	290a      	cmp	r1, #10
 8004cc6:	d807      	bhi.n	8004cd8 <USBH_MIDI_InterfaceDeInit+0x58>
 8004cc8:	eb04 0181 	add.w	r1, r4, r1, lsl #2
 8004ccc:	f8d1 35cc 	ldr.w	r3, [r1, #1484]	; 0x5cc
 8004cd0:	f3c3 030e 	ubfx	r3, r3, #0, #15
 8004cd4:	f8c1 35cc 	str.w	r3, [r1, #1484]	; 0x5cc
 8004cd8:	7869      	ldrb	r1, [r5, #1]
 8004cda:	2300      	movs	r3, #0
 8004cdc:	70ab      	strb	r3, [r5, #2]
 8004cde:	b199      	cbz	r1, 8004d08 <USBH_MIDI_InterfaceDeInit+0x88>
 8004ce0:	f8d4 6610 	ldr.w	r6, [r4, #1552]	; 0x610
 8004ce4:	f896 3288 	ldrb.w	r3, [r6, #648]	; 0x288
 8004ce8:	2b01      	cmp	r3, #1
 8004cea:	d009      	beq.n	8004d00 <USBH_MIDI_InterfaceDeInit+0x80>
 8004cec:	2301      	movs	r3, #1
 8004cee:	f886 3288 	strb.w	r3, [r6, #648]	; 0x288
 8004cf2:	6830      	ldr	r0, [r6, #0]
 8004cf4:	f7fb fbde 	bl	80004b4 <USB_HC_Halt>
 8004cf8:	2300      	movs	r3, #0
 8004cfa:	f886 3288 	strb.w	r3, [r6, #648]	; 0x288
 8004cfe:	7869      	ldrb	r1, [r5, #1]
 8004d00:	290a      	cmp	r1, #10
 8004d02:	d908      	bls.n	8004d16 <USBH_MIDI_InterfaceDeInit+0x96>
 8004d04:	2300      	movs	r3, #0
 8004d06:	706b      	strb	r3, [r5, #1]
 8004d08:	f8d4 35c4 	ldr.w	r3, [r4, #1476]	; 0x5c4
 8004d0c:	69dd      	ldr	r5, [r3, #28]
 8004d0e:	2d00      	cmp	r5, #0
 8004d10:	d1bf      	bne.n	8004c92 <USBH_MIDI_InterfaceDeInit+0x12>
 8004d12:	2000      	movs	r0, #0
 8004d14:	bd70      	pop	{r4, r5, r6, pc}
 8004d16:	eb04 0181 	add.w	r1, r4, r1, lsl #2
 8004d1a:	f8d1 35cc 	ldr.w	r3, [r1, #1484]	; 0x5cc
 8004d1e:	f3c3 030e 	ubfx	r3, r3, #0, #15
 8004d22:	f8c1 35cc 	str.w	r3, [r1, #1484]	; 0x5cc
 8004d26:	e7ed      	b.n	8004d04 <USBH_MIDI_InterfaceDeInit+0x84>

08004d28 <USBH_CtlSendData.constprop.0.isra.0>:
USBH_CtlSendData.constprop.0.isra.0():
 8004d28:	b530      	push	{r4, r5, lr}
 8004d2a:	f8d0 4610 	ldr.w	r4, [r0, #1552]	; 0x610
 8004d2e:	f890 e21d 	ldrb.w	lr, [r0, #541]	; 0x21d
 8004d32:	eb03 0c83 	add.w	ip, r3, r3, lsl #2
 8004d36:	eb04 0ccc 	add.w	ip, r4, ip, lsl #3
 8004d3a:	2500      	movs	r5, #0
 8004d3c:	f88c 5033 	strb.w	r5, [ip, #51]	; 0x33
 8004d40:	f88c 5037 	strb.w	r5, [ip, #55]	; 0x37
 8004d44:	2502      	movs	r5, #2
 8004d46:	0098      	lsls	r0, r3, #2
 8004d48:	f88c 503a 	strb.w	r5, [ip, #58]	; 0x3a
 8004d4c:	bb4a      	cbnz	r2, 8004da2 <USBH_CtlSendData.constprop.0.isra.0+0x7a>
 8004d4e:	2501      	movs	r5, #1
 8004d50:	f88c 5049 	strb.w	r5, [ip, #73]	; 0x49
 8004d54:	2502      	movs	r5, #2
 8004d56:	eb00 0c03 	add.w	ip, r0, r3
 8004d5a:	eb04 0ccc 	add.w	ip, r4, ip, lsl #3
 8004d5e:	f88c 503a 	strb.w	r5, [ip, #58]	; 0x3a
 8004d62:	f89c 5054 	ldrb.w	r5, [ip, #84]	; 0x54
 8004d66:	2d02      	cmp	r5, #2
 8004d68:	d005      	beq.n	8004d76 <USBH_CtlSendData.constprop.0.isra.0+0x4e>
 8004d6a:	fabe fe8e 	clz	lr, lr
 8004d6e:	ea4f 1e5e 	mov.w	lr, lr, lsr #5
 8004d72:	f88c e035 	strb.w	lr, [ip, #53]	; 0x35
 8004d76:	4418      	add	r0, r3
 8004d78:	eb04 0cc0 	add.w	ip, r4, r0, lsl #3
 8004d7c:	f8cc 103c 	str.w	r1, [ip, #60]	; 0x3c
 8004d80:	2100      	movs	r1, #0
 8004d82:	e9cc 2110 	strd	r2, r1, [ip, #64]	; 0x40
 8004d86:	2228      	movs	r2, #40	; 0x28
 8004d88:	f8ac 1054 	strh.w	r1, [ip, #84]	; 0x54
 8004d8c:	f88c 3031 	strb.w	r3, [ip, #49]	; 0x31
 8004d90:	fb02 4103 	mla	r1, r2, r3, r4
 8004d94:	6820      	ldr	r0, [r4, #0]
 8004d96:	7c22      	ldrb	r2, [r4, #16]
 8004d98:	3130      	adds	r1, #48	; 0x30
 8004d9a:	e8bd 4030 	ldmia.w	sp!, {r4, r5, lr}
 8004d9e:	f7fb ba39 	b.w	8000214 <USB_HC_StartXfer>
 8004da2:	f89c 5049 	ldrb.w	r5, [ip, #73]	; 0x49
 8004da6:	2d00      	cmp	r5, #0
 8004da8:	d0d5      	beq.n	8004d56 <USBH_CtlSendData.constprop.0.isra.0+0x2e>
 8004daa:	e7d3      	b.n	8004d54 <USBH_CtlSendData.constprop.0.isra.0+0x2c>

08004dac <USBH_CtlReq.part.0>:
USBH_CtlReq.part.0():
 8004dac:	b570      	push	{r4, r5, r6, lr}
 8004dae:	7e05      	ldrb	r5, [r0, #24]
 8004db0:	1e6b      	subs	r3, r5, #1
 8004db2:	4604      	mov	r4, r0
 8004db4:	2b0a      	cmp	r3, #10
 8004db6:	d856      	bhi.n	8004e66 <USBH_CtlReq.part.0+0xba>
 8004db8:	e8df f013 	tbh	[pc, r3, lsl #1]
 8004dbc:	0046001d 	.word	0x0046001d
 8004dc0:	00f50057 	.word	0x00f50057
 8004dc4:	00e000d4 	.word	0x00e000d4
 8004dc8:	00a5007f 	.word	0x00a5007f
 8004dcc:	00c300b7 	.word	0x00c300b7
 8004dd0:	000b      	.short	0x000b
 8004dd2:	7e43      	ldrb	r3, [r0, #25]
 8004dd4:	3301      	adds	r3, #1
 8004dd6:	b2db      	uxtb	r3, r3
 8004dd8:	2b02      	cmp	r3, #2
 8004dda:	7643      	strb	r3, [r0, #25]
 8004ddc:	f240 80fd 	bls.w	8004fda <USBH_CtlReq.part.0+0x22e>
 8004de0:	f8d0 3614 	ldr.w	r3, [r0, #1556]	; 0x614
 8004de4:	2106      	movs	r1, #6
 8004de6:	4798      	blx	r3
 8004de8:	2300      	movs	r3, #0
 8004dea:	7663      	strb	r3, [r4, #25]
 8004dec:	2301      	movs	r3, #1
 8004dee:	2502      	movs	r5, #2
 8004df0:	70a3      	strb	r3, [r4, #2]
 8004df2:	4628      	mov	r0, r5
 8004df4:	bd70      	pop	{r4, r5, r6, pc}
 8004df6:	7941      	ldrb	r1, [r0, #5]
 8004df8:	f8d0 0610 	ldr.w	r0, [r0, #1552]	; 0x610
 8004dfc:	eb01 0281 	add.w	r2, r1, r1, lsl #2
 8004e00:	eb00 03c2 	add.w	r3, r0, r2, lsl #3
 8004e04:	f04f 0c03 	mov.w	ip, #3
 8004e08:	f883 c03a 	strb.w	ip, [r3, #58]	; 0x3a
 8004e0c:	f104 0c10 	add.w	ip, r4, #16
 8004e10:	2600      	movs	r6, #0
 8004e12:	f8c3 c03c 	str.w	ip, [r3, #60]	; 0x3c
 8004e16:	f04f 0c08 	mov.w	ip, #8
 8004e1a:	f883 1031 	strb.w	r1, [r3, #49]	; 0x31
 8004e1e:	f883 6033 	strb.w	r6, [r3, #51]	; 0x33
 8004e22:	f883 6037 	strb.w	r6, [r3, #55]	; 0x37
 8004e26:	f8a3 6054 	strh.w	r6, [r3, #84]	; 0x54
 8004e2a:	645e      	str	r6, [r3, #68]	; 0x44
 8004e2c:	f8c3 c040 	str.w	ip, [r3, #64]	; 0x40
 8004e30:	2328      	movs	r3, #40	; 0x28
 8004e32:	fb03 0101 	mla	r1, r3, r1, r0
 8004e36:	7c02      	ldrb	r2, [r0, #16]
 8004e38:	6800      	ldr	r0, [r0, #0]
 8004e3a:	3130      	adds	r1, #48	; 0x30
 8004e3c:	f7fb f9ea 	bl	8000214 <USB_HC_StartXfer>
 8004e40:	2302      	movs	r3, #2
 8004e42:	7623      	strb	r3, [r4, #24]
 8004e44:	4628      	mov	r0, r5
 8004e46:	bd70      	pop	{r4, r5, r6, pc}
 8004e48:	7943      	ldrb	r3, [r0, #5]
 8004e4a:	f8d0 2610 	ldr.w	r2, [r0, #1552]	; 0x610
 8004e4e:	eb03 0383 	add.w	r3, r3, r3, lsl #2
 8004e52:	eb02 02c3 	add.w	r2, r2, r3, lsl #3
 8004e56:	f892 5054 	ldrb.w	r5, [r2, #84]	; 0x54
 8004e5a:	2d01      	cmp	r5, #1
 8004e5c:	f000 80da 	beq.w	8005014 <USBH_CtlReq.part.0+0x268>
 8004e60:	2d04      	cmp	r5, #4
 8004e62:	f000 80b0 	beq.w	8004fc6 <USBH_CtlReq.part.0+0x21a>
 8004e66:	2501      	movs	r5, #1
 8004e68:	e7ec      	b.n	8004e44 <USBH_CtlReq.part.0+0x98>
 8004e6a:	7901      	ldrb	r1, [r0, #4]
 8004e6c:	f8d4 5608 	ldr.w	r5, [r4, #1544]	; 0x608
 8004e70:	f8d0 0610 	ldr.w	r0, [r0, #1552]	; 0x610
 8004e74:	89a6      	ldrh	r6, [r4, #12]
 8004e76:	81e5      	strh	r5, [r4, #14]
 8004e78:	eb01 0281 	add.w	r2, r1, r1, lsl #2
 8004e7c:	68a5      	ldr	r5, [r4, #8]
 8004e7e:	eb00 03c2 	add.w	r3, r0, r2, lsl #3
 8004e82:	e9c3 560f 	strd	r5, r6, [r3, #60]	; 0x3c
 8004e86:	f04f 0c02 	mov.w	ip, #2
 8004e8a:	2600      	movs	r6, #0
 8004e8c:	2501      	movs	r5, #1
 8004e8e:	f883 1031 	strb.w	r1, [r3, #49]	; 0x31
 8004e92:	f883 6037 	strb.w	r6, [r3, #55]	; 0x37
 8004e96:	f883 5033 	strb.w	r5, [r3, #51]	; 0x33
 8004e9a:	f883 c03a 	strb.w	ip, [r3, #58]	; 0x3a
 8004e9e:	f8a3 6054 	strh.w	r6, [r3, #84]	; 0x54
 8004ea2:	645e      	str	r6, [r3, #68]	; 0x44
 8004ea4:	2328      	movs	r3, #40	; 0x28
 8004ea6:	fb03 0101 	mla	r1, r3, r1, r0
 8004eaa:	7c02      	ldrb	r2, [r0, #16]
 8004eac:	6800      	ldr	r0, [r0, #0]
 8004eae:	3130      	adds	r1, #48	; 0x30
 8004eb0:	f7fb f9b0 	bl	8000214 <USB_HC_StartXfer>
 8004eb4:	2304      	movs	r3, #4
 8004eb6:	7623      	strb	r3, [r4, #24]
 8004eb8:	e7c4      	b.n	8004e44 <USBH_CtlReq.part.0+0x98>
 8004eba:	7901      	ldrb	r1, [r0, #4]
 8004ebc:	f8d0 0610 	ldr.w	r0, [r0, #1552]	; 0x610
 8004ec0:	eb01 0281 	add.w	r2, r1, r1, lsl #2
 8004ec4:	eb00 03c2 	add.w	r3, r0, r2, lsl #3
 8004ec8:	2600      	movs	r6, #0
 8004eca:	f04f 0c02 	mov.w	ip, #2
 8004ece:	2501      	movs	r5, #1
 8004ed0:	f883 1031 	strb.w	r1, [r3, #49]	; 0x31
 8004ed4:	f883 5033 	strb.w	r5, [r3, #51]	; 0x33
 8004ed8:	f883 6037 	strb.w	r6, [r3, #55]	; 0x37
 8004edc:	f883 c03a 	strb.w	ip, [r3, #58]	; 0x3a
 8004ee0:	f8a3 6054 	strh.w	r6, [r3, #84]	; 0x54
 8004ee4:	e9c3 660f 	strd	r6, r6, [r3, #60]	; 0x3c
 8004ee8:	645e      	str	r6, [r3, #68]	; 0x44
 8004eea:	2328      	movs	r3, #40	; 0x28
 8004eec:	fb03 0101 	mla	r1, r3, r1, r0
 8004ef0:	7c02      	ldrb	r2, [r0, #16]
 8004ef2:	6800      	ldr	r0, [r0, #0]
 8004ef4:	3130      	adds	r1, #48	; 0x30
 8004ef6:	f7fb f98d 	bl	8000214 <USB_HC_StartXfer>
 8004efa:	f8d4 2608 	ldr.w	r2, [r4, #1544]	; 0x608
 8004efe:	81e2      	strh	r2, [r4, #14]
 8004f00:	2308      	movs	r3, #8
 8004f02:	7623      	strb	r3, [r4, #24]
 8004f04:	e79e      	b.n	8004e44 <USBH_CtlReq.part.0+0x98>
 8004f06:	7903      	ldrb	r3, [r0, #4]
 8004f08:	f8d0 2610 	ldr.w	r2, [r0, #1552]	; 0x610
 8004f0c:	eb03 0383 	add.w	r3, r3, r3, lsl #2
 8004f10:	eb02 02c3 	add.w	r2, r2, r3, lsl #3
 8004f14:	f892 3054 	ldrb.w	r3, [r2, #84]	; 0x54
 8004f18:	2b01      	cmp	r3, #1
 8004f1a:	d058      	beq.n	8004fce <USBH_CtlReq.part.0+0x222>
 8004f1c:	2b04      	cmp	r3, #4
 8004f1e:	d052      	beq.n	8004fc6 <USBH_CtlReq.part.0+0x21a>
 8004f20:	2b05      	cmp	r3, #5
 8004f22:	bf14      	ite	ne
 8004f24:	2501      	movne	r5, #1
 8004f26:	2503      	moveq	r5, #3
 8004f28:	e78c      	b.n	8004e44 <USBH_CtlReq.part.0+0x98>
 8004f2a:	2200      	movs	r2, #0
 8004f2c:	7943      	ldrb	r3, [r0, #5]
 8004f2e:	4611      	mov	r1, r2
 8004f30:	f7ff fefa 	bl	8004d28 <USBH_CtlSendData.constprop.0.isra.0>
 8004f34:	f8d4 2608 	ldr.w	r2, [r4, #1544]	; 0x608
 8004f38:	81e2      	strh	r2, [r4, #14]
 8004f3a:	230a      	movs	r3, #10
 8004f3c:	7623      	strb	r3, [r4, #24]
 8004f3e:	2501      	movs	r5, #1
 8004f40:	e780      	b.n	8004e44 <USBH_CtlReq.part.0+0x98>
 8004f42:	7943      	ldrb	r3, [r0, #5]
 8004f44:	f8d0 2610 	ldr.w	r2, [r0, #1552]	; 0x610
 8004f48:	eb03 0383 	add.w	r3, r3, r3, lsl #2
 8004f4c:	eb02 02c3 	add.w	r2, r2, r3, lsl #3
 8004f50:	f892 3054 	ldrb.w	r3, [r2, #84]	; 0x54
 8004f54:	2b01      	cmp	r3, #1
 8004f56:	d03a      	beq.n	8004fce <USBH_CtlReq.part.0+0x222>
 8004f58:	2b02      	cmp	r3, #2
 8004f5a:	d131      	bne.n	8004fc0 <USBH_CtlReq.part.0+0x214>
 8004f5c:	2309      	movs	r3, #9
 8004f5e:	7623      	strb	r3, [r4, #24]
 8004f60:	2501      	movs	r5, #1
 8004f62:	e76f      	b.n	8004e44 <USBH_CtlReq.part.0+0x98>
 8004f64:	7943      	ldrb	r3, [r0, #5]
 8004f66:	8982      	ldrh	r2, [r0, #12]
 8004f68:	6881      	ldr	r1, [r0, #8]
 8004f6a:	f7ff fedd 	bl	8004d28 <USBH_CtlSendData.constprop.0.isra.0>
 8004f6e:	f8d4 2608 	ldr.w	r2, [r4, #1544]	; 0x608
 8004f72:	81e2      	strh	r2, [r4, #14]
 8004f74:	2306      	movs	r3, #6
 8004f76:	7623      	strb	r3, [r4, #24]
 8004f78:	2501      	movs	r5, #1
 8004f7a:	e763      	b.n	8004e44 <USBH_CtlReq.part.0+0x98>
 8004f7c:	7943      	ldrb	r3, [r0, #5]
 8004f7e:	f8d0 2610 	ldr.w	r2, [r0, #1552]	; 0x610
 8004f82:	eb03 0383 	add.w	r3, r3, r3, lsl #2
 8004f86:	eb02 02c3 	add.w	r2, r2, r3, lsl #3
 8004f8a:	f892 3054 	ldrb.w	r3, [r2, #84]	; 0x54
 8004f8e:	2b01      	cmp	r3, #1
 8004f90:	d03c      	beq.n	800500c <USBH_CtlReq.part.0+0x260>
 8004f92:	2b05      	cmp	r3, #5
 8004f94:	d034      	beq.n	8005000 <USBH_CtlReq.part.0+0x254>
 8004f96:	2b02      	cmp	r3, #2
 8004f98:	d042      	beq.n	8005020 <USBH_CtlReq.part.0+0x274>
 8004f9a:	2b04      	cmp	r3, #4
 8004f9c:	f47f af63 	bne.w	8004e66 <USBH_CtlReq.part.0+0xba>
 8004fa0:	230b      	movs	r3, #11
 8004fa2:	7603      	strb	r3, [r0, #24]
 8004fa4:	e722      	b.n	8004dec <USBH_CtlReq.part.0+0x40>
 8004fa6:	7903      	ldrb	r3, [r0, #4]
 8004fa8:	f8d0 2610 	ldr.w	r2, [r0, #1552]	; 0x610
 8004fac:	eb03 0383 	add.w	r3, r3, r3, lsl #2
 8004fb0:	eb02 02c3 	add.w	r2, r2, r3, lsl #3
 8004fb4:	f892 3054 	ldrb.w	r3, [r2, #84]	; 0x54
 8004fb8:	2b01      	cmp	r3, #1
 8004fba:	d0cf      	beq.n	8004f5c <USBH_CtlReq.part.0+0x1b0>
 8004fbc:	2b05      	cmp	r3, #5
 8004fbe:	d036      	beq.n	800502e <USBH_CtlReq.part.0+0x282>
 8004fc0:	2b04      	cmp	r3, #4
 8004fc2:	f47f af50 	bne.w	8004e66 <USBH_CtlReq.part.0+0xba>
 8004fc6:	230b      	movs	r3, #11
 8004fc8:	7623      	strb	r3, [r4, #24]
 8004fca:	2501      	movs	r5, #1
 8004fcc:	e73a      	b.n	8004e44 <USBH_CtlReq.part.0+0x98>
 8004fce:	2500      	movs	r5, #0
 8004fd0:	2301      	movs	r3, #1
 8004fd2:	70a3      	strb	r3, [r4, #2]
 8004fd4:	7625      	strb	r5, [r4, #24]
 8004fd6:	4628      	mov	r0, r5
 8004fd8:	bd70      	pop	{r4, r5, r6, pc}
 8004fda:	f8d0 5610 	ldr.w	r5, [r0, #1552]	; 0x610
 8004fde:	f895 3288 	ldrb.w	r3, [r5, #648]	; 0x288
 8004fe2:	2b01      	cmp	r3, #1
 8004fe4:	d008      	beq.n	8004ff8 <USBH_CtlReq.part.0+0x24c>
 8004fe6:	2301      	movs	r3, #1
 8004fe8:	f885 3288 	strb.w	r3, [r5, #648]	; 0x288
 8004fec:	6828      	ldr	r0, [r5, #0]
 8004fee:	f7fb fb9b 	bl	8000728 <USB_StopHost>
 8004ff2:	2300      	movs	r3, #0
 8004ff4:	f885 3288 	strb.w	r3, [r5, #648]	; 0x288
 8004ff8:	2501      	movs	r5, #1
 8004ffa:	7625      	strb	r5, [r4, #24]
 8004ffc:	70a5      	strb	r5, [r4, #2]
 8004ffe:	e721      	b.n	8004e44 <USBH_CtlReq.part.0+0x98>
 8005000:	230c      	movs	r3, #12
 8005002:	7603      	strb	r3, [r0, #24]
 8005004:	2503      	movs	r5, #3
 8005006:	e71d      	b.n	8004e44 <USBH_CtlReq.part.0+0x98>
 8005008:	061b      	lsls	r3, r3, #24
 800500a:	d4a7      	bmi.n	8004f5c <USBH_CtlReq.part.0+0x1b0>
 800500c:	2307      	movs	r3, #7
 800500e:	7623      	strb	r3, [r4, #24]
 8005010:	2501      	movs	r5, #1
 8005012:	e717      	b.n	8004e44 <USBH_CtlReq.part.0+0x98>
 8005014:	8ac2      	ldrh	r2, [r0, #22]
 8005016:	7c03      	ldrb	r3, [r0, #16]
 8005018:	2a00      	cmp	r2, #0
 800501a:	d0f5      	beq.n	8005008 <USBH_CtlReq.part.0+0x25c>
 800501c:	061a      	lsls	r2, r3, #24
 800501e:	d403      	bmi.n	8005028 <USBH_CtlReq.part.0+0x27c>
 8005020:	2305      	movs	r3, #5
 8005022:	7623      	strb	r3, [r4, #24]
 8005024:	2501      	movs	r5, #1
 8005026:	e70d      	b.n	8004e44 <USBH_CtlReq.part.0+0x98>
 8005028:	2303      	movs	r3, #3
 800502a:	7603      	strb	r3, [r0, #24]
 800502c:	e70a      	b.n	8004e44 <USBH_CtlReq.part.0+0x98>
 800502e:	2503      	movs	r5, #3
 8005030:	e708      	b.n	8004e44 <USBH_CtlReq.part.0+0x98>
 8005032:	bf00      	nop

08005034 <USBH_MIDI_Process>:
USBH_MIDI_Process():
 8005034:	e92d 4f70 	stmdb	sp!, {r4, r5, r6, r8, r9, sl, fp, lr}
 8005038:	f8d0 35c4 	ldr.w	r3, [r0, #1476]	; 0x5c4
 800503c:	69de      	ldr	r6, [r3, #28]
 800503e:	7834      	ldrb	r4, [r6, #0]
 8005040:	2c01      	cmp	r4, #1
 8005042:	b084      	sub	sp, #16
 8005044:	4605      	mov	r5, r0
 8005046:	d007      	beq.n	8005058 <USBH_MIDI_Process+0x24>
 8005048:	2c02      	cmp	r4, #2
 800504a:	d03b      	beq.n	80050c4 <USBH_MIDI_Process+0x90>
 800504c:	b104      	cbz	r4, 8005050 <USBH_MIDI_Process+0x1c>
 800504e:	2401      	movs	r4, #1
 8005050:	4620      	mov	r0, r4
 8005052:	b004      	add	sp, #16
 8005054:	e8bd 8f70 	ldmia.w	sp!, {r4, r5, r6, r8, r9, sl, fp, pc}
 8005058:	7e33      	ldrb	r3, [r6, #24]
 800505a:	2b01      	cmp	r3, #1
 800505c:	d048      	beq.n	80050f0 <USBH_MIDI_Process+0xbc>
 800505e:	2b02      	cmp	r3, #2
 8005060:	d10e      	bne.n	8005080 <USBH_MIDI_Process+0x4c>
 8005062:	78b3      	ldrb	r3, [r6, #2]
 8005064:	f8d0 2610 	ldr.w	r2, [r0, #1552]	; 0x610
 8005068:	eb03 0383 	add.w	r3, r3, r3, lsl #2
 800506c:	eb02 02c3 	add.w	r2, r2, r3, lsl #3
 8005070:	f892 3054 	ldrb.w	r3, [r2, #84]	; 0x54
 8005074:	2b01      	cmp	r3, #1
 8005076:	f000 80e4 	beq.w	8005242 <USBH_MIDI_Process+0x20e>
 800507a:	2b02      	cmp	r3, #2
 800507c:	bf08      	it	eq
 800507e:	7634      	strbeq	r4, [r6, #24]
 8005080:	7e73      	ldrb	r3, [r6, #25]
 8005082:	2b03      	cmp	r3, #3
 8005084:	d07e      	beq.n	8005184 <USBH_MIDI_Process+0x150>
 8005086:	2b04      	cmp	r3, #4
 8005088:	d1e1      	bne.n	800504e <USBH_MIDI_Process+0x1a>
 800508a:	7873      	ldrb	r3, [r6, #1]
 800508c:	f8d5 2610 	ldr.w	r2, [r5, #1552]	; 0x610
 8005090:	eb03 0383 	add.w	r3, r3, r3, lsl #2
 8005094:	eb02 03c3 	add.w	r3, r2, r3, lsl #3
 8005098:	f893 4054 	ldrb.w	r4, [r3, #84]	; 0x54
 800509c:	2c01      	cmp	r4, #1
 800509e:	d1d6      	bne.n	800504e <USBH_MIDI_Process+0x1a>
 80050a0:	6c5b      	ldr	r3, [r3, #68]	; 0x44
 80050a2:	8af2      	ldrh	r2, [r6, #22]
 80050a4:	b299      	uxth	r1, r3
 80050a6:	428a      	cmp	r2, r1
 80050a8:	f340 80da 	ble.w	8005260 <USBH_MIDI_Process+0x22c>
 80050ac:	8930      	ldrh	r0, [r6, #8]
 80050ae:	4288      	cmp	r0, r1
 80050b0:	f080 80d6 	bcs.w	8005260 <USBH_MIDI_Process+0x22c>
 80050b4:	6930      	ldr	r0, [r6, #16]
 80050b6:	1a52      	subs	r2, r2, r1
 80050b8:	4408      	add	r0, r1
 80050ba:	2303      	movs	r3, #3
 80050bc:	82f2      	strh	r2, [r6, #22]
 80050be:	6130      	str	r0, [r6, #16]
 80050c0:	7673      	strb	r3, [r6, #25]
 80050c2:	e7c5      	b.n	8005050 <USBH_MIDI_Process+0x1c>
 80050c4:	7884      	ldrb	r4, [r0, #2]
 80050c6:	2c01      	cmp	r4, #1
 80050c8:	d007      	beq.n	80050da <USBH_MIDI_Process+0xa6>
 80050ca:	2c02      	cmp	r4, #2
 80050cc:	d1bf      	bne.n	800504e <USBH_MIDI_Process+0x1a>
 80050ce:	f7ff fe6d 	bl	8004dac <USBH_CtlReq.part.0>
 80050d2:	2800      	cmp	r0, #0
 80050d4:	d1bb      	bne.n	800504e <USBH_MIDI_Process+0x1a>
 80050d6:	7030      	strb	r0, [r6, #0]
 80050d8:	e7b9      	b.n	800504e <USBH_MIDI_Process+0x1a>
 80050da:	2300      	movs	r3, #0
 80050dc:	f44f 7181 	mov.w	r1, #258	; 0x102
 80050e0:	2202      	movs	r2, #2
 80050e2:	e9c0 1304 	strd	r1, r3, [r0, #16]
 80050e6:	6083      	str	r3, [r0, #8]
 80050e8:	8183      	strh	r3, [r0, #12]
 80050ea:	7604      	strb	r4, [r0, #24]
 80050ec:	7082      	strb	r2, [r0, #2]
 80050ee:	e7af      	b.n	8005050 <USBH_MIDI_Process+0x1c>
 80050f0:	f8b6 c014 	ldrh.w	ip, [r6, #20]
 80050f4:	f8b6 e006 	ldrh.w	lr, [r6, #6]
 80050f8:	78b1      	ldrb	r1, [r6, #2]
 80050fa:	45f4      	cmp	ip, lr
 80050fc:	d873      	bhi.n	80051e6 <USBH_MIDI_Process+0x1b2>
 80050fe:	f8d0 0610 	ldr.w	r0, [r0, #1552]	; 0x610
 8005102:	f8d6 e00c 	ldr.w	lr, [r6, #12]
 8005106:	f895 821d 	ldrb.w	r8, [r5, #541]	; 0x21d
 800510a:	eb01 0281 	add.w	r2, r1, r1, lsl #2
 800510e:	eb00 02c2 	add.w	r2, r0, r2, lsl #3
 8005112:	f04f 0900 	mov.w	r9, #0
 8005116:	f892 3049 	ldrb.w	r3, [r2, #73]	; 0x49
 800511a:	f892 a054 	ldrb.w	sl, [r2, #84]	; 0x54
 800511e:	f882 9033 	strb.w	r9, [r2, #51]	; 0x33
 8005122:	ebb3 0309 	subs.w	r3, r3, r9
 8005126:	f04f 0b02 	mov.w	fp, #2
 800512a:	bf18      	it	ne
 800512c:	2301      	movne	r3, #1
 800512e:	005b      	lsls	r3, r3, #1
 8005130:	45da      	cmp	sl, fp
 8005132:	f882 303a 	strb.w	r3, [r2, #58]	; 0x3a
 8005136:	f882 b037 	strb.w	fp, [r2, #55]	; 0x37
 800513a:	fa01 f30b 	lsl.w	r3, r1, fp
 800513e:	d005      	beq.n	800514c <USBH_MIDI_Process+0x118>
 8005140:	fab8 f888 	clz	r8, r8
 8005144:	ea4f 1858 	mov.w	r8, r8, lsr #5
 8005148:	f882 8035 	strb.w	r8, [r2, #53]	; 0x35
 800514c:	440b      	add	r3, r1
 800514e:	eb00 02c3 	add.w	r2, r0, r3, lsl #3
 8005152:	e9c2 ec0f 	strd	lr, ip, [r2, #60]	; 0x3c
 8005156:	4613      	mov	r3, r2
 8005158:	f04f 0c00 	mov.w	ip, #0
 800515c:	f883 1031 	strb.w	r1, [r3, #49]	; 0x31
 8005160:	f8c3 c044 	str.w	ip, [r3, #68]	; 0x44
 8005164:	2328      	movs	r3, #40	; 0x28
 8005166:	fb03 0101 	mla	r1, r3, r1, r0
 800516a:	f8a2 c054 	strh.w	ip, [r2, #84]	; 0x54
 800516e:	7c02      	ldrb	r2, [r0, #16]
 8005170:	6800      	ldr	r0, [r0, #0]
 8005172:	3130      	adds	r1, #48	; 0x30
 8005174:	f7fb f84e 	bl	8000214 <USB_HC_StartXfer>
 8005178:	2302      	movs	r3, #2
 800517a:	7633      	strb	r3, [r6, #24]
 800517c:	f8d5 35c4 	ldr.w	r3, [r5, #1476]	; 0x5c4
 8005180:	69de      	ldr	r6, [r3, #28]
 8005182:	e77d      	b.n	8005080 <USBH_MIDI_Process+0x4c>
 8005184:	7871      	ldrb	r1, [r6, #1]
 8005186:	f8d5 5610 	ldr.w	r5, [r5, #1552]	; 0x610
 800518a:	f8d6 c010 	ldr.w	ip, [r6, #16]
 800518e:	f8b6 e008 	ldrh.w	lr, [r6, #8]
 8005192:	eb01 0281 	add.w	r2, r1, r1, lsl #2
 8005196:	eb05 03c2 	add.w	r3, r5, r2, lsl #3
 800519a:	f103 0050 	add.w	r0, r3, #80	; 0x50
 800519e:	f893 2048 	ldrb.w	r2, [r3, #72]	; 0x48
 80051a2:	f8c3 c03c 	str.w	ip, [r3, #60]	; 0x3c
 80051a6:	3a00      	subs	r2, #0
 80051a8:	bf18      	it	ne
 80051aa:	2201      	movne	r2, #1
 80051ac:	0052      	lsls	r2, r2, #1
 80051ae:	f04f 0c01 	mov.w	ip, #1
 80051b2:	f883 203a 	strb.w	r2, [r3, #58]	; 0x3a
 80051b6:	f883 c033 	strb.w	ip, [r3, #51]	; 0x33
 80051ba:	2200      	movs	r2, #0
 80051bc:	f04f 0c02 	mov.w	ip, #2
 80051c0:	f883 1031 	strb.w	r1, [r3, #49]	; 0x31
 80051c4:	f883 c037 	strb.w	ip, [r3, #55]	; 0x37
 80051c8:	645a      	str	r2, [r3, #68]	; 0x44
 80051ca:	f8c3 e040 	str.w	lr, [r3, #64]	; 0x40
 80051ce:	2328      	movs	r3, #40	; 0x28
 80051d0:	8082      	strh	r2, [r0, #4]
 80051d2:	fb03 5101 	mla	r1, r3, r1, r5
 80051d6:	7c2a      	ldrb	r2, [r5, #16]
 80051d8:	6828      	ldr	r0, [r5, #0]
 80051da:	3130      	adds	r1, #48	; 0x30
 80051dc:	f7fb f81a 	bl	8000214 <USB_HC_StartXfer>
 80051e0:	2304      	movs	r3, #4
 80051e2:	7673      	strb	r3, [r6, #25]
 80051e4:	e734      	b.n	8005050 <USBH_MIDI_Process+0x1c>
 80051e6:	f8d0 0610 	ldr.w	r0, [r0, #1552]	; 0x610
 80051ea:	f8d6 c00c 	ldr.w	ip, [r6, #12]
 80051ee:	f895 821d 	ldrb.w	r8, [r5, #541]	; 0x21d
 80051f2:	eb01 0281 	add.w	r2, r1, r1, lsl #2
 80051f6:	eb00 02c2 	add.w	r2, r0, r2, lsl #3
 80051fa:	f04f 0900 	mov.w	r9, #0
 80051fe:	f892 3049 	ldrb.w	r3, [r2, #73]	; 0x49
 8005202:	f892 a054 	ldrb.w	sl, [r2, #84]	; 0x54
 8005206:	f882 9033 	strb.w	r9, [r2, #51]	; 0x33
 800520a:	ebb3 0309 	subs.w	r3, r3, r9
 800520e:	f04f 0b02 	mov.w	fp, #2
 8005212:	bf18      	it	ne
 8005214:	2301      	movne	r3, #1
 8005216:	005b      	lsls	r3, r3, #1
 8005218:	45da      	cmp	sl, fp
 800521a:	f882 303a 	strb.w	r3, [r2, #58]	; 0x3a
 800521e:	f882 b037 	strb.w	fp, [r2, #55]	; 0x37
 8005222:	fa01 f30b 	lsl.w	r3, r1, fp
 8005226:	d005      	beq.n	8005234 <USBH_MIDI_Process+0x200>
 8005228:	fab8 f888 	clz	r8, r8
 800522c:	ea4f 1858 	mov.w	r8, r8, lsr #5
 8005230:	f882 8035 	strb.w	r8, [r2, #53]	; 0x35
 8005234:	440b      	add	r3, r1
 8005236:	eb00 02c3 	add.w	r2, r0, r3, lsl #3
 800523a:	e9c2 ce0f 	strd	ip, lr, [r2, #60]	; 0x3c
 800523e:	4613      	mov	r3, r2
 8005240:	e78a      	b.n	8005158 <USBH_MIDI_Process+0x124>
 8005242:	8ab3      	ldrh	r3, [r6, #20]
 8005244:	88f2      	ldrh	r2, [r6, #6]
 8005246:	4293      	cmp	r3, r2
 8005248:	d803      	bhi.n	8005252 <USBH_MIDI_Process+0x21e>
 800524a:	2300      	movs	r3, #0
 800524c:	82b3      	strh	r3, [r6, #20]
 800524e:	7633      	strb	r3, [r6, #24]
 8005250:	e716      	b.n	8005080 <USBH_MIDI_Process+0x4c>
 8005252:	68f1      	ldr	r1, [r6, #12]
 8005254:	7634      	strb	r4, [r6, #24]
 8005256:	1a9b      	subs	r3, r3, r2
 8005258:	4411      	add	r1, r2
 800525a:	60f1      	str	r1, [r6, #12]
 800525c:	82b3      	strh	r3, [r6, #20]
 800525e:	e70f      	b.n	8005080 <USBH_MIDI_Process+0x4c>
 8005260:	4a60      	ldr	r2, [pc, #384]	; (80053e4 <USBH_MIDI_Process+0x3b0>)
 8005262:	f04f 0800 	mov.w	r8, #0
 8005266:	f886 8019 	strb.w	r8, [r6, #25]
 800526a:	f8d2 15c4 	ldr.w	r1, [r2, #1476]	; 0x5c4
 800526e:	7813      	ldrb	r3, [r2, #0]
 8005270:	69c9      	ldr	r1, [r1, #28]
 8005272:	9102      	str	r1, [sp, #8]
 8005274:	2b0a      	cmp	r3, #10
 8005276:	d00d      	beq.n	8005294 <USBH_MIDI_Process+0x260>
 8005278:	9d02      	ldr	r5, [sp, #8]
 800527a:	782b      	ldrb	r3, [r5, #0]
 800527c:	2b01      	cmp	r3, #1
 800527e:	f63f aee6 	bhi.w	800504e <USBH_MIDI_Process+0x1a>
 8005282:	4859      	ldr	r0, [pc, #356]	; (80053e8 <USBH_MIDI_Process+0x3b4>)
 8005284:	6128      	str	r0, [r5, #16]
 8005286:	2140      	movs	r1, #64	; 0x40
 8005288:	2201      	movs	r2, #1
 800528a:	2303      	movs	r3, #3
 800528c:	82e9      	strh	r1, [r5, #22]
 800528e:	702a      	strb	r2, [r5, #0]
 8005290:	766b      	strb	r3, [r5, #25]
 8005292:	e6dd      	b.n	8005050 <USBH_MIDI_Process+0x1c>
 8005294:	784b      	ldrb	r3, [r1, #1]
 8005296:	f8d2 2610 	ldr.w	r2, [r2, #1552]	; 0x610
 800529a:	eb03 0383 	add.w	r3, r3, r3, lsl #2
 800529e:	eb02 03c3 	add.w	r3, r2, r3, lsl #3
 80052a2:	f8b3 3044 	ldrh.w	r3, [r3, #68]	; 0x44
 80052a6:	089b      	lsrs	r3, r3, #2
 80052a8:	1e5a      	subs	r2, r3, #1
 80052aa:	b292      	uxth	r2, r2
 80052ac:	2b00      	cmp	r3, #0
 80052ae:	d0e3      	beq.n	8005278 <USBH_MIDI_Process+0x244>
 80052b0:	4b4e      	ldr	r3, [pc, #312]	; (80053ec <USBH_MIDI_Process+0x3b8>)
 80052b2:	484f      	ldr	r0, [pc, #316]	; (80053f0 <USBH_MIDI_Process+0x3bc>)
 80052b4:	f993 1000 	ldrsb.w	r1, [r3]
 80052b8:	4b4e      	ldr	r3, [pc, #312]	; (80053f4 <USBH_MIDI_Process+0x3c0>)
 80052ba:	f990 e000 	ldrsb.w	lr, [r0]
 80052be:	f8df a140 	ldr.w	sl, [pc, #320]	; 8005400 <USBH_MIDI_Process+0x3cc>
 80052c2:	f8cd 8004 	str.w	r8, [sp, #4]
 80052c6:	1d1e      	adds	r6, r3, #4
 80052c8:	eb06 0682 	add.w	r6, r6, r2, lsl #2
 80052cc:	46c1      	mov	r9, r8
 80052ce:	46c3      	mov	fp, r8
 80052d0:	9403      	str	r4, [sp, #12]
 80052d2:	e004      	b.n	80052de <USBH_MIDI_Process+0x2aa>
 80052d4:	2a90      	cmp	r2, #144	; 0x90
 80052d6:	d022      	beq.n	800531e <USBH_MIDI_Process+0x2ea>
 80052d8:	3304      	adds	r3, #4
 80052da:	429e      	cmp	r6, r3
 80052dc:	d03c      	beq.n	8005358 <USBH_MIDI_Process+0x324>
 80052de:	f813 5c04 	ldrb.w	r5, [r3, #-4]
 80052e2:	f813 2c03 	ldrb.w	r2, [r3, #-3]
 80052e6:	f813 0c02 	ldrb.w	r0, [r3, #-2]
 80052ea:	f813 cc01 	ldrb.w	ip, [r3, #-1]
 80052ee:	b97d      	cbnz	r5, 8005310 <USBH_MIDI_Process+0x2dc>
 80052f0:	f002 02f0 	and.w	r2, r2, #240	; 0xf0
 80052f4:	2a80      	cmp	r2, #128	; 0x80
 80052f6:	d1ed      	bne.n	80052d4 <USBH_MIDI_Process+0x2a0>
 80052f8:	3901      	subs	r1, #1
 80052fa:	b249      	sxtb	r1, r1
 80052fc:	2900      	cmp	r1, #0
 80052fe:	f80a b000 	strb.w	fp, [sl, r0]
 8005302:	dd25      	ble.n	8005350 <USBH_MIDI_Process+0x31c>
 8005304:	3815      	subs	r0, #21
 8005306:	4570      	cmp	r0, lr
 8005308:	d059      	beq.n	80053be <USBH_MIDI_Process+0x38a>
 800530a:	f04f 0901 	mov.w	r9, #1
 800530e:	e7e3      	b.n	80052d8 <USBH_MIDI_Process+0x2a4>
 8005310:	4d39      	ldr	r5, [pc, #228]	; (80053f8 <USBH_MIDI_Process+0x3c4>)
 8005312:	f248 0400 	movw	r4, #32768	; 0x8000
 8005316:	832c      	strh	r4, [r5, #24]
 8005318:	2501      	movs	r5, #1
 800531a:	9501      	str	r5, [sp, #4]
 800531c:	e7e8      	b.n	80052f0 <USBH_MIDI_Process+0x2bc>
 800531e:	fa4f fc8c 	sxtb.w	ip, ip
 8005322:	f1bc 0f00 	cmp.w	ip, #0
 8005326:	dd2a      	ble.n	800537e <USBH_MIDI_Process+0x34a>
 8005328:	2814      	cmp	r0, #20
 800532a:	bf88      	it	hi
 800532c:	f1a0 0e15 	subhi.w	lr, r0, #21
 8005330:	f04f 0201 	mov.w	r2, #1
 8005334:	f101 0101 	add.w	r1, r1, #1
 8005338:	f04f 0801 	mov.w	r8, #1
 800533c:	f80a 2000 	strb.w	r2, [sl, r0]
 8005340:	bf8c      	ite	hi
 8005342:	fa4f fe8e 	sxtbhi.w	lr, lr
 8005346:	f04f 0e00 	movls.w	lr, #0
 800534a:	b249      	sxtb	r1, r1
 800534c:	46c1      	mov	r9, r8
 800534e:	e7c3      	b.n	80052d8 <USBH_MIDI_Process+0x2a4>
 8005350:	f04f 0901 	mov.w	r9, #1
 8005354:	2100      	movs	r1, #0
 8005356:	e7bf      	b.n	80052d8 <USBH_MIDI_Process+0x2a4>
 8005358:	9c03      	ldr	r4, [sp, #12]
 800535a:	f1b8 0f00 	cmp.w	r8, #0
 800535e:	d002      	beq.n	8005366 <USBH_MIDI_Process+0x332>
 8005360:	4b23      	ldr	r3, [pc, #140]	; (80053f0 <USBH_MIDI_Process+0x3bc>)
 8005362:	f883 e000 	strb.w	lr, [r3]
 8005366:	f1b9 0f00 	cmp.w	r9, #0
 800536a:	d001      	beq.n	8005370 <USBH_MIDI_Process+0x33c>
 800536c:	4b1f      	ldr	r3, [pc, #124]	; (80053ec <USBH_MIDI_Process+0x3b8>)
 800536e:	7019      	strb	r1, [r3, #0]
 8005370:	9b01      	ldr	r3, [sp, #4]
 8005372:	2b00      	cmp	r3, #0
 8005374:	d080      	beq.n	8005278 <USBH_MIDI_Process+0x244>
 8005376:	4b21      	ldr	r3, [pc, #132]	; (80053fc <USBH_MIDI_Process+0x3c8>)
 8005378:	2208      	movs	r2, #8
 800537a:	60da      	str	r2, [r3, #12]
 800537c:	e77c      	b.n	8005278 <USBH_MIDI_Process+0x244>
 800537e:	3901      	subs	r1, #1
 8005380:	b249      	sxtb	r1, r1
 8005382:	2900      	cmp	r1, #0
 8005384:	f80a b000 	strb.w	fp, [sl, r0]
 8005388:	dde2      	ble.n	8005350 <USBH_MIDI_Process+0x31c>
 800538a:	3815      	subs	r0, #21
 800538c:	4570      	cmp	r0, lr
 800538e:	d1bc      	bne.n	800530a <USBH_MIDI_Process+0x2d6>
 8005390:	481b      	ldr	r0, [pc, #108]	; (8005400 <USBH_MIDI_Process+0x3cc>)
 8005392:	9c03      	ldr	r4, [sp, #12]
 8005394:	2200      	movs	r2, #0
 8005396:	e001      	b.n	800539c <USBH_MIDI_Process+0x368>
 8005398:	2a80      	cmp	r2, #128	; 0x80
 800539a:	d01f      	beq.n	80053dc <USBH_MIDI_Process+0x3a8>
 800539c:	f810 5b01 	ldrb.w	r5, [r0], #1
 80053a0:	2d01      	cmp	r5, #1
 80053a2:	fa5f fc82 	uxtb.w	ip, r2
 80053a6:	f102 0201 	add.w	r2, r2, #1
 80053aa:	d1f5      	bne.n	8005398 <USBH_MIDI_Process+0x364>
 80053ac:	9403      	str	r4, [sp, #12]
 80053ae:	f1ac 0c15 	sub.w	ip, ip, #21
 80053b2:	f04f 0801 	mov.w	r8, #1
 80053b6:	fa4f fe8c 	sxtb.w	lr, ip
 80053ba:	46c1      	mov	r9, r8
 80053bc:	e78c      	b.n	80052d8 <USBH_MIDI_Process+0x2a4>
 80053be:	4810      	ldr	r0, [pc, #64]	; (8005400 <USBH_MIDI_Process+0x3cc>)
 80053c0:	9c03      	ldr	r4, [sp, #12]
 80053c2:	2200      	movs	r2, #0
 80053c4:	e001      	b.n	80053ca <USBH_MIDI_Process+0x396>
 80053c6:	2a80      	cmp	r2, #128	; 0x80
 80053c8:	d008      	beq.n	80053dc <USBH_MIDI_Process+0x3a8>
 80053ca:	f810 5b01 	ldrb.w	r5, [r0], #1
 80053ce:	2d01      	cmp	r5, #1
 80053d0:	fa5f fc82 	uxtb.w	ip, r2
 80053d4:	f102 0201 	add.w	r2, r2, #1
 80053d8:	d1f5      	bne.n	80053c6 <USBH_MIDI_Process+0x392>
 80053da:	e7e7      	b.n	80053ac <USBH_MIDI_Process+0x378>
 80053dc:	9403      	str	r4, [sp, #12]
 80053de:	4694      	mov	ip, r2
 80053e0:	e7e5      	b.n	80053ae <USBH_MIDI_Process+0x37a>
 80053e2:	bf00      	nop
 80053e4:	200018c4 	.word	0x200018c4
 80053e8:	200005f8 	.word	0x200005f8
 80053ec:	20001f2c 	.word	0x20001f2c
 80053f0:	200015ec 	.word	0x200015ec
 80053f4:	200005fc 	.word	0x200005fc
 80053f8:	40020c00 	.word	0x40020c00
 80053fc:	200005e8 	.word	0x200005e8
 8005400:	20001f30 	.word	0x20001f30

08005404 <USBH_Get_StringDesc.constprop.0>:
USBH_Get_StringDesc.constprop.0():
 8005404:	b538      	push	{r3, r4, r5, lr}
 8005406:	4c1b      	ldr	r4, [pc, #108]	; (8005474 <USBH_Get_StringDesc.constprop.0+0x70>)
 8005408:	78a2      	ldrb	r2, [r4, #2]
 800540a:	2a01      	cmp	r2, #1
 800540c:	d00f      	beq.n	800542e <USBH_Get_StringDesc.constprop.0+0x2a>
 800540e:	2a02      	cmp	r2, #2
 8005410:	d10a      	bne.n	8005428 <USBH_Get_StringDesc.constprop.0+0x24>
 8005412:	4620      	mov	r0, r4
 8005414:	460d      	mov	r5, r1
 8005416:	f7ff fcc9 	bl	8004dac <USBH_CtlReq.part.0>
 800541a:	4602      	mov	r2, r0
 800541c:	b910      	cbnz	r0, 8005424 <USBH_Get_StringDesc.constprop.0+0x20>
 800541e:	7f63      	ldrb	r3, [r4, #29]
 8005420:	2b03      	cmp	r3, #3
 8005422:	d016      	beq.n	8005452 <USBH_Get_StringDesc.constprop.0+0x4e>
 8005424:	4610      	mov	r0, r2
 8005426:	bd38      	pop	{r3, r4, r5, pc}
 8005428:	2201      	movs	r2, #1
 800542a:	4610      	mov	r0, r2
 800542c:	bd38      	pop	{r3, r4, r5, pc}
 800542e:	f44f 63d0 	mov.w	r3, #1664	; 0x680
 8005432:	f440 7040 	orr.w	r0, r0, #768	; 0x300
 8005436:	4910      	ldr	r1, [pc, #64]	; (8005478 <USBH_Get_StringDesc.constprop.0+0x74>)
 8005438:	8223      	strh	r3, [r4, #16]
 800543a:	f104 051c 	add.w	r5, r4, #28
 800543e:	8260      	strh	r0, [r4, #18]
 8005440:	2302      	movs	r3, #2
 8005442:	20ff      	movs	r0, #255	; 0xff
 8005444:	81a0      	strh	r0, [r4, #12]
 8005446:	60a5      	str	r5, [r4, #8]
 8005448:	6161      	str	r1, [r4, #20]
 800544a:	7622      	strb	r2, [r4, #24]
 800544c:	70a3      	strb	r3, [r4, #2]
 800544e:	4610      	mov	r0, r2
 8005450:	bd38      	pop	{r3, r4, r5, pc}
 8005452:	7f20      	ldrb	r0, [r4, #28]
 8005454:	3802      	subs	r0, #2
 8005456:	b280      	uxth	r0, r0
 8005458:	b140      	cbz	r0, 800546c <USBH_Get_StringDesc.constprop.0+0x68>
 800545a:	4613      	mov	r3, r2
 800545c:	18e1      	adds	r1, r4, r3
 800545e:	3302      	adds	r3, #2
 8005460:	b29b      	uxth	r3, r3
 8005462:	7f89      	ldrb	r1, [r1, #30]
 8005464:	f805 1b01 	strb.w	r1, [r5], #1
 8005468:	4298      	cmp	r0, r3
 800546a:	d8f7      	bhi.n	800545c <USBH_Get_StringDesc.constprop.0+0x58>
 800546c:	2300      	movs	r3, #0
 800546e:	702b      	strb	r3, [r5, #0]
 8005470:	4610      	mov	r0, r2
 8005472:	bd38      	pop	{r3, r4, r5, pc}
 8005474:	200018c4 	.word	0x200018c4
 8005478:	00ff0409 	.word	0x00ff0409

0800547c <USBH_Get_DevDesc.constprop.0>:
USBH_Get_DevDesc.constprop.0():
 800547c:	b538      	push	{r3, r4, r5, lr}
 800547e:	4c26      	ldr	r4, [pc, #152]	; (8005518 <USBH_Get_DevDesc.constprop.0+0x9c>)
 8005480:	78a3      	ldrb	r3, [r4, #2]
 8005482:	2b01      	cmp	r3, #1
 8005484:	d036      	beq.n	80054f4 <USBH_Get_DevDesc.constprop.0+0x78>
 8005486:	2b02      	cmp	r3, #2
 8005488:	d131      	bne.n	80054ee <USBH_Get_DevDesc.constprop.0+0x72>
 800548a:	4605      	mov	r5, r0
 800548c:	4620      	mov	r0, r4
 800548e:	f7ff fc8d 	bl	8004dac <USBH_CtlReq.part.0>
 8005492:	4603      	mov	r3, r0
 8005494:	bb60      	cbnz	r0, 80054f0 <USBH_Get_DevDesc.constprop.0+0x74>
 8005496:	7fe1      	ldrb	r1, [r4, #31]
 8005498:	7fa2      	ldrb	r2, [r4, #30]
 800549a:	8ba0      	ldrh	r0, [r4, #28]
 800549c:	f8a4 0220 	strh.w	r0, [r4, #544]	; 0x220
 80054a0:	eb02 2201 	add.w	r2, r2, r1, lsl #8
 80054a4:	2d08      	cmp	r5, #8
 80054a6:	6a21      	ldr	r1, [r4, #32]
 80054a8:	f8a4 2222 	strh.w	r2, [r4, #546]	; 0x222
 80054ac:	f8c4 1224 	str.w	r1, [r4, #548]	; 0x224
 80054b0:	d01e      	beq.n	80054f0 <USBH_Get_DevDesc.constprop.0+0x74>
 80054b2:	f894 5025 	ldrb.w	r5, [r4, #37]	; 0x25
 80054b6:	f894 2027 	ldrb.w	r2, [r4, #39]	; 0x27
 80054ba:	f894 0024 	ldrb.w	r0, [r4, #36]	; 0x24
 80054be:	f894 1026 	ldrb.w	r1, [r4, #38]	; 0x26
 80054c2:	eb00 2005 	add.w	r0, r0, r5, lsl #8
 80054c6:	eb01 2102 	add.w	r1, r1, r2, lsl #8
 80054ca:	f894 5029 	ldrb.w	r5, [r4, #41]	; 0x29
 80054ce:	f894 2028 	ldrb.w	r2, [r4, #40]	; 0x28
 80054d2:	f8a4 0228 	strh.w	r0, [r4, #552]	; 0x228
 80054d6:	eb02 2205 	add.w	r2, r2, r5, lsl #8
 80054da:	f8d4 002a 	ldr.w	r0, [r4, #42]	; 0x2a
 80054de:	f8c4 022e 	str.w	r0, [r4, #558]	; 0x22e
 80054e2:	f8a4 122a 	strh.w	r1, [r4, #554]	; 0x22a
 80054e6:	f8a4 222c 	strh.w	r2, [r4, #556]	; 0x22c
 80054ea:	4618      	mov	r0, r3
 80054ec:	bd38      	pop	{r3, r4, r5, pc}
 80054ee:	2301      	movs	r3, #1
 80054f0:	4618      	mov	r0, r3
 80054f2:	bd38      	pop	{r3, r4, r5, pc}
 80054f4:	f44f 7180 	mov.w	r1, #256	; 0x100
 80054f8:	b282      	uxth	r2, r0
 80054fa:	f44f 65d0 	mov.w	r5, #1664	; 0x680
 80054fe:	f104 001c 	add.w	r0, r4, #28
 8005502:	f8c4 1012 	str.w	r1, [r4, #18]
 8005506:	2102      	movs	r1, #2
 8005508:	60a0      	str	r0, [r4, #8]
 800550a:	8225      	strh	r5, [r4, #16]
 800550c:	82e2      	strh	r2, [r4, #22]
 800550e:	81a2      	strh	r2, [r4, #12]
 8005510:	7623      	strb	r3, [r4, #24]
 8005512:	70a1      	strb	r1, [r4, #2]
 8005514:	4618      	mov	r0, r3
 8005516:	bd38      	pop	{r3, r4, r5, pc}
 8005518:	200018c4 	.word	0x200018c4

0800551c <main>:
main():
 800551c:	4bac      	ldr	r3, [pc, #688]	; (80057d0 <main+0x2b4>)
 800551e:	48ad      	ldr	r0, [pc, #692]	; (80057d4 <main+0x2b8>)
 8005520:	6819      	ldr	r1, [r3, #0]
 8005522:	4aad      	ldr	r2, [pc, #692]	; (80057d8 <main+0x2bc>)
 8005524:	f441 7100 	orr.w	r1, r1, #512	; 0x200
 8005528:	e92d 4800 	stmdb	sp!, {fp, lr}
 800552c:	6019      	str	r1, [r3, #0]
 800552e:	6819      	ldr	r1, [r3, #0]
 8005530:	f441 6180 	orr.w	r1, r1, #1024	; 0x400
 8005534:	6019      	str	r1, [r3, #0]
 8005536:	6819      	ldr	r1, [r3, #0]
 8005538:	f441 7180 	orr.w	r1, r1, #256	; 0x100
 800553c:	6019      	str	r1, [r3, #0]
 800553e:	68c3      	ldr	r3, [r0, #12]
 8005540:	f64f 04ff 	movw	r4, #63743	; 0xf8ff
 8005544:	4023      	ands	r3, r4
 8005546:	431a      	orrs	r2, r3
 8005548:	60c2      	str	r2, [r0, #12]
 800554a:	b096      	sub	sp, #88	; 0x58
 800554c:	f7fd fd90 	bl	8003070 <HAL_InitTick.constprop.0.isra.0>
 8005550:	2001      	movs	r0, #1
 8005552:	f7fd fa25 	bl	80029a0 <BSP_LED_Init>
 8005556:	2000      	movs	r0, #0
 8005558:	f7fd fa22 	bl	80029a0 <BSP_LED_Init>
 800555c:	2002      	movs	r0, #2
 800555e:	f7fd fa1f 	bl	80029a0 <BSP_LED_Init>
 8005562:	2003      	movs	r0, #3
 8005564:	f7fd fa1c 	bl	80029a0 <BSP_LED_Init>
 8005568:	4b9c      	ldr	r3, [pc, #624]	; (80057dc <main+0x2c0>)
 800556a:	499d      	ldr	r1, [pc, #628]	; (80057e0 <main+0x2c4>)
 800556c:	6c1a      	ldr	r2, [r3, #64]	; 0x40
 800556e:	f042 5280 	orr.w	r2, r2, #268435456	; 0x10000000
 8005572:	641a      	str	r2, [r3, #64]	; 0x40
 8005574:	680a      	ldr	r2, [r1, #0]
 8005576:	f442 4240 	orr.w	r2, r2, #49152	; 0xc000
 800557a:	600a      	str	r2, [r1, #0]
 800557c:	689a      	ldr	r2, [r3, #8]
 800557e:	f002 020c 	and.w	r2, r2, #12
 8005582:	2a04      	cmp	r2, #4
 8005584:	d007      	beq.n	8005596 <main+0x7a>
 8005586:	689a      	ldr	r2, [r3, #8]
 8005588:	f002 020c 	and.w	r2, r2, #12
 800558c:	2a08      	cmp	r2, #8
 800558e:	d112      	bne.n	80055b6 <main+0x9a>
 8005590:	685b      	ldr	r3, [r3, #4]
 8005592:	025e      	lsls	r6, r3, #9
 8005594:	d50f      	bpl.n	80055b6 <main+0x9a>
 8005596:	4b91      	ldr	r3, [pc, #580]	; (80057dc <main+0x2c0>)
 8005598:	f8df a27c 	ldr.w	sl, [pc, #636]	; 8005818 <main+0x2fc>
 800559c:	681b      	ldr	r3, [r3, #0]
 800559e:	488f      	ldr	r0, [pc, #572]	; (80057dc <main+0x2c0>)
 80055a0:	6883      	ldr	r3, [r0, #8]
 80055a2:	f003 030c 	and.w	r3, r3, #12
 80055a6:	2b08      	cmp	r3, #8
 80055a8:	d026      	beq.n	80055f8 <main+0xdc>
 80055aa:	4b8e      	ldr	r3, [pc, #568]	; (80057e4 <main+0x2c8>)
 80055ac:	2200      	movs	r2, #0
 80055ae:	661a      	str	r2, [r3, #96]	; 0x60
 80055b0:	f8da 2000 	ldr.w	r2, [sl]
 80055b4:	e02a      	b.n	800560c <main+0xf0>
 80055b6:	4a89      	ldr	r2, [pc, #548]	; (80057dc <main+0x2c0>)
 80055b8:	f8df a25c 	ldr.w	sl, [pc, #604]	; 8005818 <main+0x2fc>
 80055bc:	2300      	movs	r3, #0
 80055be:	7093      	strb	r3, [r2, #2]
 80055c0:	f8da 0000 	ldr.w	r0, [sl]
 80055c4:	f241 3188 	movw	r1, #5000	; 0x1388
 80055c8:	e004      	b.n	80055d4 <main+0xb8>
 80055ca:	f8da 3000 	ldr.w	r3, [sl]
 80055ce:	1a1b      	subs	r3, r3, r0
 80055d0:	428b      	cmp	r3, r1
 80055d2:	d811      	bhi.n	80055f8 <main+0xdc>
 80055d4:	6813      	ldr	r3, [r2, #0]
 80055d6:	039d      	lsls	r5, r3, #14
 80055d8:	d4f7      	bmi.n	80055ca <main+0xae>
 80055da:	2301      	movs	r3, #1
 80055dc:	7093      	strb	r3, [r2, #2]
 80055de:	f8da 0000 	ldr.w	r0, [sl]
 80055e2:	497e      	ldr	r1, [pc, #504]	; (80057dc <main+0x2c0>)
 80055e4:	f241 3288 	movw	r2, #5000	; 0x1388
 80055e8:	680b      	ldr	r3, [r1, #0]
 80055ea:	039c      	lsls	r4, r3, #14
 80055ec:	d4d7      	bmi.n	800559e <main+0x82>
 80055ee:	f8da 3000 	ldr.w	r3, [sl]
 80055f2:	1a1b      	subs	r3, r3, r0
 80055f4:	4293      	cmp	r3, r2
 80055f6:	d9f7      	bls.n	80055e8 <main+0xcc>
 80055f8:	4b7b      	ldr	r3, [pc, #492]	; (80057e8 <main+0x2cc>)
 80055fa:	f44f 4280 	mov.w	r2, #16384	; 0x4000
 80055fe:	831a      	strh	r2, [r3, #24]
 8005600:	e7fe      	b.n	8005600 <main+0xe4>
 8005602:	f8da 3000 	ldr.w	r3, [sl]
 8005606:	1a9b      	subs	r3, r3, r2
 8005608:	2b64      	cmp	r3, #100	; 0x64
 800560a:	d8f5      	bhi.n	80055f8 <main+0xdc>
 800560c:	6803      	ldr	r3, [r0, #0]
 800560e:	0199      	lsls	r1, r3, #6
 8005610:	d4f7      	bmi.n	8005602 <main+0xe6>
 8005612:	f647 71c0 	movw	r1, #32704	; 0x7fc0
 8005616:	fa91 f1a1 	rbit	r1, r1
 800561a:	fab1 f181 	clz	r1, r1
 800561e:	f44f 3340 	mov.w	r3, #196608	; 0x30000
 8005622:	fa93 f3a3 	rbit	r3, r3
 8005626:	fab3 f383 	clz	r3, r3
 800562a:	f04f 6270 	mov.w	r2, #251658240	; 0xf000000
 800562e:	fa92 f2a2 	rbit	r2, r2
 8005632:	fab2 f282 	clz	r2, r2
 8005636:	f44f 73a8 	mov.w	r3, #336	; 0x150
 800563a:	b2c9      	uxtb	r1, r1
 800563c:	b2d2      	uxtb	r2, r2
 800563e:	2407      	movs	r4, #7
 8005640:	408b      	lsls	r3, r1
 8005642:	fa04 f202 	lsl.w	r2, r4, r2
 8005646:	4313      	orrs	r3, r2
 8005648:	f043 5301 	orr.w	r3, r3, #541065216	; 0x20400000
 800564c:	4a65      	ldr	r2, [pc, #404]	; (80057e4 <main+0x2c8>)
 800564e:	f043 0308 	orr.w	r3, r3, #8
 8005652:	2101      	movs	r1, #1
 8005654:	6043      	str	r3, [r0, #4]
 8005656:	6611      	str	r1, [r2, #96]	; 0x60
 8005658:	f8da 1000 	ldr.w	r1, [sl]
 800565c:	4b5f      	ldr	r3, [pc, #380]	; (80057dc <main+0x2c0>)
 800565e:	e004      	b.n	800566a <main+0x14e>
 8005660:	f8da 2000 	ldr.w	r2, [sl]
 8005664:	1a52      	subs	r2, r2, r1
 8005666:	2a64      	cmp	r2, #100	; 0x64
 8005668:	d8c6      	bhi.n	80055f8 <main+0xdc>
 800566a:	681a      	ldr	r2, [r3, #0]
 800566c:	0192      	lsls	r2, r2, #6
 800566e:	d5f7      	bpl.n	8005660 <main+0x144>
 8005670:	4957      	ldr	r1, [pc, #348]	; (80057d0 <main+0x2b4>)
 8005672:	680a      	ldr	r2, [r1, #0]
 8005674:	f002 020f 	and.w	r2, r2, #15
 8005678:	2a04      	cmp	r2, #4
 800567a:	f200 810b 	bhi.w	8005894 <main+0x378>
 800567e:	2205      	movs	r2, #5
 8005680:	700a      	strb	r2, [r1, #0]
 8005682:	680a      	ldr	r2, [r1, #0]
 8005684:	f002 020f 	and.w	r2, r2, #15
 8005688:	2a05      	cmp	r2, #5
 800568a:	f040 8129 	bne.w	80058e0 <main+0x3c4>
 800568e:	689a      	ldr	r2, [r3, #8]
 8005690:	f022 02f0 	bic.w	r2, r2, #240	; 0xf0
 8005694:	609a      	str	r2, [r3, #8]
 8005696:	681a      	ldr	r2, [r3, #0]
 8005698:	0196      	lsls	r6, r2, #6
 800569a:	f140 8121 	bpl.w	80058e0 <main+0x3c4>
 800569e:	689a      	ldr	r2, [r3, #8]
 80056a0:	484e      	ldr	r0, [pc, #312]	; (80057dc <main+0x2c0>)
 80056a2:	f022 0203 	bic.w	r2, r2, #3
 80056a6:	f042 0202 	orr.w	r2, r2, #2
 80056aa:	609a      	str	r2, [r3, #8]
 80056ac:	f8da 1000 	ldr.w	r1, [sl]
 80056b0:	f241 3288 	movw	r2, #5000	; 0x1388
 80056b4:	e005      	b.n	80056c2 <main+0x1a6>
 80056b6:	f8da 3000 	ldr.w	r3, [sl]
 80056ba:	1a5b      	subs	r3, r3, r1
 80056bc:	4293      	cmp	r3, r2
 80056be:	f200 810f 	bhi.w	80058e0 <main+0x3c4>
 80056c2:	6883      	ldr	r3, [r0, #8]
 80056c4:	f003 030c 	and.w	r3, r3, #12
 80056c8:	2b08      	cmp	r3, #8
 80056ca:	d1f4      	bne.n	80056b6 <main+0x19a>
 80056cc:	4c43      	ldr	r4, [pc, #268]	; (80057dc <main+0x2c0>)
 80056ce:	68a3      	ldr	r3, [r4, #8]
 80056d0:	f423 53e0 	bic.w	r3, r3, #7168	; 0x1c00
 80056d4:	f443 53a0 	orr.w	r3, r3, #5120	; 0x1400
 80056d8:	60a3      	str	r3, [r4, #8]
 80056da:	68a3      	ldr	r3, [r4, #8]
 80056dc:	f423 4360 	bic.w	r3, r3, #57344	; 0xe000
 80056e0:	f443 4300 	orr.w	r3, r3, #32768	; 0x8000
 80056e4:	60a3      	str	r3, [r4, #8]
 80056e6:	f7fd fcc3 	bl	8003070 <HAL_InitTick.constprop.0.isra.0>
 80056ea:	6b23      	ldr	r3, [r4, #48]	; 0x30
 80056ec:	483f      	ldr	r0, [pc, #252]	; (80057ec <main+0x2d0>)
 80056ee:	f043 0301 	orr.w	r3, r3, #1
 80056f2:	6323      	str	r3, [r4, #48]	; 0x30
 80056f4:	4b3e      	ldr	r3, [pc, #248]	; (80057f0 <main+0x2d4>)
 80056f6:	2201      	movs	r2, #1
 80056f8:	e9cd 2311 	strd	r2, r3, [sp, #68]	; 0x44
 80056fc:	a911      	add	r1, sp, #68	; 0x44
 80056fe:	2302      	movs	r3, #2
 8005700:	2500      	movs	r5, #0
 8005702:	e9cd 5313 	strd	r5, r3, [sp, #76]	; 0x4c
 8005706:	f7fc ff4d 	bl	80025a4 <HAL_GPIO_Init>
 800570a:	210f      	movs	r1, #15
 800570c:	2006      	movs	r0, #6
 800570e:	f7fd facf 	bl	8002cb0 <HAL_NVIC_SetPriority.constprop.0>
 8005712:	4b38      	ldr	r3, [pc, #224]	; (80057f4 <main+0x2d8>)
 8005714:	4938      	ldr	r1, [pc, #224]	; (80057f8 <main+0x2dc>)
 8005716:	2240      	movs	r2, #64	; 0x40
 8005718:	601a      	str	r2, [r3, #0]
 800571a:	794a      	ldrb	r2, [r1, #5]
 800571c:	4b37      	ldr	r3, [pc, #220]	; (80057fc <main+0x2e0>)
 800571e:	600b      	str	r3, [r1, #0]
 8005720:	2a00      	cmp	r2, #0
 8005722:	f000 80e2 	beq.w	80058ea <main+0x3ce>
 8005726:	4a35      	ldr	r2, [pc, #212]	; (80057fc <main+0x2e0>)
 8005728:	2302      	movs	r3, #2
 800572a:	714b      	strb	r3, [r1, #5]
 800572c:	6810      	ldr	r0, [r2, #0]
 800572e:	f040 0004 	orr.w	r0, r0, #4
 8005732:	6010      	str	r0, [r2, #0]
 8005734:	7908      	ldrb	r0, [r1, #4]
 8005736:	2401      	movs	r4, #1
 8005738:	42a0      	cmp	r0, r4
 800573a:	714c      	strb	r4, [r1, #5]
 800573c:	f000 87af 	beq.w	800669e <main+0x1182>
 8005740:	f8da 0000 	ldr.w	r0, [sl]
 8005744:	710c      	strb	r4, [r1, #4]
 8005746:	e006      	b.n	8005756 <main+0x23a>
 8005748:	f8da 3000 	ldr.w	r3, [sl]
 800574c:	1a1b      	subs	r3, r3, r0
 800574e:	f5b3 7f7a 	cmp.w	r3, #1000	; 0x3e8
 8005752:	f200 80d3 	bhi.w	80058fc <main+0x3e0>
 8005756:	6853      	ldr	r3, [r2, #4]
 8005758:	07de      	lsls	r6, r3, #31
 800575a:	d5f5      	bpl.n	8005748 <main+0x22c>
 800575c:	2300      	movs	r3, #0
 800575e:	6890      	ldr	r0, [r2, #8]
 8005760:	710b      	strb	r3, [r1, #4]
 8005762:	f002 fcaf 	bl	80080c4 <srand>
 8005766:	2138      	movs	r1, #56	; 0x38
 8005768:	2001      	movs	r0, #1
 800576a:	f003 f9b9 	bl	8008ae0 <calloc>
 800576e:	4a24      	ldr	r2, [pc, #144]	; (8005800 <main+0x2e4>)
 8005770:	4c24      	ldr	r4, [pc, #144]	; (8005804 <main+0x2e8>)
 8005772:	6010      	str	r0, [r2, #0]
 8005774:	2100      	movs	r1, #0
 8005776:	e9c0 1104 	strd	r1, r1, [r0, #16]
 800577a:	4a23      	ldr	r2, [pc, #140]	; (8005808 <main+0x2ec>)
 800577c:	6084      	str	r4, [r0, #8]
 800577e:	6002      	str	r2, [r0, #0]
 8005780:	f64a 4444 	movw	r4, #44100	; 0xac44
 8005784:	4a15      	ldr	r2, [pc, #84]	; (80057dc <main+0x2c0>)
 8005786:	6044      	str	r4, [r0, #4]
 8005788:	2300      	movs	r3, #0
 800578a:	4c20      	ldr	r4, [pc, #128]	; (800580c <main+0x2f0>)
 800578c:	6183      	str	r3, [r0, #24]
 800578e:	61c3      	str	r3, [r0, #28]
 8005790:	6203      	str	r3, [r0, #32]
 8005792:	62c3      	str	r3, [r0, #44]	; 0x2c
 8005794:	6303      	str	r3, [r0, #48]	; 0x30
 8005796:	6343      	str	r3, [r0, #52]	; 0x34
 8005798:	60c4      	str	r4, [r0, #12]
 800579a:	4b1d      	ldr	r3, [pc, #116]	; (8005810 <main+0x2f4>)
 800579c:	f8d2 4084 	ldr.w	r4, [r2, #132]	; 0x84
 80057a0:	4c1c      	ldr	r4, [pc, #112]	; (8005814 <main+0x2f8>)
 80057a2:	6243      	str	r3, [r0, #36]	; 0x24
 80057a4:	6284      	str	r4, [r0, #40]	; 0x28
 80057a6:	f647 73c0 	movw	r3, #32704	; 0x7fc0
 80057aa:	fa93 f3a3 	rbit	r3, r3
 80057ae:	fab3 f383 	clz	r3, r3
 80057b2:	f04f 43e0 	mov.w	r3, #1879048192	; 0x70000000
 80057b6:	f8d2 0084 	ldr.w	r0, [r2, #132]	; 0x84
 80057ba:	fa93 f3a3 	rbit	r3, r3
 80057be:	fab3 f383 	clz	r3, r3
 80057c2:	4b08      	ldr	r3, [pc, #32]	; (80057e4 <main+0x2c8>)
 80057c4:	6890      	ldr	r0, [r2, #8]
 80057c6:	6f10      	ldr	r0, [r2, #112]	; 0x70
 80057c8:	6699      	str	r1, [r3, #104]	; 0x68
 80057ca:	f8da 1000 	ldr.w	r1, [sl]
 80057ce:	e02a      	b.n	8005826 <main+0x30a>
 80057d0:	40023c00 	.word	0x40023c00
 80057d4:	e000ed00 	.word	0xe000ed00
 80057d8:	05fa0300 	.word	0x05fa0300
 80057dc:	40023800 	.word	0x40023800
 80057e0:	40007000 	.word	0x40007000
 80057e4:	42470000 	.word	0x42470000
 80057e8:	40020c00 	.word	0x40020c00
 80057ec:	40020000 	.word	0x40020000
 80057f0:	10110000 	.word	0x10110000
 80057f4:	e000e100 	.word	0xe000e100
 80057f8:	2000063c 	.word	0x2000063c
 80057fc:	50060800 	.word	0x50060800
 8005800:	200015f0 	.word	0x200015f0
 8005804:	38956593 	.word	0x38956593
 8005808:	453b8000 	.word	0x453b8000
 800580c:	41200000 	.word	0x41200000
 8005810:	3f333333 	.word	0x3f333333
 8005814:	43fa0000 	.word	0x43fa0000
 8005818:	20002f54 	.word	0x20002f54
 800581c:	f8da 3000 	ldr.w	r3, [sl]
 8005820:	1a5b      	subs	r3, r3, r1
 8005822:	2b64      	cmp	r3, #100	; 0x64
 8005824:	d829      	bhi.n	800587a <main+0x35e>
 8005826:	6813      	ldr	r3, [r2, #0]
 8005828:	011d      	lsls	r5, r3, #4
 800582a:	d4f7      	bmi.n	800581c <main+0x300>
 800582c:	f647 71c0 	movw	r1, #32704	; 0x7fc0
 8005830:	fa91 f1a1 	rbit	r1, r1
 8005834:	fab1 f181 	clz	r1, r1
 8005838:	f04f 43e0 	mov.w	r3, #1879048192	; 0x70000000
 800583c:	fa93 f3a3 	rbit	r3, r3
 8005840:	fab3 f383 	clz	r3, r3
 8005844:	f44f 7091 	mov.w	r0, #290	; 0x122
 8005848:	b2c9      	uxtb	r1, r1
 800584a:	fa00 f101 	lsl.w	r1, r0, r1
 800584e:	b2db      	uxtb	r3, r3
 8005850:	2002      	movs	r0, #2
 8005852:	fa00 f303 	lsl.w	r3, r0, r3
 8005856:	430b      	orrs	r3, r1
 8005858:	4829      	ldr	r0, [pc, #164]	; (8005900 <main+0x3e4>)
 800585a:	f8c2 3084 	str.w	r3, [r2, #132]	; 0x84
 800585e:	2301      	movs	r3, #1
 8005860:	6683      	str	r3, [r0, #104]	; 0x68
 8005862:	f8da 1000 	ldr.w	r1, [sl]
 8005866:	4a27      	ldr	r2, [pc, #156]	; (8005904 <main+0x3e8>)
 8005868:	e004      	b.n	8005874 <main+0x358>
 800586a:	f8da 3000 	ldr.w	r3, [sl]
 800586e:	1a5b      	subs	r3, r3, r1
 8005870:	2b64      	cmp	r3, #100	; 0x64
 8005872:	d802      	bhi.n	800587a <main+0x35e>
 8005874:	6813      	ldr	r3, [r2, #0]
 8005876:	011c      	lsls	r4, r3, #4
 8005878:	d5f7      	bpl.n	800586a <main+0x34e>
 800587a:	4c23      	ldr	r4, [pc, #140]	; (8005908 <main+0x3ec>)
 800587c:	2094      	movs	r0, #148	; 0x94
 800587e:	6863      	ldr	r3, [r4, #4]
 8005880:	4798      	blx	r3
 8005882:	f000 00f8 	and.w	r0, r0, #248	; 0xf8
 8005886:	28e0      	cmp	r0, #224	; 0xe0
 8005888:	d044      	beq.n	8005914 <main+0x3f8>
 800588a:	4b20      	ldr	r3, [pc, #128]	; (800590c <main+0x3f0>)
 800588c:	f44f 4280 	mov.w	r2, #16384	; 0x4000
 8005890:	831a      	strh	r2, [r3, #24]
 8005892:	e7fe      	b.n	8005892 <main+0x376>
 8005894:	689a      	ldr	r2, [r3, #8]
 8005896:	f022 02f0 	bic.w	r2, r2, #240	; 0xf0
 800589a:	609a      	str	r2, [r3, #8]
 800589c:	681a      	ldr	r2, [r3, #0]
 800589e:	0192      	lsls	r2, r2, #6
 80058a0:	d51e      	bpl.n	80058e0 <main+0x3c4>
 80058a2:	689a      	ldr	r2, [r3, #8]
 80058a4:	4817      	ldr	r0, [pc, #92]	; (8005904 <main+0x3e8>)
 80058a6:	f022 0203 	bic.w	r2, r2, #3
 80058aa:	f042 0202 	orr.w	r2, r2, #2
 80058ae:	609a      	str	r2, [r3, #8]
 80058b0:	f8da 1000 	ldr.w	r1, [sl]
 80058b4:	f241 3288 	movw	r2, #5000	; 0x1388
 80058b8:	e004      	b.n	80058c4 <main+0x3a8>
 80058ba:	f8da 3000 	ldr.w	r3, [sl]
 80058be:	1a5b      	subs	r3, r3, r1
 80058c0:	4293      	cmp	r3, r2
 80058c2:	d80d      	bhi.n	80058e0 <main+0x3c4>
 80058c4:	6883      	ldr	r3, [r0, #8]
 80058c6:	f003 030c 	and.w	r3, r3, #12
 80058ca:	2b08      	cmp	r3, #8
 80058cc:	d1f5      	bne.n	80058ba <main+0x39e>
 80058ce:	4b10      	ldr	r3, [pc, #64]	; (8005910 <main+0x3f4>)
 80058d0:	2205      	movs	r2, #5
 80058d2:	701a      	strb	r2, [r3, #0]
 80058d4:	681b      	ldr	r3, [r3, #0]
 80058d6:	f003 030f 	and.w	r3, r3, #15
 80058da:	4293      	cmp	r3, r2
 80058dc:	f43f aef6 	beq.w	80056cc <main+0x1b0>
 80058e0:	4b0a      	ldr	r3, [pc, #40]	; (800590c <main+0x3f0>)
 80058e2:	f44f 4280 	mov.w	r2, #16384	; 0x4000
 80058e6:	831a      	strh	r2, [r3, #24]
 80058e8:	e7fe      	b.n	80058e8 <main+0x3cc>
 80058ea:	6b62      	ldr	r2, [r4, #52]	; 0x34
 80058ec:	f042 0240 	orr.w	r2, r2, #64	; 0x40
 80058f0:	6362      	str	r2, [r4, #52]	; 0x34
 80058f2:	681a      	ldr	r2, [r3, #0]
 80058f4:	f042 0204 	orr.w	r2, r2, #4
 80058f8:	601a      	str	r2, [r3, #0]
 80058fa:	e714      	b.n	8005726 <main+0x20a>
 80058fc:	2003      	movs	r0, #3
 80058fe:	e730      	b.n	8005762 <main+0x246>
 8005900:	42470000 	.word	0x42470000
 8005904:	40023800 	.word	0x40023800
 8005908:	20000024 	.word	0x20000024
 800590c:	40020c00 	.word	0x40020c00
 8005910:	40023c00 	.word	0x40023c00
 8005914:	4db3      	ldr	r5, [pc, #716]	; (8005be4 <main+0x6c8>)
 8005916:	6826      	ldr	r6, [r4, #0]
 8005918:	602c      	str	r4, [r5, #0]
 800591a:	f64a 4344 	movw	r3, #44100	; 0xac44
 800591e:	2246      	movs	r2, #70	; 0x46
 8005920:	2104      	movs	r1, #4
 8005922:	2094      	movs	r0, #148	; 0x94
 8005924:	47b0      	blx	r6
 8005926:	4bb0      	ldr	r3, [pc, #704]	; (8005be8 <main+0x6cc>)
 8005928:	4cb0      	ldr	r4, [pc, #704]	; (8005bec <main+0x6d0>)
 800592a:	69da      	ldr	r2, [r3, #28]
 800592c:	6023      	str	r3, [r4, #0]
 800592e:	f422 6280 	bic.w	r2, r2, #1024	; 0x400
 8005932:	61da      	str	r2, [r3, #28]
 8005934:	2300      	movs	r3, #0
 8005936:	f44f 7200 	mov.w	r2, #512	; 0x200
 800593a:	e9c4 3203 	strd	r3, r2, [r4, #12]
 800593e:	6062      	str	r2, [r4, #4]
 8005940:	f894 203d 	ldrb.w	r2, [r4, #61]	; 0x3d
 8005944:	60a3      	str	r3, [r4, #8]
 8005946:	f64a 4144 	movw	r1, #44100	; 0xac44
 800594a:	e9c4 3306 	strd	r3, r3, [r4, #24]
 800594e:	6161      	str	r1, [r4, #20]
 8005950:	f002 06ff 	and.w	r6, r2, #255	; 0xff
 8005954:	2a00      	cmp	r2, #0
 8005956:	f000 8710 	beq.w	800677a <main+0x125e>
 800595a:	4aa3      	ldr	r2, [pc, #652]	; (8005be8 <main+0x6cc>)
 800595c:	f894 303d 	ldrb.w	r3, [r4, #61]	; 0x3d
 8005960:	2102      	movs	r1, #2
 8005962:	f884 103d 	strb.w	r1, [r4, #61]	; 0x3d
 8005966:	69d3      	ldr	r3, [r2, #28]
 8005968:	f423 637b 	bic.w	r3, r3, #4016	; 0xfb0
 800596c:	f023 030f 	bic.w	r3, r3, #15
 8005970:	61d3      	str	r3, [r2, #28]
 8005972:	4b9f      	ldr	r3, [pc, #636]	; (8005bf0 <main+0x6d4>)
 8005974:	6211      	str	r1, [r2, #32]
 8005976:	69d2      	ldr	r2, [r2, #28]
 8005978:	6819      	ldr	r1, [r3, #0]
 800597a:	0148      	lsls	r0, r1, #5
 800597c:	f140 87fc 	bpl.w	8006978 <main+0x145c>
 8005980:	6899      	ldr	r1, [r3, #8]
 8005982:	0209      	lsls	r1, r1, #8
 8005984:	d503      	bpl.n	800598e <main+0x472>
 8005986:	6899      	ldr	r1, [r3, #8]
 8005988:	f421 0100 	bic.w	r1, r1, #8388608	; 0x800000
 800598c:	6099      	str	r1, [r3, #8]
 800598e:	4b98      	ldr	r3, [pc, #608]	; (8005bf0 <main+0x6d4>)
 8005990:	6859      	ldr	r1, [r3, #4]
 8005992:	685b      	ldr	r3, [r3, #4]
 8005994:	024e      	lsls	r6, r1, #9
 8005996:	4e96      	ldr	r6, [pc, #600]	; (8005bf0 <main+0x6d4>)
 8005998:	bf4c      	ite	mi
 800599a:	4896      	ldrmi	r0, [pc, #600]	; (8005bf4 <main+0x6d8>)
 800599c:	4896      	ldrpl	r0, [pc, #600]	; (8005bf8 <main+0x6dc>)
 800599e:	f003 033f 	and.w	r3, r3, #63	; 0x3f
 80059a2:	fbb0 f0f3 	udiv	r0, r0, r3
 80059a6:	f8d6 3084 	ldr.w	r3, [r6, #132]	; 0x84
 80059aa:	f8d6 6084 	ldr.w	r6, [r6, #132]	; 0x84
 80059ae:	f3c3 1388 	ubfx	r3, r3, #6, #9
 80059b2:	210a      	movs	r1, #10
 80059b4:	fb00 f303 	mul.w	r3, r0, r3
 80059b8:	f3c6 7002 	ubfx	r0, r6, #28, #3
 80059bc:	fbb3 f3f0 	udiv	r3, r3, r0
 80059c0:	0a1b      	lsrs	r3, r3, #8
 80059c2:	fb01 f303 	mul.w	r3, r1, r3
 80059c6:	f64a 4044 	movw	r0, #44100	; 0xac44
 80059ca:	fbb3 f3f0 	udiv	r3, r3, r0
 80059ce:	3305      	adds	r3, #5
 80059d0:	fbb3 f3f1 	udiv	r3, r3, r1
 80059d4:	0859      	lsrs	r1, r3, #1
 80059d6:	1e88      	subs	r0, r1, #2
 80059d8:	28fd      	cmp	r0, #253	; 0xfd
 80059da:	f003 0301 	and.w	r3, r3, #1
 80059de:	bf8a      	itet	hi
 80059e0:	2102      	movhi	r1, #2
 80059e2:	021b      	lslls	r3, r3, #8
 80059e4:	2300      	movhi	r3, #0
 80059e6:	430b      	orrs	r3, r1
 80059e8:	497f      	ldr	r1, [pc, #508]	; (8005be8 <main+0x6cc>)
 80059ea:	f443 7300 	orr.w	r3, r3, #512	; 0x200
 80059ee:	f442 6220 	orr.w	r2, r2, #2560	; 0xa00
 80059f2:	620b      	str	r3, [r1, #32]
 80059f4:	61ca      	str	r2, [r1, #28]
 80059f6:	6a23      	ldr	r3, [r4, #32]
 80059f8:	2b01      	cmp	r3, #1
 80059fa:	d10d      	bne.n	8005a18 <main+0x4fc>
 80059fc:	f04f 2340 	mov.w	r3, #1073758208	; 0x40004000
 8005a00:	69da      	ldr	r2, [r3, #28]
 8005a02:	f422 627b 	bic.w	r2, r2, #4016	; 0xfb0
 8005a06:	f022 020f 	bic.w	r2, r2, #15
 8005a0a:	61da      	str	r2, [r3, #28]
 8005a0c:	2202      	movs	r2, #2
 8005a0e:	621a      	str	r2, [r3, #32]
 8005a10:	69da      	ldr	r2, [r3, #28]
 8005a12:	f442 6210 	orr.w	r2, r2, #2304	; 0x900
 8005a16:	61da      	str	r2, [r3, #28]
 8005a18:	2200      	movs	r2, #0
 8005a1a:	2301      	movs	r3, #1
 8005a1c:	f884 203e 	strb.w	r2, [r4, #62]	; 0x3e
 8005a20:	f884 303d 	strb.w	r3, [r4, #61]	; 0x3d
 8005a24:	682b      	ldr	r3, [r5, #0]
 8005a26:	4d75      	ldr	r5, [pc, #468]	; (8005bfc <main+0x6e0>)
 8005a28:	689b      	ldr	r3, [r3, #8]
 8005a2a:	f44f 627a 	mov.w	r2, #4000	; 0xfa0
 8005a2e:	4629      	mov	r1, r5
 8005a30:	2094      	movs	r0, #148	; 0x94
 8005a32:	4798      	blx	r3
 8005a34:	2800      	cmp	r0, #0
 8005a36:	d16f      	bne.n	8005b18 <main+0x5fc>
 8005a38:	f894 303d 	ldrb.w	r3, [r4, #61]	; 0x3d
 8005a3c:	2b01      	cmp	r3, #1
 8005a3e:	d16b      	bne.n	8005b18 <main+0x5fc>
 8005a40:	6822      	ldr	r2, [r4, #0]
 8005a42:	6265      	str	r5, [r4, #36]	; 0x24
 8005a44:	69d1      	ldr	r1, [r2, #28]
 8005a46:	69d3      	ldr	r3, [r2, #28]
 8005a48:	f001 0107 	and.w	r1, r1, #7
 8005a4c:	2903      	cmp	r1, #3
 8005a4e:	f000 878d 	beq.w	800696c <main+0x1450>
 8005a52:	f003 0307 	and.w	r3, r3, #7
 8005a56:	2b05      	cmp	r3, #5
 8005a58:	f000 8788 	beq.w	800696c <main+0x1450>
 8005a5c:	f44f 63fa 	mov.w	r3, #2000	; 0x7d0
 8005a60:	8523      	strh	r3, [r4, #40]	; 0x28
 8005a62:	8563      	strh	r3, [r4, #42]	; 0x2a
 8005a64:	f894 303c 	ldrb.w	r3, [r4, #60]	; 0x3c
 8005a68:	2b01      	cmp	r3, #1
 8005a6a:	d055      	beq.n	8005b18 <main+0x5fc>
 8005a6c:	2301      	movs	r3, #1
 8005a6e:	2112      	movs	r1, #18
 8005a70:	f884 303c 	strb.w	r3, [r4, #60]	; 0x3c
 8005a74:	6b60      	ldr	r0, [r4, #52]	; 0x34
 8005a76:	f884 103d 	strb.w	r1, [r4, #61]	; 0x3d
 8005a7a:	2100      	movs	r1, #0
 8005a7c:	f884 103e 	strb.w	r1, [r4, #62]	; 0x3e
 8005a80:	4e5f      	ldr	r6, [pc, #380]	; (8005c00 <main+0x6e4>)
 8005a82:	f890 c034 	ldrb.w	ip, [r0, #52]	; 0x34
 8005a86:	8d21      	ldrh	r1, [r4, #40]	; 0x28
 8005a88:	6406      	str	r6, [r0, #64]	; 0x40
 8005a8a:	4e5e      	ldr	r6, [pc, #376]	; (8005c04 <main+0x6e8>)
 8005a8c:	63c6      	str	r6, [r0, #60]	; 0x3c
 8005a8e:	459c      	cmp	ip, r3
 8005a90:	4e5d      	ldr	r6, [pc, #372]	; (8005c08 <main+0x6ec>)
 8005a92:	6486      	str	r6, [r0, #72]	; 0x48
 8005a94:	b289      	uxth	r1, r1
 8005a96:	f102 060c 	add.w	r6, r2, #12
 8005a9a:	d02c      	beq.n	8005af6 <main+0x5da>
 8005a9c:	f880 3034 	strb.w	r3, [r0, #52]	; 0x34
 8005aa0:	f04f 0c02 	mov.w	ip, #2
 8005aa4:	6803      	ldr	r3, [r0, #0]
 8005aa6:	f880 c035 	strb.w	ip, [r0, #53]	; 0x35
 8005aaa:	f8d0 c008 	ldr.w	ip, [r0, #8]
 8005aae:	6818      	ldr	r0, [r3, #0]
 8005ab0:	f1bc 0f40 	cmp.w	ip, #64	; 0x40
 8005ab4:	f020 0001 	bic.w	r0, r0, #1
 8005ab8:	6018      	str	r0, [r3, #0]
 8005aba:	6059      	str	r1, [r3, #4]
 8005abc:	bf0b      	itete	eq
 8005abe:	609e      	streq	r6, [r3, #8]
 8005ac0:	609d      	strne	r5, [r3, #8]
 8005ac2:	60dd      	streq	r5, [r3, #12]
 8005ac4:	60de      	strne	r6, [r3, #12]
 8005ac6:	6819      	ldr	r1, [r3, #0]
 8005ac8:	f041 0110 	orr.w	r1, r1, #16
 8005acc:	6019      	str	r1, [r3, #0]
 8005ace:	6819      	ldr	r1, [r3, #0]
 8005ad0:	f041 0108 	orr.w	r1, r1, #8
 8005ad4:	6019      	str	r1, [r3, #0]
 8005ad6:	6819      	ldr	r1, [r3, #0]
 8005ad8:	f041 0104 	orr.w	r1, r1, #4
 8005adc:	6019      	str	r1, [r3, #0]
 8005ade:	6959      	ldr	r1, [r3, #20]
 8005ae0:	f041 0180 	orr.w	r1, r1, #128	; 0x80
 8005ae4:	6159      	str	r1, [r3, #20]
 8005ae6:	6819      	ldr	r1, [r3, #0]
 8005ae8:	f041 0102 	orr.w	r1, r1, #2
 8005aec:	6019      	str	r1, [r3, #0]
 8005aee:	6819      	ldr	r1, [r3, #0]
 8005af0:	f041 0101 	orr.w	r1, r1, #1
 8005af4:	6019      	str	r1, [r3, #0]
 8005af6:	69d3      	ldr	r3, [r2, #28]
 8005af8:	055d      	lsls	r5, r3, #21
 8005afa:	d403      	bmi.n	8005b04 <main+0x5e8>
 8005afc:	69d3      	ldr	r3, [r2, #28]
 8005afe:	f443 6380 	orr.w	r3, r3, #1024	; 0x400
 8005b02:	61d3      	str	r3, [r2, #28]
 8005b04:	6853      	ldr	r3, [r2, #4]
 8005b06:	0798      	lsls	r0, r3, #30
 8005b08:	d403      	bmi.n	8005b12 <main+0x5f6>
 8005b0a:	6853      	ldr	r3, [r2, #4]
 8005b0c:	f043 0302 	orr.w	r3, r3, #2
 8005b10:	6053      	str	r3, [r2, #4]
 8005b12:	2300      	movs	r3, #0
 8005b14:	f884 303c 	strb.w	r3, [r4, #60]	; 0x3c
 8005b18:	f8df b0fc 	ldr.w	fp, [pc, #252]	; 8005c18 <main+0x6fc>
 8005b1c:	4c3b      	ldr	r4, [pc, #236]	; (8005c0c <main+0x6f0>)
 8005b1e:	2600      	movs	r6, #0
 8005b20:	4631      	mov	r1, r6
 8005b22:	223c      	movs	r2, #60	; 0x3c
 8005b24:	f20b 50cc 	addw	r0, fp, #1484	; 0x5cc
 8005b28:	f88b 660c 	strb.w	r6, [fp, #1548]	; 0x60c
 8005b2c:	f8cb 65c4 	str.w	r6, [fp, #1476]	; 0x5c4
 8005b30:	f8cb 65c8 	str.w	r6, [fp, #1480]	; 0x5c8
 8005b34:	f002 face 	bl	80080d4 <memset>
 8005b38:	4631      	mov	r1, r6
 8005b3a:	f44f 7200 	mov.w	r2, #512	; 0x200
 8005b3e:	f10b 001c 	add.w	r0, fp, #28
 8005b42:	f002 fac7 	bl	80080d4 <memset>
 8005b46:	f04f 0901 	mov.w	r9, #1
 8005b4a:	f44f 7380 	mov.w	r3, #256	; 0x100
 8005b4e:	2240      	movs	r2, #64	; 0x40
 8005b50:	4631      	mov	r1, r6
 8005b52:	f8ab 3001 	strh.w	r3, [fp, #1]
 8005b56:	f8ab 321c 	strh.w	r3, [fp, #540]	; 0x21c
 8005b5a:	f04f 30ff 	mov.w	r0, #4294967295	; 0xffffffff
 8005b5e:	4b2c      	ldr	r3, [pc, #176]	; (8005c10 <main+0x6f4>)
 8005b60:	f8ab 9018 	strh.w	r9, [fp, #24]
 8005b64:	f88b 6000 	strb.w	r6, [fp]
 8005b68:	f88b 2006 	strb.w	r2, [fp, #6]
 8005b6c:	f8cb 6608 	str.w	r6, [fp, #1544]	; 0x608
 8005b70:	f8cb 3614 	str.w	r3, [fp, #1556]	; 0x614
 8005b74:	f7fd f89c 	bl	8002cb0 <HAL_NVIC_SetPriority.constprop.0>
 8005b78:	e9c4 6607 	strd	r6, r6, [r4, #28]
 8005b7c:	4a1c      	ldr	r2, [pc, #112]	; (8005bf0 <main+0x6d4>)
 8005b7e:	6126      	str	r6, [r4, #16]
 8005b80:	2503      	movs	r5, #3
 8005b82:	6266      	str	r6, [r4, #36]	; 0x24
 8005b84:	f884 5289 	strb.w	r5, [r4, #649]	; 0x289
 8005b88:	60e5      	str	r5, [r4, #12]
 8005b8a:	f04f 43a0 	mov.w	r3, #1342177280	; 0x50000000
 8005b8e:	6023      	str	r3, [r4, #0]
 8005b90:	6b13      	ldr	r3, [r2, #48]	; 0x30
 8005b92:	f8c4 b28c 	str.w	fp, [r4, #652]	; 0x28c
 8005b96:	ea43 0309 	orr.w	r3, r3, r9
 8005b9a:	f8cb 4610 	str.w	r4, [fp, #1552]	; 0x610
 8005b9e:	6313      	str	r3, [r2, #48]	; 0x30
 8005ba0:	6b13      	ldr	r3, [r2, #48]	; 0x30
 8005ba2:	481c      	ldr	r0, [pc, #112]	; (8005c14 <main+0x6f8>)
 8005ba4:	f043 0304 	orr.w	r3, r3, #4
 8005ba8:	6313      	str	r3, [r2, #48]	; 0x30
 8005baa:	230b      	movs	r3, #11
 8005bac:	e9cd 6513 	strd	r6, r5, [sp, #76]	; 0x4c
 8005bb0:	a911      	add	r1, sp, #68	; 0x44
 8005bb2:	f04f 0802 	mov.w	r8, #2
 8005bb6:	260a      	movs	r6, #10
 8005bb8:	60a3      	str	r3, [r4, #8]
 8005bba:	f44f 53c0 	mov.w	r3, #6144	; 0x1800
 8005bbe:	9311      	str	r3, [sp, #68]	; 0x44
 8005bc0:	f8c4 8018 	str.w	r8, [r4, #24]
 8005bc4:	f8cd 8048 	str.w	r8, [sp, #72]	; 0x48
 8005bc8:	9615      	str	r6, [sp, #84]	; 0x54
 8005bca:	f7fc fceb 	bl	80025a4 <HAL_GPIO_Init>
 8005bce:	f44f 6180 	mov.w	r1, #1024	; 0x400
 8005bd2:	2212      	movs	r2, #18
 8005bd4:	e9cd 5614 	strd	r5, r6, [sp, #80]	; 0x50
 8005bd8:	e9cd 1211 	strd	r1, r2, [sp, #68]	; 0x44
 8005bdc:	f8cd 904c 	str.w	r9, [sp, #76]	; 0x4c
 8005be0:	464b      	mov	r3, r9
 8005be2:	e01b      	b.n	8005c1c <main+0x700>
 8005be4:	20002f50 	.word	0x20002f50
 8005be8:	40003c00 	.word	0x40003c00
 8005bec:	200015f4 	.word	0x200015f4
 8005bf0:	40023800 	.word	0x40023800
 8005bf4:	007a1200 	.word	0x007a1200
 8005bf8:	00f42400 	.word	0x00f42400
 8005bfc:	2000064c 	.word	0x2000064c
 8005c00:	08004bf5 	.word	0x08004bf5
 8005c04:	08004b19 	.word	0x08004b19
 8005c08:	08002831 	.word	0x08002831
 8005c0c:	20001634 	.word	0x20001634
 8005c10:	08003011 	.word	0x08003011
 8005c14:	40020000 	.word	0x40020000
 8005c18:	200018c4 	.word	0x200018c4
 8005c1c:	2201      	movs	r2, #1
 8005c1e:	fa02 fc03 	lsl.w	ip, r2, r3
 8005c22:	f43c 6e80 	bics.w	lr, ip, #1024	; 0x400
 8005c26:	d12f      	bne.n	8005c88 <main+0x76c>
 8005c28:	08da      	lsrs	r2, r3, #3
 8005c2a:	0092      	lsls	r2, r2, #2
 8005c2c:	f102 4280 	add.w	r2, r2, #1073741824	; 0x40000000
 8005c30:	f502 3200 	add.w	r2, r2, #131072	; 0x20000
 8005c34:	f003 0107 	and.w	r1, r3, #7
 8005c38:	f8d2 e020 	ldr.w	lr, [r2, #32]
 8005c3c:	0089      	lsls	r1, r1, #2
 8005c3e:	f04f 090f 	mov.w	r9, #15
 8005c42:	fa09 f901 	lsl.w	r9, r9, r1
 8005c46:	ea2e 0e09 	bic.w	lr, lr, r9
 8005c4a:	fa06 f101 	lsl.w	r1, r6, r1
 8005c4e:	ea41 010e 	orr.w	r1, r1, lr
 8005c52:	6211      	str	r1, [r2, #32]
 8005c54:	6801      	ldr	r1, [r0, #0]
 8005c56:	005a      	lsls	r2, r3, #1
 8005c58:	fa05 fe02 	lsl.w	lr, r5, r2
 8005c5c:	ea21 090e 	bic.w	r9, r1, lr
 8005c60:	fa08 f102 	lsl.w	r1, r8, r2
 8005c64:	ea41 0109 	orr.w	r1, r1, r9
 8005c68:	6001      	str	r1, [r0, #0]
 8005c6a:	2101      	movs	r1, #1
 8005c6c:	4091      	lsls	r1, r2
 8005c6e:	6882      	ldr	r2, [r0, #8]
 8005c70:	ea4e 0202 	orr.w	r2, lr, r2
 8005c74:	6082      	str	r2, [r0, #8]
 8005c76:	6842      	ldr	r2, [r0, #4]
 8005c78:	ea4c 0202 	orr.w	r2, ip, r2
 8005c7c:	6042      	str	r2, [r0, #4]
 8005c7e:	68c2      	ldr	r2, [r0, #12]
 8005c80:	ea22 020e 	bic.w	r2, r2, lr
 8005c84:	430a      	orrs	r2, r1
 8005c86:	60c2      	str	r2, [r0, #12]
 8005c88:	3301      	adds	r3, #1
 8005c8a:	2b10      	cmp	r3, #16
 8005c8c:	d1c6      	bne.n	8005c1c <main+0x700>
 8005c8e:	4ba2      	ldr	r3, [pc, #648]	; (8005f18 <main+0x9fc>)
 8005c90:	48a2      	ldr	r0, [pc, #648]	; (8005f1c <main+0xa00>)
 8005c92:	681a      	ldr	r2, [r3, #0]
 8005c94:	f022 0203 	bic.w	r2, r2, #3
 8005c98:	f042 0201 	orr.w	r2, r2, #1
 8005c9c:	601a      	str	r2, [r3, #0]
 8005c9e:	689a      	ldr	r2, [r3, #8]
 8005ca0:	f022 0203 	bic.w	r2, r2, #3
 8005ca4:	f042 0202 	orr.w	r2, r2, #2
 8005ca8:	609a      	str	r2, [r3, #8]
 8005caa:	685a      	ldr	r2, [r3, #4]
 8005cac:	f022 0201 	bic.w	r2, r2, #1
 8005cb0:	605a      	str	r2, [r3, #4]
 8005cb2:	68da      	ldr	r2, [r3, #12]
 8005cb4:	f022 0203 	bic.w	r2, r2, #3
 8005cb8:	60da      	str	r2, [r3, #12]
 8005cba:	6b43      	ldr	r3, [r0, #52]	; 0x34
 8005cbc:	f043 0380 	orr.w	r3, r3, #128	; 0x80
 8005cc0:	6343      	str	r3, [r0, #52]	; 0x34
 8005cc2:	6c43      	ldr	r3, [r0, #68]	; 0x44
 8005cc4:	f443 4380 	orr.w	r3, r3, #16384	; 0x4000
 8005cc8:	6443      	str	r3, [r0, #68]	; 0x44
 8005cca:	2106      	movs	r1, #6
 8005ccc:	2043      	movs	r0, #67	; 0x43
 8005cce:	f7fc ffef 	bl	8002cb0 <HAL_NVIC_SetPriority.constprop.0>
 8005cd2:	4b93      	ldr	r3, [pc, #588]	; (8005f20 <main+0xa04>)
 8005cd4:	f04f 40a0 	mov.w	r0, #1342177280	; 0x50000000
 8005cd8:	2208      	movs	r2, #8
 8005cda:	609a      	str	r2, [r3, #8]
 8005cdc:	6883      	ldr	r3, [r0, #8]
 8005cde:	6921      	ldr	r1, [r4, #16]
 8005ce0:	f023 0301 	bic.w	r3, r3, #1
 8005ce4:	6083      	str	r3, [r0, #8]
 8005ce6:	69a3      	ldr	r3, [r4, #24]
 8005ce8:	6ae2      	ldr	r2, [r4, #44]	; 0x2c
 8005cea:	2b01      	cmp	r3, #1
 8005cec:	f040 84c8 	bne.w	8006680 <main+0x1164>
 8005cf0:	6b83      	ldr	r3, [r0, #56]	; 0x38
 8005cf2:	f423 3380 	bic.w	r3, r3, #65536	; 0x10000
 8005cf6:	6383      	str	r3, [r0, #56]	; 0x38
 8005cf8:	68c3      	ldr	r3, [r0, #12]
 8005cfa:	f423 0384 	bic.w	r3, r3, #4325376	; 0x420000
 8005cfe:	f023 0340 	bic.w	r3, r3, #64	; 0x40
 8005d02:	60c3      	str	r3, [r0, #12]
 8005d04:	68c3      	ldr	r3, [r0, #12]
 8005d06:	2a01      	cmp	r2, #1
 8005d08:	f423 1340 	bic.w	r3, r3, #3145728	; 0x300000
 8005d0c:	60c3      	str	r3, [r0, #12]
 8005d0e:	d103      	bne.n	8005d18 <main+0x7fc>
 8005d10:	68c3      	ldr	r3, [r0, #12]
 8005d12:	f443 1380 	orr.w	r3, r3, #1048576	; 0x100000
 8005d16:	60c3      	str	r3, [r0, #12]
 8005d18:	f04f 40a0 	mov.w	r0, #1342177280	; 0x50000000
 8005d1c:	f7fd f9ca 	bl	80030b4 <USB_CoreReset.isra.0>
 8005d20:	2901      	cmp	r1, #1
 8005d22:	d109      	bne.n	8005d38 <main+0x81c>
 8005d24:	f04f 43a0 	mov.w	r3, #1342177280	; 0x50000000
 8005d28:	689a      	ldr	r2, [r3, #8]
 8005d2a:	f042 020c 	orr.w	r2, r2, #12
 8005d2e:	609a      	str	r2, [r3, #8]
 8005d30:	689a      	ldr	r2, [r3, #8]
 8005d32:	f042 0220 	orr.w	r2, r2, #32
 8005d36:	609a      	str	r2, [r3, #8]
 8005d38:	f04f 45a0 	mov.w	r5, #1342177280	; 0x50000000
 8005d3c:	2032      	movs	r0, #50	; 0x32
 8005d3e:	68eb      	ldr	r3, [r5, #12]
 8005d40:	f023 43c0 	bic.w	r3, r3, #1610612736	; 0x60000000
 8005d44:	60eb      	str	r3, [r5, #12]
 8005d46:	68eb      	ldr	r3, [r5, #12]
 8005d48:	f043 5300 	orr.w	r3, r3, #536870912	; 0x20000000
 8005d4c:	60eb      	str	r3, [r5, #12]
 8005d4e:	f7fa fd79 	bl	8000844 <HAL_Delay>
 8005d52:	2300      	movs	r3, #0
 8005d54:	68a0      	ldr	r0, [r4, #8]
 8005d56:	6926      	ldr	r6, [r4, #16]
 8005d58:	f8c5 3e00 	str.w	r3, [r5, #3584]	; 0xe00
 8005d5c:	6bab      	ldr	r3, [r5, #56]	; 0x38
 8005d5e:	4a71      	ldr	r2, [pc, #452]	; (8005f24 <main+0xa08>)
 8005d60:	f423 2380 	bic.w	r3, r3, #262144	; 0x40000
 8005d64:	63ab      	str	r3, [r5, #56]	; 0x38
 8005d66:	6bab      	ldr	r3, [r5, #56]	; 0x38
 8005d68:	f423 2300 	bic.w	r3, r3, #524288	; 0x80000
 8005d6c:	63ab      	str	r3, [r5, #56]	; 0x38
 8005d6e:	6bab      	ldr	r3, [r5, #56]	; 0x38
 8005d70:	f443 1300 	orr.w	r3, r3, #2097152	; 0x200000
 8005d74:	63ab      	str	r3, [r5, #56]	; 0x38
 8005d76:	6813      	ldr	r3, [r2, #0]
 8005d78:	f44f 7108 	mov.w	r1, #544	; 0x220
 8005d7c:	f023 0304 	bic.w	r3, r3, #4
 8005d80:	6013      	str	r3, [r2, #0]
 8005d82:	4b69      	ldr	r3, [pc, #420]	; (8005f28 <main+0xa0c>)
 8005d84:	6129      	str	r1, [r5, #16]
 8005d86:	e001      	b.n	8005d8c <main+0x870>
 8005d88:	3b01      	subs	r3, #1
 8005d8a:	d002      	beq.n	8005d92 <main+0x876>
 8005d8c:	692a      	ldr	r2, [r5, #16]
 8005d8e:	0692      	lsls	r2, r2, #26
 8005d90:	d4fa      	bmi.n	8005d88 <main+0x86c>
 8005d92:	f04f 41a0 	mov.w	r1, #1342177280	; 0x50000000
 8005d96:	2310      	movs	r3, #16
 8005d98:	610b      	str	r3, [r1, #16]
 8005d9a:	4b63      	ldr	r3, [pc, #396]	; (8005f28 <main+0xa0c>)
 8005d9c:	e001      	b.n	8005da2 <main+0x886>
 8005d9e:	3b01      	subs	r3, #1
 8005da0:	d002      	beq.n	8005da8 <main+0x88c>
 8005da2:	690a      	ldr	r2, [r1, #16]
 8005da4:	06d5      	lsls	r5, r2, #27
 8005da6:	d4fa      	bmi.n	8005d9e <main+0x882>
 8005da8:	b158      	cbz	r0, 8005dc2 <main+0x8a6>
 8005daa:	2200      	movs	r2, #0
 8005dac:	4b5f      	ldr	r3, [pc, #380]	; (8005f2c <main+0xa10>)
 8005dae:	f04f 35ff 	mov.w	r5, #4294967295	; 0xffffffff
 8005db2:	4611      	mov	r1, r2
 8005db4:	3201      	adds	r2, #1
 8005db6:	4290      	cmp	r0, r2
 8005db8:	609d      	str	r5, [r3, #8]
 8005dba:	60d9      	str	r1, [r3, #12]
 8005dbc:	f103 0320 	add.w	r3, r3, #32
 8005dc0:	d1f8      	bne.n	8005db4 <main+0x898>
 8005dc2:	f04f 42a0 	mov.w	r2, #1342177280	; 0x50000000
 8005dc6:	f8d2 3440 	ldr.w	r3, [r2, #1088]	; 0x440
 8005dca:	930e      	str	r3, [sp, #56]	; 0x38
 8005dcc:	9b0e      	ldr	r3, [sp, #56]	; 0x38
 8005dce:	f023 032e 	bic.w	r3, r3, #46	; 0x2e
 8005dd2:	930e      	str	r3, [sp, #56]	; 0x38
 8005dd4:	9b0e      	ldr	r3, [sp, #56]	; 0x38
 8005dd6:	04d9      	lsls	r1, r3, #19
 8005dd8:	d404      	bmi.n	8005de4 <main+0x8c8>
 8005dda:	9b0e      	ldr	r3, [sp, #56]	; 0x38
 8005ddc:	f443 5380 	orr.w	r3, r3, #4096	; 0x1000
 8005de0:	f8c2 3440 	str.w	r3, [r2, #1088]	; 0x440
 8005de4:	20c8      	movs	r0, #200	; 0xc8
 8005de6:	9b0e      	ldr	r3, [sp, #56]	; 0x38
 8005de8:	f7fa fd2c 	bl	8000844 <HAL_Delay>
 8005dec:	f04f 43a0 	mov.w	r3, #1342177280	; 0x50000000
 8005df0:	2200      	movs	r2, #0
 8005df2:	619a      	str	r2, [r3, #24]
 8005df4:	f04f 32ff 	mov.w	r2, #4294967295	; 0xffffffff
 8005df8:	615a      	str	r2, [r3, #20]
 8005dfa:	2280      	movs	r2, #128	; 0x80
 8005dfc:	625a      	str	r2, [r3, #36]	; 0x24
 8005dfe:	f502 02c0 	add.w	r2, r2, #6291456	; 0x600000
 8005e02:	629a      	str	r2, [r3, #40]	; 0x28
 8005e04:	4a4a      	ldr	r2, [pc, #296]	; (8005f30 <main+0xa14>)
 8005e06:	f8c3 2100 	str.w	r2, [r3, #256]	; 0x100
 8005e0a:	b91e      	cbnz	r6, 8005e14 <main+0x8f8>
 8005e0c:	699a      	ldr	r2, [r3, #24]
 8005e0e:	f042 0210 	orr.w	r2, r2, #16
 8005e12:	619a      	str	r2, [r3, #24]
 8005e14:	f04f 41a0 	mov.w	r1, #1342177280	; 0x50000000
 8005e18:	4b46      	ldr	r3, [pc, #280]	; (8005f34 <main+0xa18>)
 8005e1a:	698a      	ldr	r2, [r1, #24]
 8005e1c:	4841      	ldr	r0, [pc, #260]	; (8005f24 <main+0xa08>)
 8005e1e:	4313      	orrs	r3, r2
 8005e20:	2201      	movs	r2, #1
 8005e22:	618b      	str	r3, [r1, #24]
 8005e24:	f884 2289 	strb.w	r2, [r4, #649]	; 0x289
 8005e28:	6883      	ldr	r3, [r0, #8]
 8005e2a:	b29b      	uxth	r3, r3
 8005e2c:	f8cb 3608 	str.w	r3, [fp, #1544]	; 0x608
 8005e30:	f8db 35c8 	ldr.w	r3, [fp, #1480]	; 0x5c8
 8005e34:	b923      	cbnz	r3, 8005e40 <main+0x924>
 8005e36:	4b40      	ldr	r3, [pc, #256]	; (8005f38 <main+0xa1c>)
 8005e38:	f8cb 25c8 	str.w	r2, [fp, #1480]	; 0x5c8
 8005e3c:	f8cb 35c0 	str.w	r3, [fp, #1472]	; 0x5c0
 8005e40:	f894 3288 	ldrb.w	r3, [r4, #648]	; 0x288
 8005e44:	2b01      	cmp	r3, #1
 8005e46:	d018      	beq.n	8005e7a <main+0x95e>
 8005e48:	f04f 43a0 	mov.w	r3, #1342177280	; 0x50000000
 8005e4c:	689a      	ldr	r2, [r3, #8]
 8005e4e:	f042 0201 	orr.w	r2, r2, #1
 8005e52:	609a      	str	r2, [r3, #8]
 8005e54:	f8d3 2440 	ldr.w	r2, [r3, #1088]	; 0x440
 8005e58:	920f      	str	r2, [sp, #60]	; 0x3c
 8005e5a:	9a0f      	ldr	r2, [sp, #60]	; 0x3c
 8005e5c:	f022 022e 	bic.w	r2, r2, #46	; 0x2e
 8005e60:	920f      	str	r2, [sp, #60]	; 0x3c
 8005e62:	9a0f      	ldr	r2, [sp, #60]	; 0x3c
 8005e64:	04d2      	lsls	r2, r2, #19
 8005e66:	d404      	bmi.n	8005e72 <main+0x956>
 8005e68:	9a0f      	ldr	r2, [sp, #60]	; 0x3c
 8005e6a:	f442 5280 	orr.w	r2, r2, #4096	; 0x1000
 8005e6e:	f8c3 2440 	str.w	r2, [r3, #1088]	; 0x440
 8005e72:	2300      	movs	r3, #0
 8005e74:	9a0f      	ldr	r2, [sp, #60]	; 0x3c
 8005e76:	f884 3288 	strb.w	r3, [r4, #648]	; 0x288
 8005e7a:	4b27      	ldr	r3, [pc, #156]	; (8005f18 <main+0x9fc>)
 8005e7c:	f8df 90c4 	ldr.w	r9, [pc, #196]	; 8005f44 <main+0xa28>
 8005e80:	2201      	movs	r2, #1
 8005e82:	835a      	strh	r2, [r3, #26]
 8005e84:	20c8      	movs	r0, #200	; 0xc8
 8005e86:	f7fa fcdd 	bl	8000844 <HAL_Delay>
 8005e8a:	f899 3000 	ldrb.w	r3, [r9]
 8005e8e:	2b02      	cmp	r3, #2
 8005e90:	d02f      	beq.n	8005ef2 <main+0x9d6>
 8005e92:	2b04      	cmp	r3, #4
 8005e94:	f000 8385 	beq.w	80065a2 <main+0x1086>
 8005e98:	2302      	movs	r3, #2
 8005e9a:	f88d 3037 	strb.w	r3, [sp, #55]	; 0x37
 8005e9e:	f89b 3000 	ldrb.w	r3, [fp]
 8005ea2:	b2db      	uxtb	r3, r3
 8005ea4:	2b0a      	cmp	r3, #10
 8005ea6:	d8f0      	bhi.n	8005e8a <main+0x96e>
 8005ea8:	a201      	add	r2, pc, #4	; (adr r2, 8005eb0 <main+0x994>)
 8005eaa:	f852 f023 	ldr.w	pc, [r2, r3, lsl #2]
 8005eae:	bf00      	nop
 8005eb0:	080062e7 	.word	0x080062e7
 8005eb4:	08005e8b 	.word	0x08005e8b
 8005eb8:	08006091 	.word	0x08006091
 8005ebc:	08006007 	.word	0x08006007
 8005ec0:	08005e8b 	.word	0x08005e8b
 8005ec4:	08005fe9 	.word	0x08005fe9
 8005ec8:	08005fc3 	.word	0x08005fc3
 8005ecc:	08005fab 	.word	0x08005fab
 8005ed0:	08005f83 	.word	0x08005f83
 8005ed4:	08005f49 	.word	0x08005f49
 8005ed8:	08005edd 	.word	0x08005edd
 8005edc:	f8db 35c4 	ldr.w	r3, [fp, #1476]	; 0x5c4
 8005ee0:	2b00      	cmp	r3, #0
 8005ee2:	d0d2      	beq.n	8005e8a <main+0x96e>
 8005ee4:	695b      	ldr	r3, [r3, #20]
 8005ee6:	4815      	ldr	r0, [pc, #84]	; (8005f3c <main+0xa20>)
 8005ee8:	4798      	blx	r3
 8005eea:	f899 3000 	ldrb.w	r3, [r9]
 8005eee:	2b02      	cmp	r3, #2
 8005ef0:	d1cf      	bne.n	8005e92 <main+0x976>
 8005ef2:	f8db 35c4 	ldr.w	r3, [fp, #1476]	; 0x5c4
 8005ef6:	69db      	ldr	r3, [r3, #28]
 8005ef8:	781a      	ldrb	r2, [r3, #0]
 8005efa:	2a01      	cmp	r2, #1
 8005efc:	d807      	bhi.n	8005f0e <main+0x9f2>
 8005efe:	4c10      	ldr	r4, [pc, #64]	; (8005f40 <main+0xa24>)
 8005f00:	611c      	str	r4, [r3, #16]
 8005f02:	2040      	movs	r0, #64	; 0x40
 8005f04:	2101      	movs	r1, #1
 8005f06:	2203      	movs	r2, #3
 8005f08:	82d8      	strh	r0, [r3, #22]
 8005f0a:	7019      	strb	r1, [r3, #0]
 8005f0c:	765a      	strb	r2, [r3, #25]
 8005f0e:	2303      	movs	r3, #3
 8005f10:	f889 3000 	strb.w	r3, [r9]
 8005f14:	e7c0      	b.n	8005e98 <main+0x97c>
 8005f16:	bf00      	nop
 8005f18:	40020800 	.word	0x40020800
 8005f1c:	40023800 	.word	0x40023800
 8005f20:	e000e100 	.word	0xe000e100
 8005f24:	50000400 	.word	0x50000400
 8005f28:	00030d40 	.word	0x00030d40
 8005f2c:	50000500 	.word	0x50000500
 8005f30:	004000e0 	.word	0x004000e0
 8005f34:	a3200008 	.word	0xa3200008
 8005f38:	20000004 	.word	0x20000004
 8005f3c:	200018c4 	.word	0x200018c4
 8005f40:	200005f8 	.word	0x200005f8
 8005f44:	200005ac 	.word	0x200005ac
 8005f48:	f8db 35c8 	ldr.w	r3, [fp, #1480]	; 0x5c8
 8005f4c:	2b00      	cmp	r3, #0
 8005f4e:	d09c      	beq.n	8005e8a <main+0x96e>
 8005f50:	f8db 35c0 	ldr.w	r3, [fp, #1472]	; 0x5c0
 8005f54:	f89b 2241 	ldrb.w	r2, [fp, #577]	; 0x241
 8005f58:	7919      	ldrb	r1, [r3, #4]
 8005f5a:	4291      	cmp	r1, r2
 8005f5c:	f040 8380 	bne.w	8006660 <main+0x1144>
 8005f60:	f8cb 35c4 	str.w	r3, [fp, #1476]	; 0x5c4
 8005f64:	689b      	ldr	r3, [r3, #8]
 8005f66:	4848      	ldr	r0, [pc, #288]	; (8006088 <main+0xb6c>)
 8005f68:	4798      	blx	r3
 8005f6a:	2800      	cmp	r0, #0
 8005f6c:	f040 835f 	bne.w	800662e <main+0x1112>
 8005f70:	2306      	movs	r3, #6
 8005f72:	f88b 3000 	strb.w	r3, [fp]
 8005f76:	4844      	ldr	r0, [pc, #272]	; (8006088 <main+0xb6c>)
 8005f78:	f8db 3614 	ldr.w	r3, [fp, #1556]	; 0x614
 8005f7c:	2103      	movs	r1, #3
 8005f7e:	4798      	blx	r3
 8005f80:	e783      	b.n	8005e8a <main+0x96e>
 8005f82:	f89b 3002 	ldrb.w	r3, [fp, #2]
 8005f86:	f89b 2237 	ldrb.w	r2, [fp, #567]	; 0x237
 8005f8a:	2b01      	cmp	r3, #1
 8005f8c:	f000 8353 	beq.w	8006636 <main+0x111a>
 8005f90:	2b02      	cmp	r3, #2
 8005f92:	f47f af7a 	bne.w	8005e8a <main+0x96e>
 8005f96:	483c      	ldr	r0, [pc, #240]	; (8006088 <main+0xb6c>)
 8005f98:	f7fe ff08 	bl	8004dac <USBH_CtlReq.part.0>
 8005f9c:	2800      	cmp	r0, #0
 8005f9e:	f47f af74 	bne.w	8005e8a <main+0x96e>
 8005fa2:	2309      	movs	r3, #9
 8005fa4:	f88b 3000 	strb.w	r3, [fp]
 8005fa8:	e76f      	b.n	8005e8a <main+0x96e>
 8005faa:	f8db 3614 	ldr.w	r3, [fp, #1556]	; 0x614
 8005fae:	2b00      	cmp	r3, #0
 8005fb0:	f43f af6b 	beq.w	8005e8a <main+0x96e>
 8005fb4:	4834      	ldr	r0, [pc, #208]	; (8006088 <main+0xb6c>)
 8005fb6:	2101      	movs	r1, #1
 8005fb8:	4798      	blx	r3
 8005fba:	2308      	movs	r3, #8
 8005fbc:	f88b 3000 	strb.w	r3, [fp]
 8005fc0:	e763      	b.n	8005e8a <main+0x96e>
 8005fc2:	f8db 35c4 	ldr.w	r3, [fp, #1476]	; 0x5c4
 8005fc6:	2b00      	cmp	r3, #0
 8005fc8:	f000 8331 	beq.w	800662e <main+0x1112>
 8005fcc:	691b      	ldr	r3, [r3, #16]
 8005fce:	482e      	ldr	r0, [pc, #184]	; (8006088 <main+0xb6c>)
 8005fd0:	4798      	blx	r3
 8005fd2:	f88d 0037 	strb.w	r0, [sp, #55]	; 0x37
 8005fd6:	f89d 3037 	ldrb.w	r3, [sp, #55]	; 0x37
 8005fda:	2b00      	cmp	r3, #0
 8005fdc:	f47f af55 	bne.w	8005e8a <main+0x96e>
 8005fe0:	230a      	movs	r3, #10
 8005fe2:	f88b 3000 	strb.w	r3, [fp]
 8005fe6:	e750      	b.n	8005e8a <main+0x96e>
 8005fe8:	f89b 3001 	ldrb.w	r3, [fp, #1]
 8005fec:	2b07      	cmp	r3, #7
 8005fee:	f63f af4c 	bhi.w	8005e8a <main+0x96e>
 8005ff2:	e8df f013 	tbh	[pc, r3, lsl #1]
 8005ff6:	02ab      	.short	0x02ab
 8005ff8:	0239022f 	.word	0x0239022f
 8005ffc:	01f001c6 	.word	0x01f001c6
 8006000:	01b401bd 	.word	0x01b401bd
 8006004:	01a3      	.short	0x01a3
 8006006:	2400      	movs	r4, #0
 8006008:	f44f 7200 	mov.w	r2, #512	; 0x200
 800600c:	4621      	mov	r1, r4
 800600e:	481f      	ldr	r0, [pc, #124]	; (800608c <main+0xb70>)
 8006010:	f8cb 45cc 	str.w	r4, [fp, #1484]	; 0x5cc
 8006014:	f8cb 45d0 	str.w	r4, [fp, #1488]	; 0x5d0
 8006018:	f8cb 45d4 	str.w	r4, [fp, #1492]	; 0x5d4
 800601c:	f8cb 45d8 	str.w	r4, [fp, #1496]	; 0x5d8
 8006020:	f8cb 45dc 	str.w	r4, [fp, #1500]	; 0x5dc
 8006024:	f8cb 45e0 	str.w	r4, [fp, #1504]	; 0x5e0
 8006028:	f8cb 45e4 	str.w	r4, [fp, #1508]	; 0x5e4
 800602c:	f8cb 45e8 	str.w	r4, [fp, #1512]	; 0x5e8
 8006030:	f8cb 45ec 	str.w	r4, [fp, #1516]	; 0x5ec
 8006034:	f8cb 45f0 	str.w	r4, [fp, #1520]	; 0x5f0
 8006038:	f8cb 45f4 	str.w	r4, [fp, #1524]	; 0x5f4
 800603c:	f8cb 45f8 	str.w	r4, [fp, #1528]	; 0x5f8
 8006040:	f8cb 45fc 	str.w	r4, [fp, #1532]	; 0x5fc
 8006044:	f8cb 4600 	str.w	r4, [fp, #1536]	; 0x600
 8006048:	f8cb 4604 	str.w	r4, [fp, #1540]	; 0x604
 800604c:	f002 f842 	bl	80080d4 <memset>
 8006050:	f8db 25c4 	ldr.w	r2, [fp, #1476]	; 0x5c4
 8006054:	f88b 4000 	strb.w	r4, [fp]
 8006058:	f44f 7380 	mov.w	r3, #256	; 0x100
 800605c:	2040      	movs	r0, #64	; 0x40
 800605e:	2101      	movs	r1, #1
 8006060:	f8ab 3001 	strh.w	r3, [fp, #1]
 8006064:	f8cb 4608 	str.w	r4, [fp, #1544]	; 0x608
 8006068:	f88b 0006 	strb.w	r0, [fp, #6]
 800606c:	f8ab 1018 	strh.w	r1, [fp, #24]
 8006070:	f8ab 321c 	strh.w	r3, [fp, #540]	; 0x21c
 8006074:	2a00      	cmp	r2, #0
 8006076:	f43f af08 	beq.w	8005e8a <main+0x96e>
 800607a:	68d3      	ldr	r3, [r2, #12]
 800607c:	4802      	ldr	r0, [pc, #8]	; (8006088 <main+0xb6c>)
 800607e:	4798      	blx	r3
 8006080:	f8cb 45c4 	str.w	r4, [fp, #1476]	; 0x5c4
 8006084:	e701      	b.n	8005e8a <main+0x96e>
 8006086:	bf00      	nop
 8006088:	200018c4 	.word	0x200018c4
 800608c:	200018e0 	.word	0x200018e0
 8006090:	f8da 1000 	ldr.w	r1, [sl]
 8006094:	f8da 2000 	ldr.w	r2, [sl]
 8006098:	1a52      	subs	r2, r2, r1
 800609a:	2a64      	cmp	r2, #100	; 0x64
 800609c:	d3fa      	bcc.n	8006094 <main+0xb78>
 800609e:	f8db 4610 	ldr.w	r4, [fp, #1552]	; 0x610
 80060a2:	f8db 55cc 	ldr.w	r5, [fp, #1484]	; 0x5cc
 80060a6:	6821      	ldr	r1, [r4, #0]
 80060a8:	f8d1 2440 	ldr.w	r2, [r1, #1088]	; 0x440
 80060ac:	9211      	str	r2, [sp, #68]	; 0x44
 80060ae:	9a11      	ldr	r2, [sp, #68]	; 0x44
 80060b0:	f3c2 4241 	ubfx	r2, r2, #17, #2
 80060b4:	2a03      	cmp	r2, #3
 80060b6:	bf08      	it	eq
 80060b8:	2201      	moveq	r2, #1
 80060ba:	b2d2      	uxtb	r2, r2
 80060bc:	2005      	movs	r0, #5
 80060be:	f415 4500 	ands.w	r5, r5, #32768	; 0x8000
 80060c2:	f88b 0000 	strb.w	r0, [fp]
 80060c6:	9205      	str	r2, [sp, #20]
 80060c8:	f88b 221d 	strb.w	r2, [fp, #541]	; 0x21d
 80060cc:	f000 8296 	beq.w	80065fc <main+0x10e0>
 80060d0:	f8db 55d0 	ldr.w	r5, [fp, #1488]	; 0x5d0
 80060d4:	042e      	lsls	r6, r5, #16
 80060d6:	f140 82d0 	bpl.w	800667a <main+0x115e>
 80060da:	f8db 55d4 	ldr.w	r5, [fp, #1492]	; 0x5d4
 80060de:	042d      	lsls	r5, r5, #16
 80060e0:	f140 82c8 	bpl.w	8006674 <main+0x1158>
 80060e4:	f8db 55d8 	ldr.w	r5, [fp, #1496]	; 0x5d8
 80060e8:	042a      	lsls	r2, r5, #16
 80060ea:	f140 82c0 	bpl.w	800666e <main+0x1152>
 80060ee:	f8db 55dc 	ldr.w	r5, [fp, #1500]	; 0x5dc
 80060f2:	042e      	lsls	r6, r5, #16
 80060f4:	f140 82d6 	bpl.w	80066a4 <main+0x1188>
 80060f8:	f8db 55e0 	ldr.w	r5, [fp, #1504]	; 0x5e0
 80060fc:	042d      	lsls	r5, r5, #16
 80060fe:	f140 82fd 	bpl.w	80066fc <main+0x11e0>
 8006102:	f8db 05e4 	ldr.w	r0, [fp, #1508]	; 0x5e4
 8006106:	0402      	lsls	r2, r0, #16
 8006108:	f140 82f5 	bpl.w	80066f6 <main+0x11da>
 800610c:	f8db 05e8 	ldr.w	r0, [fp, #1512]	; 0x5e8
 8006110:	0406      	lsls	r6, r0, #16
 8006112:	f140 82ed 	bpl.w	80066f0 <main+0x11d4>
 8006116:	f8db 05ec 	ldr.w	r0, [fp, #1516]	; 0x5ec
 800611a:	0405      	lsls	r5, r0, #16
 800611c:	f140 82e1 	bpl.w	80066e2 <main+0x11c6>
 8006120:	f8db 05f0 	ldr.w	r0, [fp, #1520]	; 0x5f0
 8006124:	0400      	lsls	r0, r0, #16
 8006126:	f140 8325 	bpl.w	8006774 <main+0x1258>
 800612a:	f8db 05f4 	ldr.w	r0, [fp, #1524]	; 0x5f4
 800612e:	0402      	lsls	r2, r0, #16
 8006130:	f140 831d 	bpl.w	800676e <main+0x1252>
 8006134:	20ff      	movs	r0, #255	; 0xff
 8006136:	f88b 0005 	strb.w	r0, [fp, #5]
 800613a:	9006      	str	r0, [sp, #24]
 800613c:	9004      	str	r0, [sp, #16]
 800613e:	f8db 55d0 	ldr.w	r5, [fp, #1488]	; 0x5d0
 8006142:	042e      	lsls	r6, r5, #16
 8006144:	f140 82a7 	bpl.w	8006696 <main+0x117a>
 8006148:	f8db 55d4 	ldr.w	r5, [fp, #1492]	; 0x5d4
 800614c:	042d      	lsls	r5, r5, #16
 800614e:	f140 8266 	bpl.w	800661e <main+0x1102>
 8006152:	f8db 35d8 	ldr.w	r3, [fp, #1496]	; 0x5d8
 8006156:	0418      	lsls	r0, r3, #16
 8006158:	f140 829f 	bpl.w	800669a <main+0x117e>
 800615c:	f8db 35dc 	ldr.w	r3, [fp, #1500]	; 0x5dc
 8006160:	041a      	lsls	r2, r3, #16
 8006162:	f140 82a2 	bpl.w	80066aa <main+0x118e>
 8006166:	f8db 35e0 	ldr.w	r3, [fp, #1504]	; 0x5e0
 800616a:	041b      	lsls	r3, r3, #16
 800616c:	f140 82a1 	bpl.w	80066b2 <main+0x1196>
 8006170:	f8db 35e4 	ldr.w	r3, [fp, #1508]	; 0x5e4
 8006174:	041e      	lsls	r6, r3, #16
 8006176:	f140 829a 	bpl.w	80066ae <main+0x1192>
 800617a:	f8db 35e8 	ldr.w	r3, [fp, #1512]	; 0x5e8
 800617e:	041d      	lsls	r5, r3, #16
 8006180:	f140 82d6 	bpl.w	8006730 <main+0x1214>
 8006184:	f8db 35ec 	ldr.w	r3, [fp, #1516]	; 0x5ec
 8006188:	0418      	lsls	r0, r3, #16
 800618a:	f140 82cf 	bpl.w	800672c <main+0x1210>
 800618e:	f8db 35f0 	ldr.w	r3, [fp, #1520]	; 0x5f0
 8006192:	041a      	lsls	r2, r3, #16
 8006194:	f140 82e9 	bpl.w	800676a <main+0x124e>
 8006198:	f8db 35f4 	ldr.w	r3, [fp, #1524]	; 0x5f4
 800619c:	041b      	lsls	r3, r3, #16
 800619e:	bf58      	it	pl
 80061a0:	230a      	movpl	r3, #10
 80061a2:	f140 823c 	bpl.w	800661e <main+0x1102>
 80061a6:	f04f 0cff 	mov.w	ip, #255	; 0xff
 80061aa:	4663      	mov	r3, ip
 80061ac:	f89b 2006 	ldrb.w	r2, [fp, #6]
 80061b0:	f89b 621c 	ldrb.w	r6, [fp, #540]	; 0x21c
 80061b4:	f894 5288 	ldrb.w	r5, [r4, #648]	; 0x288
 80061b8:	920a      	str	r2, [sp, #40]	; 0x28
 80061ba:	4610      	mov	r0, r2
 80061bc:	2d01      	cmp	r5, #1
 80061be:	4632      	mov	r2, r6
 80061c0:	b286      	uxth	r6, r0
 80061c2:	f88b 3004 	strb.w	r3, [fp, #4]
 80061c6:	9607      	str	r6, [sp, #28]
 80061c8:	f43f ae5f 	beq.w	8005e8a <main+0x96e>
 80061cc:	eb0c 0e8c 	add.w	lr, ip, ip, lsl #2
 80061d0:	eb04 06ce 	add.w	r6, r4, lr, lsl #3
 80061d4:	9208      	str	r2, [sp, #32]
 80061d6:	f886 2030 	strb.w	r2, [r6, #48]	; 0x30
 80061da:	9a04      	ldr	r2, [sp, #16]
 80061dc:	f886 3031 	strb.w	r3, [r6, #49]	; 0x31
 80061e0:	f501 65a0 	add.w	r5, r1, #1280	; 0x500
 80061e4:	f04f 0820 	mov.w	r8, #32
 80061e8:	fb18 5202 	smlabb	r2, r8, r2, r5
 80061ec:	9209      	str	r2, [sp, #36]	; 0x24
 80061ee:	9a07      	ldr	r2, [sp, #28]
 80061f0:	8732      	strh	r2, [r6, #56]	; 0x38
 80061f2:	fb18 5303 	smlabb	r3, r8, r3, r5
 80061f6:	9a05      	ldr	r2, [sp, #20]
 80061f8:	f886 2034 	strb.w	r2, [r6, #52]	; 0x34
 80061fc:	f44f 7880 	mov.w	r8, #256	; 0x100
 8006200:	f04f 0500 	mov.w	r5, #0
 8006204:	f8a6 8032 	strh.w	r8, [r6, #50]	; 0x32
 8006208:	f886 5037 	strb.w	r5, [r6, #55]	; 0x37
 800620c:	f04f 36ff 	mov.w	r6, #4294967295	; 0xffffffff
 8006210:	609e      	str	r6, [r3, #8]
 8006212:	f240 469d 	movw	r6, #1181	; 0x49d
 8006216:	60de      	str	r6, [r3, #12]
 8006218:	68de      	ldr	r6, [r3, #12]
 800621a:	ea46 0608 	orr.w	r6, r6, r8
 800621e:	60de      	str	r6, [r3, #12]
 8006220:	f8d1 e418 	ldr.w	lr, [r1, #1048]	; 0x418
 8006224:	2601      	movs	r6, #1
 8006226:	fa06 f60c 	lsl.w	r6, r6, ip
 800622a:	ea46 060e 	orr.w	r6, r6, lr
 800622e:	f1a2 0e02 	sub.w	lr, r2, #2
 8006232:	9a08      	ldr	r2, [sp, #32]
 8006234:	f8c1 6418 	str.w	r6, [r1, #1048]	; 0x418
 8006238:	ea4f 5c82 	mov.w	ip, r2, lsl #22
 800623c:	f00c 5cfe 	and.w	ip, ip, #532676608	; 0x1fc00000
 8006240:	4662      	mov	r2, ip
 8006242:	f8cd c02c 	str.w	ip, [sp, #44]	; 0x2c
 8006246:	f8d1 c018 	ldr.w	ip, [r1, #24]
 800624a:	9e06      	ldr	r6, [sp, #24]
 800624c:	fabe fe8e 	clz	lr, lr
 8006250:	ea4f 1e5e 	mov.w	lr, lr, lsr #5
 8006254:	f04c 7c00 	orr.w	ip, ip, #33554432	; 0x2000000
 8006258:	f8c1 c018 	str.w	ip, [r1, #24]
 800625c:	ea40 4c4e 	orr.w	ip, r0, lr, lsl #17
 8006260:	ea4c 0c02 	orr.w	ip, ip, r2
 8006264:	eb06 0686 	add.w	r6, r6, r6, lsl #2
 8006268:	eb04 08c6 	add.w	r8, r4, r6, lsl #3
 800626c:	f44c 4c00 	orr.w	ip, ip, #32768	; 0x8000
 8006270:	f8c3 c000 	str.w	ip, [r3]
 8006274:	9a08      	ldr	r2, [sp, #32]
 8006276:	9804      	ldr	r0, [sp, #16]
 8006278:	f888 2030 	strb.w	r2, [r8, #48]	; 0x30
 800627c:	f04f 0300 	mov.w	r3, #0
 8006280:	9a07      	ldr	r2, [sp, #28]
 8006282:	f8a8 3032 	strh.w	r3, [r8, #50]	; 0x32
 8006286:	9b05      	ldr	r3, [sp, #20]
 8006288:	f8a8 2038 	strh.w	r2, [r8, #56]	; 0x38
 800628c:	f888 0031 	strb.w	r0, [r8, #49]	; 0x31
 8006290:	f888 5037 	strb.w	r5, [r8, #55]	; 0x37
 8006294:	f888 3034 	strb.w	r3, [r8, #52]	; 0x34
 8006298:	9a09      	ldr	r2, [sp, #36]	; 0x24
 800629a:	f04f 33ff 	mov.w	r3, #4294967295	; 0xffffffff
 800629e:	6093      	str	r3, [r2, #8]
 80062a0:	f1b1 4fa0 	cmp.w	r1, #1342177280	; 0x50000000
 80062a4:	f240 439d 	movw	r3, #1181	; 0x49d
 80062a8:	60d3      	str	r3, [r2, #12]
 80062aa:	ea4f 4e4e 	mov.w	lr, lr, lsl #17
 80062ae:	f501 6080 	add.w	r0, r1, #1024	; 0x400
 80062b2:	d003      	beq.n	80062bc <main+0xda0>
 80062b4:	68d3      	ldr	r3, [r2, #12]
 80062b6:	f043 0360 	orr.w	r3, r3, #96	; 0x60
 80062ba:	60d3      	str	r3, [r2, #12]
 80062bc:	e9dd 230a 	ldrd	r2, r3, [sp, #40]	; 0x28
 80062c0:	9d06      	ldr	r5, [sp, #24]
 80062c2:	6986      	ldr	r6, [r0, #24]
 80062c4:	4313      	orrs	r3, r2
 80062c6:	2201      	movs	r2, #1
 80062c8:	40aa      	lsls	r2, r5
 80062ca:	4332      	orrs	r2, r6
 80062cc:	6182      	str	r2, [r0, #24]
 80062ce:	698a      	ldr	r2, [r1, #24]
 80062d0:	f042 7200 	orr.w	r2, r2, #33554432	; 0x2000000
 80062d4:	618a      	str	r2, [r1, #24]
 80062d6:	9a09      	ldr	r2, [sp, #36]	; 0x24
 80062d8:	ea43 030e 	orr.w	r3, r3, lr
 80062dc:	2000      	movs	r0, #0
 80062de:	6013      	str	r3, [r2, #0]
 80062e0:	f884 0288 	strb.w	r0, [r4, #648]	; 0x288
 80062e4:	e5d1      	b.n	8005e8a <main+0x96e>
 80062e6:	f89b 321e 	ldrb.w	r3, [fp, #542]	; 0x21e
 80062ea:	2b00      	cmp	r3, #0
 80062ec:	f43f adcd 	beq.w	8005e8a <main+0x96e>
 80062f0:	2301      	movs	r3, #1
 80062f2:	f88b 3000 	strb.w	r3, [fp]
 80062f6:	f8da 2000 	ldr.w	r2, [sl]
 80062fa:	f8da 3000 	ldr.w	r3, [sl]
 80062fe:	1a9b      	subs	r3, r3, r2
 8006300:	2bc8      	cmp	r3, #200	; 0xc8
 8006302:	d3fa      	bcc.n	80062fa <main+0xdde>
 8006304:	f8db 3610 	ldr.w	r3, [fp, #1552]	; 0x610
 8006308:	6819      	ldr	r1, [r3, #0]
 800630a:	f8d1 3440 	ldr.w	r3, [r1, #1088]	; 0x440
 800630e:	9310      	str	r3, [sp, #64]	; 0x40
 8006310:	9b10      	ldr	r3, [sp, #64]	; 0x40
 8006312:	f023 032e 	bic.w	r3, r3, #46	; 0x2e
 8006316:	9310      	str	r3, [sp, #64]	; 0x40
 8006318:	9b10      	ldr	r3, [sp, #64]	; 0x40
 800631a:	f443 7380 	orr.w	r3, r3, #256	; 0x100
 800631e:	f8c1 3440 	str.w	r3, [r1, #1088]	; 0x440
 8006322:	f8da 2000 	ldr.w	r2, [sl]
 8006326:	f8da 3000 	ldr.w	r3, [sl]
 800632a:	1a9b      	subs	r3, r3, r2
 800632c:	2b0a      	cmp	r3, #10
 800632e:	d3fa      	bcc.n	8006326 <main+0xe0a>
 8006330:	9b10      	ldr	r3, [sp, #64]	; 0x40
 8006332:	f423 7380 	bic.w	r3, r3, #256	; 0x100
 8006336:	f8c1 3440 	str.w	r3, [r1, #1088]	; 0x440
 800633a:	e5a6      	b.n	8005e8a <main+0x96e>
 800633c:	f89b 0230 	ldrb.w	r0, [fp, #560]	; 0x230
 8006340:	2800      	cmp	r0, #0
 8006342:	f040 81de 	bne.w	8006702 <main+0x11e6>
 8006346:	f89b 3231 	ldrb.w	r3, [fp, #561]	; 0x231
 800634a:	2200      	movs	r2, #0
 800634c:	2b01      	cmp	r3, #1
 800634e:	f88b 221f 	strb.w	r2, [fp, #543]	; 0x21f
 8006352:	f43f ae32 	beq.w	8005fba <main+0xa9e>
 8006356:	2307      	movs	r3, #7
 8006358:	f88b 3000 	strb.w	r3, [fp]
 800635c:	e595      	b.n	8005e8a <main+0x96e>
 800635e:	f89b 022f 	ldrb.w	r0, [fp, #559]	; 0x22f
 8006362:	2800      	cmp	r0, #0
 8006364:	f040 81e6 	bne.w	8006734 <main+0x1218>
 8006368:	2307      	movs	r3, #7
 800636a:	f88b 3001 	strb.w	r3, [fp, #1]
 800636e:	e58c      	b.n	8005e8a <main+0x96e>
 8006370:	f89b 022e 	ldrb.w	r0, [fp, #558]	; 0x22e
 8006374:	2800      	cmp	r0, #0
 8006376:	f040 81cc 	bne.w	8006712 <main+0x11f6>
 800637a:	2306      	movs	r3, #6
 800637c:	f88b 3001 	strb.w	r3, [fp, #1]
 8006380:	e583      	b.n	8005e8a <main+0x96e>
 8006382:	f89b 3002 	ldrb.w	r3, [fp, #2]
 8006386:	2b01      	cmp	r3, #1
 8006388:	f000 81db 	beq.w	8006742 <main+0x1226>
 800638c:	2b02      	cmp	r3, #2
 800638e:	f47f ad7c 	bne.w	8005e8a <main+0x96e>
 8006392:	48d5      	ldr	r0, [pc, #852]	; (80066e8 <main+0x11cc>)
 8006394:	f7fe fd0a 	bl	8004dac <USBH_CtlReq.part.0>
 8006398:	2800      	cmp	r0, #0
 800639a:	f47f ad76 	bne.w	8005e8a <main+0x96e>
 800639e:	f89b 201f 	ldrb.w	r2, [fp, #31]
 80063a2:	f89b 301e 	ldrb.w	r3, [fp, #30]
 80063a6:	eb03 2302 	add.w	r3, r3, r2, lsl #8
 80063aa:	f8ab 3234 	strh.w	r3, [fp, #564]	; 0x234
 80063ae:	f8bb 301c 	ldrh.w	r3, [fp, #28]
 80063b2:	f8ab 3232 	strh.w	r3, [fp, #562]	; 0x232
 80063b6:	f89b 3024 	ldrb.w	r3, [fp, #36]	; 0x24
 80063ba:	f88b 323a 	strb.w	r3, [fp, #570]	; 0x23a
 80063be:	f8bb 3020 	ldrh.w	r3, [fp, #32]
 80063c2:	f8ab 3236 	strh.w	r3, [fp, #566]	; 0x236
 80063c6:	f8bb 3022 	ldrh.w	r3, [fp, #34]	; 0x22
 80063ca:	f8ab 3238 	strh.w	r3, [fp, #568]	; 0x238
 80063ce:	2304      	movs	r3, #4
 80063d0:	f88b 3001 	strb.w	r3, [fp, #1]
 80063d4:	e559      	b.n	8005e8a <main+0x96e>
 80063d6:	f89b 3002 	ldrb.w	r3, [fp, #2]
 80063da:	f8bb 5234 	ldrh.w	r5, [fp, #564]	; 0x234
 80063de:	2b01      	cmp	r3, #1
 80063e0:	f000 8169 	beq.w	80066b6 <main+0x119a>
 80063e4:	2b02      	cmp	r3, #2
 80063e6:	f47f ad50 	bne.w	8005e8a <main+0x96e>
 80063ea:	48bf      	ldr	r0, [pc, #764]	; (80066e8 <main+0x11cc>)
 80063ec:	f7fe fcde 	bl	8004dac <USBH_CtlReq.part.0>
 80063f0:	2800      	cmp	r0, #0
 80063f2:	f47f ad4a 	bne.w	8005e8a <main+0x96e>
 80063f6:	f89b 301f 	ldrb.w	r3, [fp, #31]
 80063fa:	f89b 401e 	ldrb.w	r4, [fp, #30]
 80063fe:	eb04 2403 	add.w	r4, r4, r3, lsl #8
 8006402:	f8bb 301c 	ldrh.w	r3, [fp, #28]
 8006406:	f8ab 3232 	strh.w	r3, [fp, #562]	; 0x232
 800640a:	f89b 3024 	ldrb.w	r3, [fp, #36]	; 0x24
 800640e:	f88b 323a 	strb.w	r3, [fp, #570]	; 0x23a
 8006412:	f8bb 3020 	ldrh.w	r3, [fp, #32]
 8006416:	f8ab 3236 	strh.w	r3, [fp, #566]	; 0x236
 800641a:	b2a4      	uxth	r4, r4
 800641c:	f8bb 3022 	ldrh.w	r3, [fp, #34]	; 0x22
 8006420:	f8ab 4234 	strh.w	r4, [fp, #564]	; 0x234
 8006424:	2d09      	cmp	r5, #9
 8006426:	f8ab 3238 	strh.w	r3, [fp, #568]	; 0x238
 800642a:	d90f      	bls.n	800644c <main+0xf30>
 800642c:	49ae      	ldr	r1, [pc, #696]	; (80066e8 <main+0x11cc>)
 800642e:	4686      	mov	lr, r0
 8006430:	2209      	movs	r2, #9
 8006432:	f101 031c 	add.w	r3, r1, #28
 8006436:	e007      	b.n	8006448 <main+0xf2c>
 8006438:	7818      	ldrb	r0, [r3, #0]
 800643a:	4403      	add	r3, r0
 800643c:	4410      	add	r0, r2
 800643e:	b282      	uxth	r2, r0
 8006440:	7858      	ldrb	r0, [r3, #1]
 8006442:	2804      	cmp	r0, #4
 8006444:	f000 8240 	beq.w	80068c8 <main+0x13ac>
 8006448:	4294      	cmp	r4, r2
 800644a:	d8f5      	bhi.n	8006438 <main+0xf1c>
 800644c:	2305      	movs	r3, #5
 800644e:	f88b 3001 	strb.w	r3, [fp, #1]
 8006452:	e51a      	b.n	8005e8a <main+0x96e>
 8006454:	2012      	movs	r0, #18
 8006456:	f7ff f811 	bl	800547c <USBH_Get_DevDesc.constprop.0>
 800645a:	2800      	cmp	r0, #0
 800645c:	f47f ad15 	bne.w	8005e8a <main+0x96e>
 8006460:	2302      	movs	r3, #2
 8006462:	f88b 3001 	strb.w	r3, [fp, #1]
 8006466:	e510      	b.n	8005e8a <main+0x96e>
 8006468:	f89b 3002 	ldrb.w	r3, [fp, #2]
 800646c:	2b01      	cmp	r3, #1
 800646e:	f000 8157 	beq.w	8006720 <main+0x1204>
 8006472:	2b02      	cmp	r3, #2
 8006474:	f47f ad09 	bne.w	8005e8a <main+0x96e>
 8006478:	489b      	ldr	r0, [pc, #620]	; (80066e8 <main+0x11cc>)
 800647a:	f7fe fc97 	bl	8004dac <USBH_CtlReq.part.0>
 800647e:	2800      	cmp	r0, #0
 8006480:	f47f ad03 	bne.w	8005e8a <main+0x96e>
 8006484:	f8da 2000 	ldr.w	r2, [sl]
 8006488:	f8da 3000 	ldr.w	r3, [sl]
 800648c:	1a9b      	subs	r3, r3, r2
 800648e:	2b02      	cmp	r3, #2
 8006490:	d3fa      	bcc.n	8006488 <main+0xf6c>
 8006492:	f8db 0610 	ldr.w	r0, [fp, #1552]	; 0x610
 8006496:	f89b 421d 	ldrb.w	r4, [fp, #541]	; 0x21d
 800649a:	f890 3288 	ldrb.w	r3, [r0, #648]	; 0x288
 800649e:	2103      	movs	r1, #3
 80064a0:	2201      	movs	r2, #1
 80064a2:	f88b 1001 	strb.w	r1, [fp, #1]
 80064a6:	f89b 1006 	ldrb.w	r1, [fp, #6]
 80064aa:	f88b 221c 	strb.w	r2, [fp, #540]	; 0x21c
 80064ae:	4293      	cmp	r3, r2
 80064b0:	460d      	mov	r5, r1
 80064b2:	d040      	beq.n	8006536 <main+0x101a>
 80064b4:	f89b e004 	ldrb.w	lr, [fp, #4]
 80064b8:	2328      	movs	r3, #40	; 0x28
 80064ba:	fb03 030e 	mla	r3, r3, lr, r0
 80064be:	2600      	movs	r6, #0
 80064c0:	f44f 7c80 	mov.w	ip, #256	; 0x100
 80064c4:	f883 2030 	strb.w	r2, [r3, #48]	; 0x30
 80064c8:	f883 e031 	strb.w	lr, [r3, #49]	; 0x31
 80064cc:	f883 4034 	strb.w	r4, [r3, #52]	; 0x34
 80064d0:	f883 6037 	strb.w	r6, [r3, #55]	; 0x37
 80064d4:	f8a3 c032 	strh.w	ip, [r3, #50]	; 0x32
 80064d8:	f8d0 c000 	ldr.w	ip, [r0]
 80064dc:	8719      	strh	r1, [r3, #56]	; 0x38
 80064de:	eb0c 134e 	add.w	r3, ip, lr, lsl #5
 80064e2:	f04f 38ff 	mov.w	r8, #4294967295	; 0xffffffff
 80064e6:	f8c3 8508 	str.w	r8, [r3, #1288]	; 0x508
 80064ea:	f240 489d 	movw	r8, #1181	; 0x49d
 80064ee:	f8c3 850c 	str.w	r8, [r3, #1292]	; 0x50c
 80064f2:	f8d3 850c 	ldr.w	r8, [r3, #1292]	; 0x50c
 80064f6:	f448 7880 	orr.w	r8, r8, #256	; 0x100
 80064fa:	f8c3 850c 	str.w	r8, [r3, #1292]	; 0x50c
 80064fe:	fa02 f20e 	lsl.w	r2, r2, lr
 8006502:	f8dc e418 	ldr.w	lr, [ip, #1048]	; 0x418
 8006506:	ea42 020e 	orr.w	r2, r2, lr
 800650a:	f8cc 2418 	str.w	r2, [ip, #1048]	; 0x418
 800650e:	f8dc 2018 	ldr.w	r2, [ip, #24]
 8006512:	f042 7200 	orr.w	r2, r2, #33554432	; 0x2000000
 8006516:	f8cc 2018 	str.w	r2, [ip, #24]
 800651a:	f1a4 0c02 	sub.w	ip, r4, #2
 800651e:	f1dc 0200 	rsbs	r2, ip, #0
 8006522:	eb42 020c 	adc.w	r2, r2, ip
 8006526:	ea41 4242 	orr.w	r2, r1, r2, lsl #17
 800652a:	f442 0281 	orr.w	r2, r2, #4227072	; 0x408000
 800652e:	f8c3 2500 	str.w	r2, [r3, #1280]	; 0x500
 8006532:	f880 6288 	strb.w	r6, [r0, #648]	; 0x288
 8006536:	2200      	movs	r2, #0
 8006538:	9502      	str	r5, [sp, #8]
 800653a:	9400      	str	r4, [sp, #0]
 800653c:	9201      	str	r2, [sp, #4]
 800653e:	f89b 1005 	ldrb.w	r1, [fp, #5]
 8006542:	4869      	ldr	r0, [pc, #420]	; (80066e8 <main+0x11cc>)
 8006544:	2301      	movs	r3, #1
 8006546:	f7fc fced 	bl	8002f24 <USBH_LL_OpenPipe.isra.0>
 800654a:	e49e      	b.n	8005e8a <main+0x96e>
 800654c:	2008      	movs	r0, #8
 800654e:	f7fe ff95 	bl	800547c <USBH_Get_DevDesc.constprop.0>
 8006552:	4604      	mov	r4, r0
 8006554:	2800      	cmp	r0, #0
 8006556:	f47f ac98 	bne.w	8005e8a <main+0x96e>
 800655a:	9001      	str	r0, [sp, #4]
 800655c:	f89b 3227 	ldrb.w	r3, [fp, #551]	; 0x227
 8006560:	9302      	str	r3, [sp, #8]
 8006562:	f88b 3006 	strb.w	r3, [fp, #6]
 8006566:	f89b 321d 	ldrb.w	r3, [fp, #541]	; 0x21d
 800656a:	9300      	str	r3, [sp, #0]
 800656c:	2201      	movs	r2, #1
 800656e:	f89b 321c 	ldrb.w	r3, [fp, #540]	; 0x21c
 8006572:	f89b 1004 	ldrb.w	r1, [fp, #4]
 8006576:	f88b 2001 	strb.w	r2, [fp, #1]
 800657a:	485b      	ldr	r0, [pc, #364]	; (80066e8 <main+0x11cc>)
 800657c:	2280      	movs	r2, #128	; 0x80
 800657e:	f7fc fcd1 	bl	8002f24 <USBH_LL_OpenPipe.isra.0>
 8006582:	9401      	str	r4, [sp, #4]
 8006584:	f89b 3006 	ldrb.w	r3, [fp, #6]
 8006588:	9302      	str	r3, [sp, #8]
 800658a:	f89b 321d 	ldrb.w	r3, [fp, #541]	; 0x21d
 800658e:	9300      	str	r3, [sp, #0]
 8006590:	f89b 321c 	ldrb.w	r3, [fp, #540]	; 0x21c
 8006594:	f89b 1005 	ldrb.w	r1, [fp, #5]
 8006598:	4853      	ldr	r0, [pc, #332]	; (80066e8 <main+0x11cc>)
 800659a:	4622      	mov	r2, r4
 800659c:	f7fc fcc2 	bl	8002f24 <USBH_LL_OpenPipe.isra.0>
 80065a0:	e473      	b.n	8005e8a <main+0x96e>
 80065a2:	f89b 3000 	ldrb.w	r3, [fp]
 80065a6:	f8db 25c4 	ldr.w	r2, [fp, #1476]	; 0x5c4
 80065aa:	2400      	movs	r4, #0
 80065ac:	2b0a      	cmp	r3, #10
 80065ae:	69d5      	ldr	r5, [r2, #28]
 80065b0:	f889 4000 	strb.w	r4, [r9]
 80065b4:	f47f ac70 	bne.w	8005e98 <main+0x97c>
 80065b8:	702c      	strb	r4, [r5, #0]
 80065ba:	f8db 6610 	ldr.w	r6, [fp, #1552]	; 0x610
 80065be:	7869      	ldrb	r1, [r5, #1]
 80065c0:	f896 3288 	ldrb.w	r3, [r6, #648]	; 0x288
 80065c4:	2b01      	cmp	r3, #1
 80065c6:	f43f ac67 	beq.w	8005e98 <main+0x97c>
 80065ca:	f04f 0801 	mov.w	r8, #1
 80065ce:	6830      	ldr	r0, [r6, #0]
 80065d0:	f886 8288 	strb.w	r8, [r6, #648]	; 0x288
 80065d4:	f7f9 ff6e 	bl	80004b4 <USB_HC_Halt>
 80065d8:	f886 4288 	strb.w	r4, [r6, #648]	; 0x288
 80065dc:	78a9      	ldrb	r1, [r5, #2]
 80065de:	f8db 5610 	ldr.w	r5, [fp, #1552]	; 0x610
 80065e2:	f895 3288 	ldrb.w	r3, [r5, #648]	; 0x288
 80065e6:	4543      	cmp	r3, r8
 80065e8:	f43f ac56 	beq.w	8005e98 <main+0x97c>
 80065ec:	6828      	ldr	r0, [r5, #0]
 80065ee:	f885 8288 	strb.w	r8, [r5, #648]	; 0x288
 80065f2:	f7f9 ff5f 	bl	80004b4 <USB_HC_Halt>
 80065f6:	f885 4288 	strb.w	r4, [r5, #648]	; 0x288
 80065fa:	e44d      	b.n	8005e98 <main+0x97c>
 80065fc:	9504      	str	r5, [sp, #16]
 80065fe:	462a      	mov	r2, r5
 8006600:	eb0b 0582 	add.w	r5, fp, r2, lsl #2
 8006604:	f44f 4600 	mov.w	r6, #32768	; 0x8000
 8006608:	f8c5 65cc 	str.w	r6, [r5, #1484]	; 0x5cc
 800660c:	f8db 55cc 	ldr.w	r5, [fp, #1484]	; 0x5cc
 8006610:	f88b 2005 	strb.w	r2, [fp, #5]
 8006614:	4035      	ands	r5, r6
 8006616:	9206      	str	r2, [sp, #24]
 8006618:	f47f ad91 	bne.w	800613e <main+0xc22>
 800661c:	462b      	mov	r3, r5
 800661e:	eb0b 0583 	add.w	r5, fp, r3, lsl #2
 8006622:	f248 0680 	movw	r6, #32896	; 0x8080
 8006626:	f8c5 65cc 	str.w	r6, [r5, #1484]	; 0x5cc
 800662a:	469c      	mov	ip, r3
 800662c:	e5be      	b.n	80061ac <main+0xc90>
 800662e:	230c      	movs	r3, #12
 8006630:	f88b 3000 	strb.w	r3, [fp]
 8006634:	e429      	b.n	8005e8a <main+0x96e>
 8006636:	f44f 6110 	mov.w	r1, #2304	; 0x900
 800663a:	2300      	movs	r3, #0
 800663c:	f8ab 1010 	strh.w	r1, [fp, #16]
 8006640:	f8ab 2012 	strh.w	r2, [fp, #18]
 8006644:	f8cb 3014 	str.w	r3, [fp, #20]
 8006648:	2300      	movs	r3, #0
 800664a:	2101      	movs	r1, #1
 800664c:	2202      	movs	r2, #2
 800664e:	f8cb 3008 	str.w	r3, [fp, #8]
 8006652:	f8ab 300c 	strh.w	r3, [fp, #12]
 8006656:	f88b 1018 	strb.w	r1, [fp, #24]
 800665a:	f88b 2002 	strb.w	r2, [fp, #2]
 800665e:	e414      	b.n	8005e8a <main+0x96e>
 8006660:	2300      	movs	r3, #0
 8006662:	f8cb 35c4 	str.w	r3, [fp, #1476]	; 0x5c4
 8006666:	230c      	movs	r3, #12
 8006668:	f88b 3000 	strb.w	r3, [fp]
 800666c:	e40d      	b.n	8005e8a <main+0x96e>
 800666e:	2203      	movs	r2, #3
 8006670:	9204      	str	r2, [sp, #16]
 8006672:	e7c5      	b.n	8006600 <main+0x10e4>
 8006674:	9304      	str	r3, [sp, #16]
 8006676:	461a      	mov	r2, r3
 8006678:	e7c2      	b.n	8006600 <main+0x10e4>
 800667a:	2201      	movs	r2, #1
 800667c:	9204      	str	r2, [sp, #16]
 800667e:	e7bf      	b.n	8006600 <main+0x10e4>
 8006680:	68c3      	ldr	r3, [r0, #12]
 8006682:	f043 0340 	orr.w	r3, r3, #64	; 0x40
 8006686:	60c3      	str	r3, [r0, #12]
 8006688:	f7fc fd14 	bl	80030b4 <USB_CoreReset.isra.0>
 800668c:	f44f 3380 	mov.w	r3, #65536	; 0x10000
 8006690:	6383      	str	r3, [r0, #56]	; 0x38
 8006692:	f7ff bb45 	b.w	8005d20 <main+0x804>
 8006696:	2301      	movs	r3, #1
 8006698:	e7c1      	b.n	800661e <main+0x1102>
 800669a:	2303      	movs	r3, #3
 800669c:	e7bf      	b.n	800661e <main+0x1102>
 800669e:	4618      	mov	r0, r3
 80066a0:	f7ff b85f 	b.w	8005762 <main+0x246>
 80066a4:	2204      	movs	r2, #4
 80066a6:	9204      	str	r2, [sp, #16]
 80066a8:	e7aa      	b.n	8006600 <main+0x10e4>
 80066aa:	2304      	movs	r3, #4
 80066ac:	e7b7      	b.n	800661e <main+0x1102>
 80066ae:	2306      	movs	r3, #6
 80066b0:	e7b5      	b.n	800661e <main+0x1102>
 80066b2:	2305      	movs	r3, #5
 80066b4:	e7b3      	b.n	800661e <main+0x1102>
 80066b6:	f88b 3018 	strb.w	r3, [fp, #24]
 80066ba:	4b0c      	ldr	r3, [pc, #48]	; (80066ec <main+0x11d0>)
 80066bc:	f8cb 3008 	str.w	r3, [fp, #8]
 80066c0:	f44f 63d0 	mov.w	r3, #1664	; 0x680
 80066c4:	f8ab 3010 	strh.w	r3, [fp, #16]
 80066c8:	f44f 7300 	mov.w	r3, #512	; 0x200
 80066cc:	f8cb 3012 	str.w	r3, [fp, #18]
 80066d0:	2302      	movs	r3, #2
 80066d2:	f8ab 5016 	strh.w	r5, [fp, #22]
 80066d6:	f8ab 500c 	strh.w	r5, [fp, #12]
 80066da:	f88b 3002 	strb.w	r3, [fp, #2]
 80066de:	f7ff bbd4 	b.w	8005e8a <main+0x96e>
 80066e2:	2208      	movs	r2, #8
 80066e4:	9204      	str	r2, [sp, #16]
 80066e6:	e78b      	b.n	8006600 <main+0x10e4>
 80066e8:	200018c4 	.word	0x200018c4
 80066ec:	200018e0 	.word	0x200018e0
 80066f0:	2207      	movs	r2, #7
 80066f2:	9204      	str	r2, [sp, #16]
 80066f4:	e784      	b.n	8006600 <main+0x10e4>
 80066f6:	2206      	movs	r2, #6
 80066f8:	9204      	str	r2, [sp, #16]
 80066fa:	e781      	b.n	8006600 <main+0x10e4>
 80066fc:	9004      	str	r0, [sp, #16]
 80066fe:	4602      	mov	r2, r0
 8006700:	e77e      	b.n	8006600 <main+0x10e4>
 8006702:	49a0      	ldr	r1, [pc, #640]	; (8006984 <main+0x1468>)
 8006704:	f7fe fe7e 	bl	8005404 <USBH_Get_StringDesc.constprop.0>
 8006708:	2800      	cmp	r0, #0
 800670a:	f43f ae1c 	beq.w	8006346 <main+0xe2a>
 800670e:	f7ff bbbc 	b.w	8005e8a <main+0x96e>
 8006712:	499c      	ldr	r1, [pc, #624]	; (8006984 <main+0x1468>)
 8006714:	f7fe fe76 	bl	8005404 <USBH_Get_StringDesc.constprop.0>
 8006718:	2800      	cmp	r0, #0
 800671a:	f47f abb6 	bne.w	8005e8a <main+0x96e>
 800671e:	e62c      	b.n	800637a <main+0xe5e>
 8006720:	f8df e280 	ldr.w	lr, [pc, #640]	; 80069a4 <main+0x1488>
 8006724:	2300      	movs	r3, #0
 8006726:	e9cb e304 	strd	lr, r3, [fp, #16]
 800672a:	e78d      	b.n	8006648 <main+0x112c>
 800672c:	2308      	movs	r3, #8
 800672e:	e776      	b.n	800661e <main+0x1102>
 8006730:	2307      	movs	r3, #7
 8006732:	e774      	b.n	800661e <main+0x1102>
 8006734:	4993      	ldr	r1, [pc, #588]	; (8006984 <main+0x1468>)
 8006736:	f7fe fe65 	bl	8005404 <USBH_Get_StringDesc.constprop.0>
 800673a:	2800      	cmp	r0, #0
 800673c:	f47f aba5 	bne.w	8005e8a <main+0x96e>
 8006740:	e612      	b.n	8006368 <main+0xe4c>
 8006742:	f88b 3018 	strb.w	r3, [fp, #24]
 8006746:	4b8f      	ldr	r3, [pc, #572]	; (8006984 <main+0x1468>)
 8006748:	f8cb 3008 	str.w	r3, [fp, #8]
 800674c:	4b8e      	ldr	r3, [pc, #568]	; (8006988 <main+0x146c>)
 800674e:	f8cb 3010 	str.w	r3, [fp, #16]
 8006752:	2309      	movs	r3, #9
 8006754:	f8ab 300c 	strh.w	r3, [fp, #12]
 8006758:	f44f 2310 	mov.w	r3, #589824	; 0x90000
 800675c:	f8cb 3014 	str.w	r3, [fp, #20]
 8006760:	2302      	movs	r3, #2
 8006762:	f88b 3002 	strb.w	r3, [fp, #2]
 8006766:	f7ff bb90 	b.w	8005e8a <main+0x96e>
 800676a:	2309      	movs	r3, #9
 800676c:	e757      	b.n	800661e <main+0x1102>
 800676e:	220a      	movs	r2, #10
 8006770:	9204      	str	r2, [sp, #16]
 8006772:	e745      	b.n	8006600 <main+0x10e4>
 8006774:	2209      	movs	r2, #9
 8006776:	9204      	str	r2, [sp, #16]
 8006778:	e742      	b.n	8006600 <main+0x10e4>
 800677a:	f8df 822c 	ldr.w	r8, [pc, #556]	; 80069a8 <main+0x148c>
 800677e:	4883      	ldr	r0, [pc, #524]	; (800698c <main+0x1470>)
 8006780:	f8d8 3040 	ldr.w	r3, [r8, #64]	; 0x40
 8006784:	f443 4300 	orr.w	r3, r3, #32768	; 0x8000
 8006788:	f8c8 3040 	str.w	r3, [r8, #64]	; 0x40
 800678c:	f8d8 3030 	ldr.w	r3, [r8, #48]	; 0x30
 8006790:	f043 0304 	orr.w	r3, r3, #4
 8006794:	f8c8 3030 	str.w	r3, [r8, #48]	; 0x30
 8006798:	f8d8 3030 	ldr.w	r3, [r8, #48]	; 0x30
 800679c:	f043 0301 	orr.w	r3, r3, #1
 80067a0:	f8c8 3030 	str.w	r3, [r8, #48]	; 0x30
 80067a4:	2302      	movs	r3, #2
 80067a6:	9312      	str	r3, [sp, #72]	; 0x48
 80067a8:	9314      	str	r3, [sp, #80]	; 0x50
 80067aa:	f44f 53a0 	mov.w	r3, #5120	; 0x1400
 80067ae:	a911      	add	r1, sp, #68	; 0x44
 80067b0:	9311      	str	r3, [sp, #68]	; 0x44
 80067b2:	2306      	movs	r3, #6
 80067b4:	9315      	str	r3, [sp, #84]	; 0x54
 80067b6:	9613      	str	r6, [sp, #76]	; 0x4c
 80067b8:	f7fb fef4 	bl	80025a4 <HAL_GPIO_Init>
 80067bc:	2310      	movs	r3, #16
 80067be:	f5a0 6000 	sub.w	r0, r0, #2048	; 0x800
 80067c2:	9311      	str	r3, [sp, #68]	; 0x44
 80067c4:	f7fb feee 	bl	80025a4 <HAL_GPIO_Init>
 80067c8:	f8d8 3030 	ldr.w	r3, [r8, #48]	; 0x30
 80067cc:	f043 0304 	orr.w	r3, r3, #4
 80067d0:	f8c8 3030 	str.w	r3, [r8, #48]	; 0x30
 80067d4:	f500 6000 	add.w	r0, r0, #2048	; 0x800
 80067d8:	2380      	movs	r3, #128	; 0x80
 80067da:	9311      	str	r3, [sp, #68]	; 0x44
 80067dc:	f7fb fee2 	bl	80025a4 <HAL_GPIO_Init>
 80067e0:	f8d8 3030 	ldr.w	r3, [r8, #48]	; 0x30
 80067e4:	496a      	ldr	r1, [pc, #424]	; (8006990 <main+0x1474>)
 80067e6:	f443 1300 	orr.w	r3, r3, #2097152	; 0x200000
 80067ea:	f8c8 3030 	str.w	r3, [r8, #48]	; 0x30
 80067ee:	4b69      	ldr	r3, [pc, #420]	; (8006994 <main+0x1478>)
 80067f0:	6363      	str	r3, [r4, #52]	; 0x34
 80067f2:	6019      	str	r1, [r3, #0]
 80067f4:	2140      	movs	r1, #64	; 0x40
 80067f6:	6099      	str	r1, [r3, #8]
 80067f8:	f44f 6980 	mov.w	r9, #1024	; 0x400
 80067fc:	f44f 6100 	mov.w	r1, #2048	; 0x800
 8006800:	e9c3 9104 	strd	r9, r1, [r3, #16]
 8006804:	f893 2035 	ldrb.w	r2, [r3, #53]	; 0x35
 8006808:	605e      	str	r6, [r3, #4]
 800680a:	f44f 7180 	mov.w	r1, #256	; 0x100
 800680e:	f44f 5b00 	mov.w	fp, #8192	; 0x2000
 8006812:	e9c3 b106 	strd	fp, r1, [r3, #24]
 8006816:	f44f 3000 	mov.w	r0, #131072	; 0x20000
 800681a:	2104      	movs	r1, #4
 800681c:	e9c3 0108 	strd	r0, r1, [r3, #32]
 8006820:	2a02      	cmp	r2, #2
 8006822:	f04f 0103 	mov.w	r1, #3
 8006826:	e9c3 660b 	strd	r6, r6, [r3, #44]	; 0x2c
 800682a:	60de      	str	r6, [r3, #12]
 800682c:	639c      	str	r4, [r3, #56]	; 0x38
 800682e:	6299      	str	r1, [r3, #40]	; 0x28
 8006830:	d027      	beq.n	8006882 <main+0x1366>
 8006832:	4a59      	ldr	r2, [pc, #356]	; (8006998 <main+0x147c>)
 8006834:	f883 6034 	strb.w	r6, [r3, #52]	; 0x34
 8006838:	f8d2 10b8 	ldr.w	r1, [r2, #184]	; 0xb8
 800683c:	f021 0101 	bic.w	r1, r1, #1
 8006840:	f8c2 10b8 	str.w	r1, [r2, #184]	; 0xb8
 8006844:	2021      	movs	r0, #33	; 0x21
 8006846:	f04f 7180 	mov.w	r1, #16777216	; 0x1000000
 800684a:	f8c2 60b8 	str.w	r6, [r2, #184]	; 0xb8
 800684e:	f8c2 60bc 	str.w	r6, [r2, #188]	; 0xbc
 8006852:	f8c2 60c0 	str.w	r6, [r2, #192]	; 0xc0
 8006856:	f8c2 60c4 	str.w	r6, [r2, #196]	; 0xc4
 800685a:	f8c2 60c8 	str.w	r6, [r2, #200]	; 0xc8
 800685e:	f8c2 00cc 	str.w	r0, [r2, #204]	; 0xcc
 8006862:	60d1      	str	r1, [r2, #12]
 8006864:	f04f 6100 	mov.w	r1, #134217728	; 0x8000000
 8006868:	60d1      	str	r1, [r2, #12]
 800686a:	f04f 7100 	mov.w	r1, #33554432	; 0x2000000
 800686e:	60d1      	str	r1, [r2, #12]
 8006870:	f44f 0180 	mov.w	r1, #4194304	; 0x400000
 8006874:	60d1      	str	r1, [r2, #12]
 8006876:	f04f 6180 	mov.w	r1, #67108864	; 0x4000000
 800687a:	60d1      	str	r1, [r2, #12]
 800687c:	64de      	str	r6, [r3, #76]	; 0x4c
 800687e:	f883 6035 	strb.w	r6, [r3, #53]	; 0x35
 8006882:	4945      	ldr	r1, [pc, #276]	; (8006998 <main+0x147c>)
 8006884:	2202      	movs	r2, #2
 8006886:	f883 2035 	strb.w	r2, [r3, #53]	; 0x35
 800688a:	f8d1 00b8 	ldr.w	r0, [r1, #184]	; 0xb8
 800688e:	4a43      	ldr	r2, [pc, #268]	; (800699c <main+0x1480>)
 8006890:	4002      	ands	r2, r0
 8006892:	f442 320b 	orr.w	r2, r2, #142336	; 0x22c00
 8006896:	f442 72a0 	orr.w	r2, r2, #320	; 0x140
 800689a:	f8c1 20b8 	str.w	r2, [r1, #184]	; 0xb8
 800689e:	f8d1 20cc 	ldr.w	r2, [r1, #204]	; 0xcc
 80068a2:	f042 0207 	orr.w	r2, r2, #7
 80068a6:	f8c1 20cc 	str.w	r2, [r1, #204]	; 0xcc
 80068aa:	2200      	movs	r2, #0
 80068ac:	64da      	str	r2, [r3, #76]	; 0x4c
 80068ae:	2106      	movs	r1, #6
 80068b0:	2201      	movs	r2, #1
 80068b2:	202f      	movs	r0, #47	; 0x2f
 80068b4:	f883 2035 	strb.w	r2, [r3, #53]	; 0x35
 80068b8:	f7fc f9fa 	bl	8002cb0 <HAL_NVIC_SetPriority.constprop.0>
 80068bc:	4b38      	ldr	r3, [pc, #224]	; (80069a0 <main+0x1484>)
 80068be:	f44f 4200 	mov.w	r2, #32768	; 0x8000
 80068c2:	605a      	str	r2, [r3, #4]
 80068c4:	f7ff b849 	b.w	800595a <main+0x43e>
 80068c8:	7818      	ldrb	r0, [r3, #0]
 80068ca:	f881 023c 	strb.w	r0, [r1, #572]	; 0x23c
 80068ce:	7858      	ldrb	r0, [r3, #1]
 80068d0:	f881 023d 	strb.w	r0, [r1, #573]	; 0x23d
 80068d4:	7898      	ldrb	r0, [r3, #2]
 80068d6:	f881 023e 	strb.w	r0, [r1, #574]	; 0x23e
 80068da:	78d8      	ldrb	r0, [r3, #3]
 80068dc:	f881 023f 	strb.w	r0, [r1, #575]	; 0x23f
 80068e0:	f893 c004 	ldrb.w	ip, [r3, #4]
 80068e4:	f881 c240 	strb.w	ip, [r1, #576]	; 0x240
 80068e8:	7958      	ldrb	r0, [r3, #5]
 80068ea:	f881 0241 	strb.w	r0, [r1, #577]	; 0x241
 80068ee:	7998      	ldrb	r0, [r3, #6]
 80068f0:	f881 0242 	strb.w	r0, [r1, #578]	; 0x242
 80068f4:	79d8      	ldrb	r0, [r3, #7]
 80068f6:	f881 0243 	strb.w	r0, [r1, #579]	; 0x243
 80068fa:	7a18      	ldrb	r0, [r3, #8]
 80068fc:	f881 0244 	strb.w	r0, [r1, #580]	; 0x244
 8006900:	205a      	movs	r0, #90	; 0x5a
 8006902:	fb00 f00e 	mul.w	r0, r0, lr
 8006906:	2500      	movs	r5, #0
 8006908:	9004      	str	r0, [sp, #16]
 800690a:	4565      	cmp	r5, ip
 800690c:	da25      	bge.n	800695a <main+0x143e>
 800690e:	4294      	cmp	r4, r2
 8006910:	d923      	bls.n	800695a <main+0x143e>
 8006912:	7818      	ldrb	r0, [r3, #0]
 8006914:	4403      	add	r3, r0
 8006916:	4410      	add	r0, r2
 8006918:	b282      	uxth	r2, r0
 800691a:	7858      	ldrb	r0, [r3, #1]
 800691c:	2805      	cmp	r0, #5
 800691e:	d1f4      	bne.n	800690a <main+0x13ee>
 8006920:	9804      	ldr	r0, [sp, #16]
 8006922:	781e      	ldrb	r6, [r3, #0]
 8006924:	3501      	adds	r5, #1
 8006926:	eb00 00c5 	add.w	r0, r0, r5, lsl #3
 800692a:	4458      	add	r0, fp
 800692c:	b26d      	sxtb	r5, r5
 800692e:	f880 623e 	strb.w	r6, [r0, #574]	; 0x23e
 8006932:	785e      	ldrb	r6, [r3, #1]
 8006934:	f880 623f 	strb.w	r6, [r0, #575]	; 0x23f
 8006938:	789e      	ldrb	r6, [r3, #2]
 800693a:	f880 6240 	strb.w	r6, [r0, #576]	; 0x240
 800693e:	78de      	ldrb	r6, [r3, #3]
 8006940:	f880 6241 	strb.w	r6, [r0, #577]	; 0x241
 8006944:	f893 8005 	ldrb.w	r8, [r3, #5]
 8006948:	791e      	ldrb	r6, [r3, #4]
 800694a:	eb06 2608 	add.w	r6, r6, r8, lsl #8
 800694e:	f8a0 6242 	strh.w	r6, [r0, #578]	; 0x242
 8006952:	799e      	ldrb	r6, [r3, #6]
 8006954:	f880 6244 	strb.w	r6, [r0, #580]	; 0x244
 8006958:	e7d7      	b.n	800690a <main+0x13ee>
 800695a:	f10e 0e01 	add.w	lr, lr, #1
 800695e:	f1be 0f0a 	cmp.w	lr, #10
 8006962:	f101 015a 	add.w	r1, r1, #90	; 0x5a
 8006966:	f47f ad6f 	bne.w	8006448 <main+0xf2c>
 800696a:	e56f      	b.n	800644c <main+0xf30>
 800696c:	f44f 637a 	mov.w	r3, #4000	; 0xfa0
 8006970:	8523      	strh	r3, [r4, #40]	; 0x28
 8006972:	8563      	strh	r3, [r4, #42]	; 0x2a
 8006974:	f7ff b876 	b.w	8005a64 <main+0x548>
 8006978:	2301      	movs	r3, #1
 800697a:	f884 303d 	strb.w	r3, [r4, #61]	; 0x3d
 800697e:	f7ff b851 	b.w	8005a24 <main+0x508>
 8006982:	bf00      	nop
 8006984:	200018e0 	.word	0x200018e0
 8006988:	02000680 	.word	0x02000680
 800698c:	40020800 	.word	0x40020800
 8006990:	400260b8 	.word	0x400260b8
 8006994:	20001edc 	.word	0x20001edc
 8006998:	40026000 	.word	0x40026000
 800699c:	f014803f 	.word	0xf014803f
 80069a0:	e000e100 	.word	0xe000e100
 80069a4:	00010500 	.word	0x00010500
 80069a8:	40023800 	.word	0x40023800

080069ac <MemManage_Handler>:
MemManage_Handler():
 80069ac:	e7fe      	b.n	80069ac <MemManage_Handler>
 80069ae:	bf00      	nop

080069b0 <BusFault_Handler>:
BusFault_Handler():
 80069b0:	e7fe      	b.n	80069b0 <BusFault_Handler>
 80069b2:	bf00      	nop

080069b4 <UsageFault_Handler>:
UsageFault_Handler():
 80069b4:	e7fe      	b.n	80069b4 <UsageFault_Handler>
 80069b6:	bf00      	nop

080069b8 <SVC_Handler>:
SVC_Handler():
 80069b8:	4770      	bx	lr
 80069ba:	bf00      	nop

080069bc <DebugMon_Handler>:
DebugMon_Handler():
 80069bc:	4770      	bx	lr
 80069be:	bf00      	nop

080069c0 <PendSV_Handler>:
PendSV_Handler():
 80069c0:	4770      	bx	lr
 80069c2:	bf00      	nop

080069c4 <SysTick_Handler>:
SysTick_Handler():
 80069c4:	4915      	ldr	r1, [pc, #84]	; (8006a1c <SysTick_Handler+0x58>)
 80069c6:	4816      	ldr	r0, [pc, #88]	; (8006a20 <SysTick_Handler+0x5c>)
 80069c8:	680b      	ldr	r3, [r1, #0]
 80069ca:	6802      	ldr	r2, [r0, #0]
 80069cc:	3301      	adds	r3, #1
 80069ce:	600b      	str	r3, [r1, #0]
 80069d0:	b10a      	cbz	r2, 80069d6 <SysTick_Handler+0x12>
 80069d2:	3a01      	subs	r2, #1
 80069d4:	6002      	str	r2, [r0, #0]
 80069d6:	4a13      	ldr	r2, [pc, #76]	; (8006a24 <SysTick_Handler+0x60>)
 80069d8:	6813      	ldr	r3, [r2, #0]
 80069da:	b10b      	cbz	r3, 80069e0 <SysTick_Handler+0x1c>
 80069dc:	3b01      	subs	r3, #1
 80069de:	6013      	str	r3, [r2, #0]
 80069e0:	4a11      	ldr	r2, [pc, #68]	; (8006a28 <SysTick_Handler+0x64>)
 80069e2:	68d3      	ldr	r3, [r2, #12]
 80069e4:	3b01      	subs	r3, #1
 80069e6:	60d3      	str	r3, [r2, #12]
 80069e8:	b193      	cbz	r3, 8006a10 <SysTick_Handler+0x4c>
 80069ea:	4b10      	ldr	r3, [pc, #64]	; (8006a2c <SysTick_Handler+0x68>)
 80069ec:	4810      	ldr	r0, [pc, #64]	; (8006a30 <SysTick_Handler+0x6c>)
 80069ee:	691a      	ldr	r2, [r3, #16]
 80069f0:	7803      	ldrb	r3, [r0, #0]
 80069f2:	4910      	ldr	r1, [pc, #64]	; (8006a34 <SysTick_Handler+0x70>)
 80069f4:	f002 0201 	and.w	r2, r2, #1
 80069f8:	4293      	cmp	r3, r2
 80069fa:	d005      	beq.n	8006a08 <SysTick_Handler+0x44>
 80069fc:	780b      	ldrb	r3, [r1, #0]
 80069fe:	3b01      	subs	r3, #1
 8006a00:	b2db      	uxtb	r3, r3
 8006a02:	700b      	strb	r3, [r1, #0]
 8006a04:	b91b      	cbnz	r3, 8006a0e <SysTick_Handler+0x4a>
 8006a06:	7002      	strb	r2, [r0, #0]
 8006a08:	2305      	movs	r3, #5
 8006a0a:	700b      	strb	r3, [r1, #0]
 8006a0c:	4770      	bx	lr
 8006a0e:	4770      	bx	lr
 8006a10:	4b09      	ldr	r3, [pc, #36]	; (8006a38 <SysTick_Handler+0x74>)
 8006a12:	f44f 4200 	mov.w	r2, #32768	; 0x8000
 8006a16:	835a      	strh	r2, [r3, #26]
 8006a18:	e7e7      	b.n	80069ea <SysTick_Handler+0x26>
 8006a1a:	bf00      	nop
 8006a1c:	20002f54 	.word	0x20002f54
 8006a20:	20000644 	.word	0x20000644
 8006a24:	20000648 	.word	0x20000648
 8006a28:	200005e8 	.word	0x200005e8
 8006a2c:	40020000 	.word	0x40020000
 8006a30:	200005ad 	.word	0x200005ad
 8006a34:	20000000 	.word	0x20000000
 8006a38:	40020c00 	.word	0x40020c00

08006a3c <EXTI0_IRQHandler>:
EXTI0_IRQHandler():
 8006a3c:	4b03      	ldr	r3, [pc, #12]	; (8006a4c <EXTI0_IRQHandler+0x10>)
 8006a3e:	695a      	ldr	r2, [r3, #20]
 8006a40:	07d2      	lsls	r2, r2, #31
 8006a42:	bf44      	itt	mi
 8006a44:	2201      	movmi	r2, #1
 8006a46:	615a      	strmi	r2, [r3, #20]
 8006a48:	4770      	bx	lr
 8006a4a:	bf00      	nop
 8006a4c:	40013c00 	.word	0x40013c00

08006a50 <EXTI1_IRQHandler>:
EXTI1_IRQHandler():
 8006a50:	4b03      	ldr	r3, [pc, #12]	; (8006a60 <EXTI1_IRQHandler+0x10>)
 8006a52:	695a      	ldr	r2, [r3, #20]
 8006a54:	0792      	lsls	r2, r2, #30
 8006a56:	bf44      	itt	mi
 8006a58:	2202      	movmi	r2, #2
 8006a5a:	615a      	strmi	r2, [r3, #20]
 8006a5c:	4770      	bx	lr
 8006a5e:	bf00      	nop
 8006a60:	40013c00 	.word	0x40013c00

08006a64 <DMA1_Stream7_IRQHandler>:
DMA1_Stream7_IRQHandler():
 8006a64:	4b01      	ldr	r3, [pc, #4]	; (8006a6c <DMA1_Stream7_IRQHandler+0x8>)
 8006a66:	6b58      	ldr	r0, [r3, #52]	; 0x34
 8006a68:	f7f9 befa 	b.w	8000860 <HAL_DMA_IRQHandler>
 8006a6c:	200015f4 	.word	0x200015f4

08006a70 <DMA1_Stream3_IRQHandler>:
DMA1_Stream3_IRQHandler():
 8006a70:	2000      	movs	r0, #0
 8006a72:	f7f9 bef5 	b.w	8000860 <HAL_DMA_IRQHandler>
 8006a76:	bf00      	nop

08006a78 <TIM4_IRQHandler>:
TIM4_IRQHandler():
 8006a78:	4770      	bx	lr
 8006a7a:	bf00      	nop

08006a7c <OTG_FS_IRQHandler>:
OTG_FS_IRQHandler():
 8006a7c:	e92d 4f70 	stmdb	sp!, {r4, r5, r6, r8, r9, sl, fp, lr}
 8006a80:	4d96      	ldr	r5, [pc, #600]	; (8006cdc <OTG_FS_IRQHandler+0x260>)
 8006a82:	682c      	ldr	r4, [r5, #0]
 8006a84:	6963      	ldr	r3, [r4, #20]
 8006a86:	07d8      	lsls	r0, r3, #31
 8006a88:	b086      	sub	sp, #24
 8006a8a:	d402      	bmi.n	8006a92 <OTG_FS_IRQHandler+0x16>
 8006a8c:	b006      	add	sp, #24
 8006a8e:	e8bd 8f70 	ldmia.w	sp!, {r4, r5, r6, r8, r9, sl, fp, pc}
 8006a92:	6962      	ldr	r2, [r4, #20]
 8006a94:	69a3      	ldr	r3, [r4, #24]
 8006a96:	421a      	tst	r2, r3
 8006a98:	d0f8      	beq.n	8006a8c <OTG_FS_IRQHandler+0x10>
 8006a9a:	6963      	ldr	r3, [r4, #20]
 8006a9c:	69a2      	ldr	r2, [r4, #24]
 8006a9e:	4013      	ands	r3, r2
 8006aa0:	0299      	lsls	r1, r3, #10
 8006aa2:	bf44      	itt	mi
 8006aa4:	f44f 1300 	movmi.w	r3, #2097152	; 0x200000
 8006aa8:	6163      	strmi	r3, [r4, #20]
 8006aaa:	6963      	ldr	r3, [r4, #20]
 8006aac:	69a2      	ldr	r2, [r4, #24]
 8006aae:	4013      	ands	r3, r2
 8006ab0:	02da      	lsls	r2, r3, #11
 8006ab2:	bf44      	itt	mi
 8006ab4:	f44f 1380 	movmi.w	r3, #1048576	; 0x100000
 8006ab8:	6163      	strmi	r3, [r4, #20]
 8006aba:	6963      	ldr	r3, [r4, #20]
 8006abc:	69a2      	ldr	r2, [r4, #24]
 8006abe:	4013      	ands	r3, r2
 8006ac0:	015b      	lsls	r3, r3, #5
 8006ac2:	bf44      	itt	mi
 8006ac4:	f04f 6380 	movmi.w	r3, #67108864	; 0x4000000
 8006ac8:	6163      	strmi	r3, [r4, #20]
 8006aca:	6963      	ldr	r3, [r4, #20]
 8006acc:	69a2      	ldr	r2, [r4, #24]
 8006ace:	4013      	ands	r3, r2
 8006ad0:	079e      	lsls	r6, r3, #30
 8006ad2:	bf44      	itt	mi
 8006ad4:	2302      	movmi	r3, #2
 8006ad6:	6163      	strmi	r3, [r4, #20]
 8006ad8:	6963      	ldr	r3, [r4, #20]
 8006ada:	69a2      	ldr	r2, [r4, #24]
 8006adc:	4013      	ands	r3, r2
 8006ade:	0098      	lsls	r0, r3, #2
 8006ae0:	f100 80fe 	bmi.w	8006ce0 <OTG_FS_IRQHandler+0x264>
 8006ae4:	4626      	mov	r6, r4
 8006ae6:	6973      	ldr	r3, [r6, #20]
 8006ae8:	69b2      	ldr	r2, [r6, #24]
 8006aea:	4013      	ands	r3, r2
 8006aec:	01da      	lsls	r2, r3, #7
 8006aee:	f100 80cd 	bmi.w	8006c8c <OTG_FS_IRQHandler+0x210>
 8006af2:	6973      	ldr	r3, [r6, #20]
 8006af4:	69b2      	ldr	r2, [r6, #24]
 8006af6:	4013      	ands	r3, r2
 8006af8:	0718      	lsls	r0, r3, #28
 8006afa:	f100 815d 	bmi.w	8006db8 <OTG_FS_IRQHandler+0x33c>
 8006afe:	6973      	ldr	r3, [r6, #20]
 8006b00:	69b2      	ldr	r2, [r6, #24]
 8006b02:	4013      	ands	r3, r2
 8006b04:	0199      	lsls	r1, r3, #6
 8006b06:	d413      	bmi.n	8006b30 <OTG_FS_IRQHandler+0xb4>
 8006b08:	6973      	ldr	r3, [r6, #20]
 8006b0a:	69b2      	ldr	r2, [r6, #24]
 8006b0c:	4013      	ands	r3, r2
 8006b0e:	06db      	lsls	r3, r3, #27
 8006b10:	d5bc      	bpl.n	8006a8c <OTG_FS_IRQHandler+0x10>
 8006b12:	69b3      	ldr	r3, [r6, #24]
 8006b14:	f023 0310 	bic.w	r3, r3, #16
 8006b18:	61b3      	str	r3, [r6, #24]
 8006b1a:	6a33      	ldr	r3, [r6, #32]
 8006b1c:	f3c3 4243 	ubfx	r2, r3, #17, #4
 8006b20:	2a02      	cmp	r2, #2
 8006b22:	f000 8285 	beq.w	8007030 <OTG_FS_IRQHandler+0x5b4>
 8006b26:	69b3      	ldr	r3, [r6, #24]
 8006b28:	f043 0310 	orr.w	r3, r3, #16
 8006b2c:	61b3      	str	r3, [r6, #24]
 8006b2e:	e7ad      	b.n	8006a8c <OTG_FS_IRQHandler+0x10>
 8006b30:	4630      	mov	r0, r6
 8006b32:	f7f9 fcaf 	bl	8000494 <USB_HC_ReadInterrupt>
 8006b36:	68ab      	ldr	r3, [r5, #8]
 8006b38:	682e      	ldr	r6, [r5, #0]
 8006b3a:	4683      	mov	fp, r0
 8006b3c:	2b00      	cmp	r3, #0
 8006b3e:	f000 80a1 	beq.w	8006c84 <OTG_FS_IRQHandler+0x208>
 8006b42:	f504 64a0 	add.w	r4, r4, #1280	; 0x500
 8006b46:	f04f 0800 	mov.w	r8, #0
 8006b4a:	f04f 0a01 	mov.w	sl, #1
 8006b4e:	4630      	mov	r0, r6
 8006b50:	e052      	b.n	8006bf8 <OTG_FS_IRQHandler+0x17c>
 8006b52:	f500 66a0 	add.w	r6, r0, #1280	; 0x500
 8006b56:	eb06 1941 	add.w	r9, r6, r1, lsl #5
 8006b5a:	014a      	lsls	r2, r1, #5
 8006b5c:	f8d9 3008 	ldr.w	r3, [r9, #8]
 8006b60:	075b      	lsls	r3, r3, #29
 8006b62:	d565      	bpl.n	8006c30 <OTG_FS_IRQHandler+0x1b4>
 8006b64:	2304      	movs	r3, #4
 8006b66:	f8c9 3008 	str.w	r3, [r9, #8]
 8006b6a:	f8d9 300c 	ldr.w	r3, [r9, #12]
 8006b6e:	f043 0302 	orr.w	r3, r3, #2
 8006b72:	f8c9 300c 	str.w	r3, [r9, #12]
 8006b76:	f8d9 3008 	ldr.w	r3, [r9, #8]
 8006b7a:	059b      	lsls	r3, r3, #22
 8006b7c:	f100 8152 	bmi.w	8006e24 <OTG_FS_IRQHandler+0x3a8>
 8006b80:	f8d9 3008 	ldr.w	r3, [r9, #8]
 8006b84:	07db      	lsls	r3, r3, #31
 8006b86:	f140 8125 	bpl.w	8006dd4 <OTG_FS_IRQHandler+0x358>
 8006b8a:	692b      	ldr	r3, [r5, #16]
 8006b8c:	b16b      	cbz	r3, 8006baa <OTG_FS_IRQHandler+0x12e>
 8006b8e:	eb01 0c81 	add.w	ip, r1, r1, lsl #2
 8006b92:	f8d9 3010 	ldr.w	r3, [r9, #16]
 8006b96:	eb05 0ccc 	add.w	ip, r5, ip, lsl #3
 8006b9a:	f3c3 0e12 	ubfx	lr, r3, #0, #19
 8006b9e:	f8dc 3040 	ldr.w	r3, [ip, #64]	; 0x40
 8006ba2:	eba3 030e 	sub.w	r3, r3, lr
 8006ba6:	f8cc 3044 	str.w	r3, [ip, #68]	; 0x44
 8006baa:	008b      	lsls	r3, r1, #2
 8006bac:	eb03 0c01 	add.w	ip, r3, r1
 8006bb0:	eb05 0ccc 	add.w	ip, r5, ip, lsl #3
 8006bb4:	f04f 0e00 	mov.w	lr, #0
 8006bb8:	f8cc e050 	str.w	lr, [ip, #80]	; 0x50
 8006bbc:	f88c a055 	strb.w	sl, [ip, #85]	; 0x55
 8006bc0:	f8c9 a008 	str.w	sl, [r9, #8]
 8006bc4:	f89c e037 	ldrb.w	lr, [ip, #55]	; 0x37
 8006bc8:	f01e 0ffd 	tst.w	lr, #253	; 0xfd
 8006bcc:	f000 8216 	beq.w	8006ffc <OTG_FS_IRQHandler+0x580>
 8006bd0:	f1be 0f03 	cmp.w	lr, #3
 8006bd4:	f000 836b 	beq.w	80072ae <OTG_FS_IRQHandler+0x832>
 8006bd8:	4419      	add	r1, r3
 8006bda:	eb05 01c1 	add.w	r1, r5, r1, lsl #3
 8006bde:	68ab      	ldr	r3, [r5, #8]
 8006be0:	f891 2048 	ldrb.w	r2, [r1, #72]	; 0x48
 8006be4:	f082 0201 	eor.w	r2, r2, #1
 8006be8:	f881 2048 	strb.w	r2, [r1, #72]	; 0x48
 8006bec:	f108 0801 	add.w	r8, r8, #1
 8006bf0:	4598      	cmp	r8, r3
 8006bf2:	f104 0420 	add.w	r4, r4, #32
 8006bf6:	d244      	bcs.n	8006c82 <OTG_FS_IRQHandler+0x206>
 8006bf8:	fa0a f208 	lsl.w	r2, sl, r8
 8006bfc:	ea12 0f0b 	tst.w	r2, fp
 8006c00:	d0f4      	beq.n	8006bec <OTG_FS_IRQHandler+0x170>
 8006c02:	6822      	ldr	r2, [r4, #0]
 8006c04:	0412      	lsls	r2, r2, #16
 8006c06:	fa5f f188 	uxtb.w	r1, r8
 8006c0a:	d4a2      	bmi.n	8006b52 <OTG_FS_IRQHandler+0xd6>
 8006c0c:	f500 62a0 	add.w	r2, r0, #1280	; 0x500
 8006c10:	eb02 1641 	add.w	r6, r2, r1, lsl #5
 8006c14:	ea4f 1e41 	mov.w	lr, r1, lsl #5
 8006c18:	f8d6 c008 	ldr.w	ip, [r6, #8]
 8006c1c:	f01c 0f04 	tst.w	ip, #4
 8006c20:	d00f      	beq.n	8006c42 <OTG_FS_IRQHandler+0x1c6>
 8006c22:	2204      	movs	r2, #4
 8006c24:	60b2      	str	r2, [r6, #8]
 8006c26:	68f2      	ldr	r2, [r6, #12]
 8006c28:	f042 0202 	orr.w	r2, r2, #2
 8006c2c:	60f2      	str	r2, [r6, #12]
 8006c2e:	e7dd      	b.n	8006bec <OTG_FS_IRQHandler+0x170>
 8006c30:	f8d9 3008 	ldr.w	r3, [r9, #8]
 8006c34:	069b      	lsls	r3, r3, #26
 8006c36:	f140 818d 	bpl.w	8006f54 <OTG_FS_IRQHandler+0x4d8>
 8006c3a:	2320      	movs	r3, #32
 8006c3c:	f8c9 3008 	str.w	r3, [r9, #8]
 8006c40:	e799      	b.n	8006b76 <OTG_FS_IRQHandler+0xfa>
 8006c42:	f8d6 c008 	ldr.w	ip, [r6, #8]
 8006c46:	f01c 0c20 	ands.w	ip, ip, #32
 8006c4a:	f000 80fa 	beq.w	8006e42 <OTG_FS_IRQHandler+0x3c6>
 8006c4e:	eb01 0981 	add.w	r9, r1, r1, lsl #2
 8006c52:	2220      	movs	r2, #32
 8006c54:	eb05 09c9 	add.w	r9, r5, r9, lsl #3
 8006c58:	60b2      	str	r2, [r6, #8]
 8006c5a:	f899 2035 	ldrb.w	r2, [r9, #53]	; 0x35
 8006c5e:	2a01      	cmp	r2, #1
 8006c60:	d1c4      	bne.n	8006bec <OTG_FS_IRQHandler+0x170>
 8006c62:	2304      	movs	r3, #4
 8006c64:	f889 3055 	strb.w	r3, [r9, #85]	; 0x55
 8006c68:	68f3      	ldr	r3, [r6, #12]
 8006c6a:	f043 0302 	orr.w	r3, r3, #2
 8006c6e:	60f3      	str	r3, [r6, #12]
 8006c70:	f7f9 fc20 	bl	80004b4 <USB_HC_Halt>
 8006c74:	f04f 0302 	mov.w	r3, #2
 8006c78:	f889 3054 	strb.w	r3, [r9, #84]	; 0x54
 8006c7c:	6828      	ldr	r0, [r5, #0]
 8006c7e:	68ab      	ldr	r3, [r5, #8]
 8006c80:	e7b4      	b.n	8006bec <OTG_FS_IRQHandler+0x170>
 8006c82:	4606      	mov	r6, r0
 8006c84:	f04f 7300 	mov.w	r3, #33554432	; 0x2000000
 8006c88:	6173      	str	r3, [r6, #20]
 8006c8a:	e73d      	b.n	8006b08 <OTG_FS_IRQHandler+0x8c>
 8006c8c:	f8d6 3440 	ldr.w	r3, [r6, #1088]	; 0x440
 8006c90:	9304      	str	r3, [sp, #16]
 8006c92:	f8d6 3440 	ldr.w	r3, [r6, #1088]	; 0x440
 8006c96:	9305      	str	r3, [sp, #20]
 8006c98:	9b05      	ldr	r3, [sp, #20]
 8006c9a:	f023 032e 	bic.w	r3, r3, #46	; 0x2e
 8006c9e:	9305      	str	r3, [sp, #20]
 8006ca0:	9b04      	ldr	r3, [sp, #16]
 8006ca2:	079b      	lsls	r3, r3, #30
 8006ca4:	f506 6888 	add.w	r8, r6, #1088	; 0x440
 8006ca8:	d507      	bpl.n	8006cba <OTG_FS_IRQHandler+0x23e>
 8006caa:	9b04      	ldr	r3, [sp, #16]
 8006cac:	07d8      	lsls	r0, r3, #31
 8006cae:	f100 823e 	bmi.w	800712e <OTG_FS_IRQHandler+0x6b2>
 8006cb2:	9b05      	ldr	r3, [sp, #20]
 8006cb4:	f043 0302 	orr.w	r3, r3, #2
 8006cb8:	9305      	str	r3, [sp, #20]
 8006cba:	9b04      	ldr	r3, [sp, #16]
 8006cbc:	0719      	lsls	r1, r3, #28
 8006cbe:	f100 816f 	bmi.w	8006fa0 <OTG_FS_IRQHandler+0x524>
 8006cc2:	682e      	ldr	r6, [r5, #0]
 8006cc4:	9b04      	ldr	r3, [sp, #16]
 8006cc6:	069b      	lsls	r3, r3, #26
 8006cc8:	d503      	bpl.n	8006cd2 <OTG_FS_IRQHandler+0x256>
 8006cca:	9b05      	ldr	r3, [sp, #20]
 8006ccc:	f043 0320 	orr.w	r3, r3, #32
 8006cd0:	9305      	str	r3, [sp, #20]
 8006cd2:	9b05      	ldr	r3, [sp, #20]
 8006cd4:	f8c8 3000 	str.w	r3, [r8]
 8006cd8:	e70b      	b.n	8006af2 <OTG_FS_IRQHandler+0x76>
 8006cda:	bf00      	nop
 8006cdc:	20001634 	.word	0x20001634
 8006ce0:	f8d4 3440 	ldr.w	r3, [r4, #1088]	; 0x440
 8006ce4:	f8d5 628c 	ldr.w	r6, [r5, #652]	; 0x28c
 8006ce8:	f023 032e 	bic.w	r3, r3, #46	; 0x2e
 8006cec:	f8d6 8610 	ldr.w	r8, [r6, #1552]	; 0x610
 8006cf0:	f8c4 3440 	str.w	r3, [r4, #1088]	; 0x440
 8006cf4:	f898 3288 	ldrb.w	r3, [r8, #648]	; 0x288
 8006cf8:	2b01      	cmp	r3, #1
 8006cfa:	d009      	beq.n	8006d10 <OTG_FS_IRQHandler+0x294>
 8006cfc:	2301      	movs	r3, #1
 8006cfe:	f888 3288 	strb.w	r3, [r8, #648]	; 0x288
 8006d02:	f8d8 0000 	ldr.w	r0, [r8]
 8006d06:	f7f9 fd0f 	bl	8000728 <USB_StopHost>
 8006d0a:	2300      	movs	r3, #0
 8006d0c:	f888 3288 	strb.w	r3, [r8, #648]	; 0x288
 8006d10:	7933      	ldrb	r3, [r6, #4]
 8006d12:	2b0a      	cmp	r3, #10
 8006d14:	d807      	bhi.n	8006d26 <OTG_FS_IRQHandler+0x2aa>
 8006d16:	eb06 0383 	add.w	r3, r6, r3, lsl #2
 8006d1a:	f8d3 25cc 	ldr.w	r2, [r3, #1484]	; 0x5cc
 8006d1e:	f3c2 020e 	ubfx	r2, r2, #0, #15
 8006d22:	f8c3 25cc 	str.w	r2, [r3, #1484]	; 0x5cc
 8006d26:	7973      	ldrb	r3, [r6, #5]
 8006d28:	2b0a      	cmp	r3, #10
 8006d2a:	d807      	bhi.n	8006d3c <OTG_FS_IRQHandler+0x2c0>
 8006d2c:	eb06 0383 	add.w	r3, r6, r3, lsl #2
 8006d30:	f8d3 25cc 	ldr.w	r2, [r3, #1484]	; 0x5cc
 8006d34:	f3c2 020e 	ubfx	r2, r2, #0, #15
 8006d38:	f8c3 25cc 	str.w	r2, [r3, #1484]	; 0x5cc
 8006d3c:	f8d6 3614 	ldr.w	r3, [r6, #1556]	; 0x614
 8006d40:	2200      	movs	r2, #0
 8006d42:	f886 221e 	strb.w	r2, [r6, #542]	; 0x21e
 8006d46:	b113      	cbz	r3, 8006d4e <OTG_FS_IRQHandler+0x2d2>
 8006d48:	2105      	movs	r1, #5
 8006d4a:	4630      	mov	r0, r6
 8006d4c:	4798      	blx	r3
 8006d4e:	f8d6 3610 	ldr.w	r3, [r6, #1552]	; 0x610
 8006d52:	f893 2288 	ldrb.w	r2, [r3, #648]	; 0x288
 8006d56:	2a01      	cmp	r2, #1
 8006d58:	d017      	beq.n	8006d8a <OTG_FS_IRQHandler+0x30e>
 8006d5a:	681a      	ldr	r2, [r3, #0]
 8006d5c:	6891      	ldr	r1, [r2, #8]
 8006d5e:	f041 0101 	orr.w	r1, r1, #1
 8006d62:	6091      	str	r1, [r2, #8]
 8006d64:	f8d2 1440 	ldr.w	r1, [r2, #1088]	; 0x440
 8006d68:	9103      	str	r1, [sp, #12]
 8006d6a:	9903      	ldr	r1, [sp, #12]
 8006d6c:	f021 012e 	bic.w	r1, r1, #46	; 0x2e
 8006d70:	9103      	str	r1, [sp, #12]
 8006d72:	9903      	ldr	r1, [sp, #12]
 8006d74:	04c9      	lsls	r1, r1, #19
 8006d76:	d404      	bmi.n	8006d82 <OTG_FS_IRQHandler+0x306>
 8006d78:	9903      	ldr	r1, [sp, #12]
 8006d7a:	f441 5180 	orr.w	r1, r1, #4096	; 0x1000
 8006d7e:	f8c2 1440 	str.w	r1, [r2, #1088]	; 0x440
 8006d82:	2200      	movs	r2, #0
 8006d84:	9903      	ldr	r1, [sp, #12]
 8006d86:	f883 2288 	strb.w	r2, [r3, #648]	; 0x288
 8006d8a:	2303      	movs	r3, #3
 8006d8c:	7033      	strb	r3, [r6, #0]
 8006d8e:	682e      	ldr	r6, [r5, #0]
 8006d90:	f8d6 3400 	ldr.w	r3, [r6, #1024]	; 0x400
 8006d94:	f023 0303 	bic.w	r3, r3, #3
 8006d98:	f8c6 3400 	str.w	r3, [r6, #1024]	; 0x400
 8006d9c:	f8d6 3400 	ldr.w	r3, [r6, #1024]	; 0x400
 8006da0:	f043 0301 	orr.w	r3, r3, #1
 8006da4:	f8c6 3400 	str.w	r3, [r6, #1024]	; 0x400
 8006da8:	f64b 3180 	movw	r1, #48000	; 0xbb80
 8006dac:	f04f 5300 	mov.w	r3, #536870912	; 0x20000000
 8006db0:	f8c6 1404 	str.w	r1, [r6, #1028]	; 0x404
 8006db4:	6173      	str	r3, [r6, #20]
 8006db6:	e696      	b.n	8006ae6 <OTG_FS_IRQHandler+0x6a>
 8006db8:	f8d5 028c 	ldr.w	r0, [r5, #652]	; 0x28c
 8006dbc:	f8d0 3608 	ldr.w	r3, [r0, #1544]	; 0x608
 8006dc0:	3301      	adds	r3, #1
 8006dc2:	f8c0 3608 	str.w	r3, [r0, #1544]	; 0x608
 8006dc6:	7803      	ldrb	r3, [r0, #0]
 8006dc8:	2b0a      	cmp	r3, #10
 8006dca:	f000 8128 	beq.w	800701e <OTG_FS_IRQHandler+0x5a2>
 8006dce:	2308      	movs	r3, #8
 8006dd0:	6173      	str	r3, [r6, #20]
 8006dd2:	e694      	b.n	8006afe <OTG_FS_IRQHandler+0x82>
 8006dd4:	f8d9 3008 	ldr.w	r3, [r9, #8]
 8006dd8:	079b      	lsls	r3, r3, #30
 8006dda:	f140 816e 	bpl.w	80070ba <OTG_FS_IRQHandler+0x63e>
 8006dde:	f8d9 300c 	ldr.w	r3, [r9, #12]
 8006de2:	eb01 0c81 	add.w	ip, r1, r1, lsl #2
 8006de6:	f023 0302 	bic.w	r3, r3, #2
 8006dea:	eb05 0ccc 	add.w	ip, r5, ip, lsl #3
 8006dee:	f8c9 300c 	str.w	r3, [r9, #12]
 8006df2:	f89c e055 	ldrb.w	lr, [ip, #85]	; 0x55
 8006df6:	f1be 0f01 	cmp.w	lr, #1
 8006dfa:	ea4f 0381 	mov.w	r3, r1, lsl #2
 8006dfe:	f000 8193 	beq.w	8007128 <OTG_FS_IRQHandler+0x6ac>
 8006e02:	f1be 0f05 	cmp.w	lr, #5
 8006e06:	f000 818f 	beq.w	8007128 <OTG_FS_IRQHandler+0x6ac>
 8006e0a:	f1be 0f06 	cmp.w	lr, #6
 8006e0e:	f000 821e 	beq.w	800724e <OTG_FS_IRQHandler+0x7d2>
 8006e12:	f1be 0f08 	cmp.w	lr, #8
 8006e16:	f000 821a 	beq.w	800724e <OTG_FS_IRQHandler+0x7d2>
 8006e1a:	2302      	movs	r3, #2
 8006e1c:	f8c9 3008 	str.w	r3, [r9, #8]
 8006e20:	68ab      	ldr	r3, [r5, #8]
 8006e22:	e6e3      	b.n	8006bec <OTG_FS_IRQHandler+0x170>
 8006e24:	f8d9 300c 	ldr.w	r3, [r9, #12]
 8006e28:	f043 0302 	orr.w	r3, r3, #2
 8006e2c:	f8c9 300c 	str.w	r3, [r9, #12]
 8006e30:	f7f9 fb40 	bl	80004b4 <USB_HC_Halt>
 8006e34:	f44f 7300 	mov.w	r3, #512	; 0x200
 8006e38:	f8c9 3008 	str.w	r3, [r9, #8]
 8006e3c:	68ab      	ldr	r3, [r5, #8]
 8006e3e:	6828      	ldr	r0, [r5, #0]
 8006e40:	e6d4      	b.n	8006bec <OTG_FS_IRQHandler+0x170>
 8006e42:	f8d6 9008 	ldr.w	r9, [r6, #8]
 8006e46:	f019 0f40 	tst.w	r9, #64	; 0x40
 8006e4a:	f040 81a3 	bne.w	8007194 <OTG_FS_IRQHandler+0x718>
 8006e4e:	f8d6 c008 	ldr.w	ip, [r6, #8]
 8006e52:	f41c 7c00 	ands.w	ip, ip, #512	; 0x200
 8006e56:	f040 81b7 	bne.w	80071c8 <OTG_FS_IRQHandler+0x74c>
 8006e5a:	f8d6 9008 	ldr.w	r9, [r6, #8]
 8006e5e:	f019 0f01 	tst.w	r9, #1
 8006e62:	f040 8211 	bne.w	8007288 <OTG_FS_IRQHandler+0x80c>
 8006e66:	f8d6 c008 	ldr.w	ip, [r6, #8]
 8006e6a:	f01c 0c08 	ands.w	ip, ip, #8
 8006e6e:	f040 8227 	bne.w	80072c0 <OTG_FS_IRQHandler+0x844>
 8006e72:	f8d6 9008 	ldr.w	r9, [r6, #8]
 8006e76:	f019 0f10 	tst.w	r9, #16
 8006e7a:	f040 823c 	bne.w	80072f6 <OTG_FS_IRQHandler+0x87a>
 8006e7e:	f8d6 c008 	ldr.w	ip, [r6, #8]
 8006e82:	f01c 0f80 	tst.w	ip, #128	; 0x80
 8006e86:	f040 8260 	bne.w	800734a <OTG_FS_IRQHandler+0x8ce>
 8006e8a:	f8d6 c008 	ldr.w	ip, [r6, #8]
 8006e8e:	f41c 6f80 	tst.w	ip, #1024	; 0x400
 8006e92:	f040 826d 	bne.w	8007370 <OTG_FS_IRQHandler+0x8f4>
 8006e96:	f8d6 c008 	ldr.w	ip, [r6, #8]
 8006e9a:	f01c 0f02 	tst.w	ip, #2
 8006e9e:	f43f aea5 	beq.w	8006bec <OTG_FS_IRQHandler+0x170>
 8006ea2:	f8d6 c00c 	ldr.w	ip, [r6, #12]
 8006ea6:	f02c 0c02 	bic.w	ip, ip, #2
 8006eaa:	f8c6 c00c 	str.w	ip, [r6, #12]
 8006eae:	f04f 0c28 	mov.w	ip, #40	; 0x28
 8006eb2:	fb0c 5901 	mla	r9, ip, r1, r5
 8006eb6:	f899 c055 	ldrb.w	ip, [r9, #85]	; 0x55
 8006eba:	f1bc 0f01 	cmp.w	ip, #1
 8006ebe:	f000 826f 	beq.w	80073a0 <OTG_FS_IRQHandler+0x924>
 8006ec2:	f1ac 0c03 	sub.w	ip, ip, #3
 8006ec6:	f1bc 0f05 	cmp.w	ip, #5
 8006eca:	d826      	bhi.n	8006f1a <OTG_FS_IRQHandler+0x49e>
 8006ecc:	e8df f00c 	tbb	[pc, ip]
 8006ed0:	03303728 	.word	0x03303728
 8006ed4:	0325      	.short	0x0325
 8006ed6:	f04f 0c28 	mov.w	ip, #40	; 0x28
 8006eda:	fb0c 5901 	mla	r9, ip, r1, r5
 8006ede:	f8d9 c050 	ldr.w	ip, [r9, #80]	; 0x50
 8006ee2:	f1bc 0f03 	cmp.w	ip, #3
 8006ee6:	f200 8269 	bhi.w	80073bc <OTG_FS_IRQHandler+0x940>
 8006eea:	f10c 0c01 	add.w	ip, ip, #1
 8006eee:	f8c9 c050 	str.w	ip, [r9, #80]	; 0x50
 8006ef2:	f04f 0c02 	mov.w	ip, #2
 8006ef6:	f04f 0928 	mov.w	r9, #40	; 0x28
 8006efa:	fb09 5101 	mla	r1, r9, r1, r5
 8006efe:	f881 c054 	strb.w	ip, [r1, #84]	; 0x54
 8006f02:	f852 100e 	ldr.w	r1, [r2, lr]
 8006f06:	f021 4180 	bic.w	r1, r1, #1073741824	; 0x40000000
 8006f0a:	f842 100e 	str.w	r1, [r2, lr]
 8006f0e:	f852 100e 	ldr.w	r1, [r2, lr]
 8006f12:	f041 4100 	orr.w	r1, r1, #2147483648	; 0x80000000
 8006f16:	f842 100e 	str.w	r1, [r2, lr]
 8006f1a:	2202      	movs	r2, #2
 8006f1c:	60b2      	str	r2, [r6, #8]
 8006f1e:	e665      	b.n	8006bec <OTG_FS_IRQHandler+0x170>
 8006f20:	2228      	movs	r2, #40	; 0x28
 8006f22:	fb02 5101 	mla	r1, r2, r1, r5
 8006f26:	f04f 0202 	mov.w	r2, #2
 8006f2a:	f881 2054 	strb.w	r2, [r1, #84]	; 0x54
 8006f2e:	e7f4      	b.n	8006f1a <OTG_FS_IRQHandler+0x49e>
 8006f30:	2228      	movs	r2, #40	; 0x28
 8006f32:	fb02 5101 	mla	r1, r2, r1, r5
 8006f36:	2205      	movs	r2, #5
 8006f38:	f881 2054 	strb.w	r2, [r1, #84]	; 0x54
 8006f3c:	e7ed      	b.n	8006f1a <OTG_FS_IRQHandler+0x49e>
 8006f3e:	2228      	movs	r2, #40	; 0x28
 8006f40:	fb02 5101 	mla	r1, r2, r1, r5
 8006f44:	f04f 0202 	mov.w	r2, #2
 8006f48:	f881 2054 	strb.w	r2, [r1, #84]	; 0x54
 8006f4c:	2200      	movs	r2, #0
 8006f4e:	f881 2035 	strb.w	r2, [r1, #53]	; 0x35
 8006f52:	e7e2      	b.n	8006f1a <OTG_FS_IRQHandler+0x49e>
 8006f54:	f8d9 3008 	ldr.w	r3, [r9, #8]
 8006f58:	071b      	lsls	r3, r3, #28
 8006f5a:	f100 80ff 	bmi.w	800715c <OTG_FS_IRQHandler+0x6e0>
 8006f5e:	f8d9 3008 	ldr.w	r3, [r9, #8]
 8006f62:	055b      	lsls	r3, r3, #21
 8006f64:	f57f ae07 	bpl.w	8006b76 <OTG_FS_IRQHandler+0xfa>
 8006f68:	f8d9 300c 	ldr.w	r3, [r9, #12]
 8006f6c:	9201      	str	r2, [sp, #4]
 8006f6e:	f043 0302 	orr.w	r3, r3, #2
 8006f72:	f8c9 300c 	str.w	r3, [r9, #12]
 8006f76:	9100      	str	r1, [sp, #0]
 8006f78:	f7f9 fa9c 	bl	80004b4 <USB_HC_Halt>
 8006f7c:	9900      	ldr	r1, [sp, #0]
 8006f7e:	9a01      	ldr	r2, [sp, #4]
 8006f80:	eb01 0381 	add.w	r3, r1, r1, lsl #2
 8006f84:	eb05 03c3 	add.w	r3, r5, r3, lsl #3
 8006f88:	2010      	movs	r0, #16
 8006f8a:	f8c9 0008 	str.w	r0, [r9, #8]
 8006f8e:	2008      	movs	r0, #8
 8006f90:	f883 0055 	strb.w	r0, [r3, #85]	; 0x55
 8006f94:	f44f 6380 	mov.w	r3, #1024	; 0x400
 8006f98:	6828      	ldr	r0, [r5, #0]
 8006f9a:	f8c9 3008 	str.w	r3, [r9, #8]
 8006f9e:	e5ea      	b.n	8006b76 <OTG_FS_IRQHandler+0xfa>
 8006fa0:	9b05      	ldr	r3, [sp, #20]
 8006fa2:	f043 0308 	orr.w	r3, r3, #8
 8006fa6:	9305      	str	r3, [sp, #20]
 8006fa8:	9b04      	ldr	r3, [sp, #16]
 8006faa:	075a      	lsls	r2, r3, #29
 8006fac:	f140 80b4 	bpl.w	8007118 <OTG_FS_IRQHandler+0x69c>
 8006fb0:	69ab      	ldr	r3, [r5, #24]
 8006fb2:	2b02      	cmp	r3, #2
 8006fb4:	f000 812c 	beq.w	8007210 <OTG_FS_IRQHandler+0x794>
 8006fb8:	68eb      	ldr	r3, [r5, #12]
 8006fba:	2b03      	cmp	r3, #3
 8006fbc:	bf04      	itt	eq
 8006fbe:	f64e 2360 	movweq	r3, #60000	; 0xea60
 8006fc2:	f8c6 3404 	streq.w	r3, [r6, #1028]	; 0x404
 8006fc6:	f8d5 028c 	ldr.w	r0, [r5, #652]	; 0x28c
 8006fca:	7803      	ldrb	r3, [r0, #0]
 8006fcc:	f003 02ff 	and.w	r2, r3, #255	; 0xff
 8006fd0:	2b00      	cmp	r3, #0
 8006fd2:	f040 80f3 	bne.w	80071bc <OTG_FS_IRQHandler+0x740>
 8006fd6:	2301      	movs	r3, #1
 8006fd8:	f880 321e 	strb.w	r3, [r0, #542]	; 0x21e
 8006fdc:	f8d0 3614 	ldr.w	r3, [r0, #1556]	; 0x614
 8006fe0:	7002      	strb	r2, [r0, #0]
 8006fe2:	b10b      	cbz	r3, 8006fe8 <OTG_FS_IRQHandler+0x56c>
 8006fe4:	2104      	movs	r1, #4
 8006fe6:	4798      	blx	r3
 8006fe8:	68eb      	ldr	r3, [r5, #12]
 8006fea:	682e      	ldr	r6, [r5, #0]
 8006fec:	2b00      	cmp	r3, #0
 8006fee:	f47f ae69 	bne.w	8006cc4 <OTG_FS_IRQHandler+0x248>
 8006ff2:	69b3      	ldr	r3, [r6, #24]
 8006ff4:	f043 5300 	orr.w	r3, r3, #536870912	; 0x20000000
 8006ff8:	61b3      	str	r3, [r6, #24]
 8006ffa:	e663      	b.n	8006cc4 <OTG_FS_IRQHandler+0x248>
 8006ffc:	f8d9 200c 	ldr.w	r2, [r9, #12]
 8007000:	9301      	str	r3, [sp, #4]
 8007002:	f042 0202 	orr.w	r2, r2, #2
 8007006:	f8c9 200c 	str.w	r2, [r9, #12]
 800700a:	9100      	str	r1, [sp, #0]
 800700c:	f7f9 fa52 	bl	80004b4 <USB_HC_Halt>
 8007010:	2210      	movs	r2, #16
 8007012:	e9dd 1300 	ldrd	r1, r3, [sp]
 8007016:	6828      	ldr	r0, [r5, #0]
 8007018:	f8c9 2008 	str.w	r2, [r9, #8]
 800701c:	e5dc      	b.n	8006bd8 <OTG_FS_IRQHandler+0x15c>
 800701e:	f8d0 35c4 	ldr.w	r3, [r0, #1476]	; 0x5c4
 8007022:	2b00      	cmp	r3, #0
 8007024:	f43f aed3 	beq.w	8006dce <OTG_FS_IRQHandler+0x352>
 8007028:	699b      	ldr	r3, [r3, #24]
 800702a:	4798      	blx	r3
 800702c:	682e      	ldr	r6, [r5, #0]
 800702e:	e6ce      	b.n	8006dce <OTG_FS_IRQHandler+0x352>
 8007030:	f3c3 1c0a 	ubfx	ip, r3, #4, #11
 8007034:	f1bc 0f00 	cmp.w	ip, #0
 8007038:	f43f ad75 	beq.w	8006b26 <OTG_FS_IRQHandler+0xaa>
 800703c:	f003 030f 	and.w	r3, r3, #15
 8007040:	eb03 0283 	add.w	r2, r3, r3, lsl #2
 8007044:	eb05 02c2 	add.w	r2, r5, r2, lsl #3
 8007048:	ea4f 0983 	mov.w	r9, r3, lsl #2
 800704c:	f8d2 803c 	ldr.w	r8, [r2, #60]	; 0x3c
 8007050:	f1b8 0f00 	cmp.w	r8, #0
 8007054:	f43f ad67 	beq.w	8006b26 <OTG_FS_IRQHandler+0xaa>
 8007058:	f10c 0403 	add.w	r4, ip, #3
 800705c:	10a4      	asrs	r4, r4, #2
 800705e:	f506 5e80 	add.w	lr, r6, #4096	; 0x1000
 8007062:	4641      	mov	r1, r8
 8007064:	2200      	movs	r2, #0
 8007066:	3201      	adds	r2, #1
 8007068:	f8de 0000 	ldr.w	r0, [lr]
 800706c:	f841 0b04 	str.w	r0, [r1], #4
 8007070:	4294      	cmp	r4, r2
 8007072:	d1f8      	bne.n	8007066 <OTG_FS_IRQHandler+0x5ea>
 8007074:	eb09 0203 	add.w	r2, r9, r3
 8007078:	f506 61a0 	add.w	r1, r6, #1280	; 0x500
 800707c:	eb05 02c2 	add.w	r2, r5, r2, lsl #3
 8007080:	eb01 1143 	add.w	r1, r1, r3, lsl #5
 8007084:	eb08 030c 	add.w	r3, r8, ip
 8007088:	690c      	ldr	r4, [r1, #16]
 800708a:	6c50      	ldr	r0, [r2, #68]	; 0x44
 800708c:	63d3      	str	r3, [r2, #60]	; 0x3c
 800708e:	4bc3      	ldr	r3, [pc, #780]	; (800739c <OTG_FS_IRQHandler+0x920>)
 8007090:	4460      	add	r0, ip
 8007092:	4023      	ands	r3, r4
 8007094:	6450      	str	r0, [r2, #68]	; 0x44
 8007096:	2b00      	cmp	r3, #0
 8007098:	f43f ad45 	beq.w	8006b26 <OTG_FS_IRQHandler+0xaa>
 800709c:	680b      	ldr	r3, [r1, #0]
 800709e:	f023 4380 	bic.w	r3, r3, #1073741824	; 0x40000000
 80070a2:	600b      	str	r3, [r1, #0]
 80070a4:	680b      	ldr	r3, [r1, #0]
 80070a6:	f043 4300 	orr.w	r3, r3, #2147483648	; 0x80000000
 80070aa:	600b      	str	r3, [r1, #0]
 80070ac:	f892 3048 	ldrb.w	r3, [r2, #72]	; 0x48
 80070b0:	f083 0301 	eor.w	r3, r3, #1
 80070b4:	f882 3048 	strb.w	r3, [r2, #72]	; 0x48
 80070b8:	e535      	b.n	8006b26 <OTG_FS_IRQHandler+0xaa>
 80070ba:	f8d9 3008 	ldr.w	r3, [r9, #8]
 80070be:	061b      	lsls	r3, r3, #24
 80070c0:	f100 808e 	bmi.w	80071e0 <OTG_FS_IRQHandler+0x764>
 80070c4:	f8d9 3008 	ldr.w	r3, [r9, #8]
 80070c8:	06db      	lsls	r3, r3, #27
 80070ca:	d523      	bpl.n	8007114 <OTG_FS_IRQHandler+0x698>
 80070cc:	eb01 0381 	add.w	r3, r1, r1, lsl #2
 80070d0:	eb05 03c3 	add.w	r3, r5, r3, lsl #3
 80070d4:	f893 c037 	ldrb.w	ip, [r3, #55]	; 0x37
 80070d8:	f1bc 0f03 	cmp.w	ip, #3
 80070dc:	ea4f 0381 	mov.w	r3, r1, lsl #2
 80070e0:	f000 8125 	beq.w	800732e <OTG_FS_IRQHandler+0x8b2>
 80070e4:	f01c 0ffd 	tst.w	ip, #253	; 0xfd
 80070e8:	d10b      	bne.n	8007102 <OTG_FS_IRQHandler+0x686>
 80070ea:	f856 c002 	ldr.w	ip, [r6, r2]
 80070ee:	f02c 4c80 	bic.w	ip, ip, #1073741824	; 0x40000000
 80070f2:	f846 c002 	str.w	ip, [r6, r2]
 80070f6:	f856 c002 	ldr.w	ip, [r6, r2]
 80070fa:	f04c 4c00 	orr.w	ip, ip, #2147483648	; 0x80000000
 80070fe:	f846 c002 	str.w	ip, [r6, r2]
 8007102:	440b      	add	r3, r1
 8007104:	eb05 03c3 	add.w	r3, r5, r3, lsl #3
 8007108:	2203      	movs	r2, #3
 800710a:	f883 2055 	strb.w	r2, [r3, #85]	; 0x55
 800710e:	2310      	movs	r3, #16
 8007110:	f8c9 3008 	str.w	r3, [r9, #8]
 8007114:	68ab      	ldr	r3, [r5, #8]
 8007116:	e569      	b.n	8006bec <OTG_FS_IRQHandler+0x170>
 8007118:	f8d8 3000 	ldr.w	r3, [r8]
 800711c:	682e      	ldr	r6, [r5, #0]
 800711e:	f023 032e 	bic.w	r3, r3, #46	; 0x2e
 8007122:	f8c8 3000 	str.w	r3, [r8]
 8007126:	e764      	b.n	8006ff2 <OTG_FS_IRQHandler+0x576>
 8007128:	f88c e054 	strb.w	lr, [ip, #84]	; 0x54
 800712c:	e675      	b.n	8006e1a <OTG_FS_IRQHandler+0x39e>
 800712e:	69b3      	ldr	r3, [r6, #24]
 8007130:	f8d5 028c 	ldr.w	r0, [r5, #652]	; 0x28c
 8007134:	f023 5300 	bic.w	r3, r3, #536870912	; 0x20000000
 8007138:	61b3      	str	r3, [r6, #24]
 800713a:	7803      	ldrb	r3, [r0, #0]
 800713c:	f003 02ff 	and.w	r2, r3, #255	; 0xff
 8007140:	2b00      	cmp	r3, #0
 8007142:	d17e      	bne.n	8007242 <OTG_FS_IRQHandler+0x7c6>
 8007144:	f8d0 3614 	ldr.w	r3, [r0, #1556]	; 0x614
 8007148:	2101      	movs	r1, #1
 800714a:	f880 121e 	strb.w	r1, [r0, #542]	; 0x21e
 800714e:	7002      	strb	r2, [r0, #0]
 8007150:	2b00      	cmp	r3, #0
 8007152:	f43f adae 	beq.w	8006cb2 <OTG_FS_IRQHandler+0x236>
 8007156:	2104      	movs	r1, #4
 8007158:	4798      	blx	r3
 800715a:	e5aa      	b.n	8006cb2 <OTG_FS_IRQHandler+0x236>
 800715c:	f8d9 300c 	ldr.w	r3, [r9, #12]
 8007160:	9201      	str	r2, [sp, #4]
 8007162:	f043 0302 	orr.w	r3, r3, #2
 8007166:	f8c9 300c 	str.w	r3, [r9, #12]
 800716a:	eb01 0381 	add.w	r3, r1, r1, lsl #2
 800716e:	eb05 03c3 	add.w	r3, r5, r3, lsl #3
 8007172:	f04f 0c05 	mov.w	ip, #5
 8007176:	f883 c055 	strb.w	ip, [r3, #85]	; 0x55
 800717a:	2310      	movs	r3, #16
 800717c:	f8c9 3008 	str.w	r3, [r9, #8]
 8007180:	2308      	movs	r3, #8
 8007182:	f8c9 3008 	str.w	r3, [r9, #8]
 8007186:	9100      	str	r1, [sp, #0]
 8007188:	f7f9 f994 	bl	80004b4 <USB_HC_Halt>
 800718c:	e9dd 1200 	ldrd	r1, r2, [sp]
 8007190:	6828      	ldr	r0, [r5, #0]
 8007192:	e4f0      	b.n	8006b76 <OTG_FS_IRQHandler+0xfa>
 8007194:	eb01 0381 	add.w	r3, r1, r1, lsl #2
 8007198:	eb05 03c3 	add.w	r3, r5, r3, lsl #3
 800719c:	2204      	movs	r2, #4
 800719e:	f883 2055 	strb.w	r2, [r3, #85]	; 0x55
 80071a2:	f8c3 c050 	str.w	ip, [r3, #80]	; 0x50
 80071a6:	68f3      	ldr	r3, [r6, #12]
 80071a8:	f043 0302 	orr.w	r3, r3, #2
 80071ac:	60f3      	str	r3, [r6, #12]
 80071ae:	f7f9 f981 	bl	80004b4 <USB_HC_Halt>
 80071b2:	2340      	movs	r3, #64	; 0x40
 80071b4:	60b3      	str	r3, [r6, #8]
 80071b6:	68ab      	ldr	r3, [r5, #8]
 80071b8:	6828      	ldr	r0, [r5, #0]
 80071ba:	e517      	b.n	8006bec <OTG_FS_IRQHandler+0x170>
 80071bc:	7803      	ldrb	r3, [r0, #0]
 80071be:	2b01      	cmp	r3, #1
 80071c0:	bf04      	itt	eq
 80071c2:	2302      	moveq	r3, #2
 80071c4:	7003      	strbeq	r3, [r0, #0]
 80071c6:	e70f      	b.n	8006fe8 <OTG_FS_IRQHandler+0x56c>
 80071c8:	68f3      	ldr	r3, [r6, #12]
 80071ca:	f043 0302 	orr.w	r3, r3, #2
 80071ce:	60f3      	str	r3, [r6, #12]
 80071d0:	f7f9 f970 	bl	80004b4 <USB_HC_Halt>
 80071d4:	f44f 7300 	mov.w	r3, #512	; 0x200
 80071d8:	60b3      	str	r3, [r6, #8]
 80071da:	68ab      	ldr	r3, [r5, #8]
 80071dc:	6828      	ldr	r0, [r5, #0]
 80071de:	e505      	b.n	8006bec <OTG_FS_IRQHandler+0x170>
 80071e0:	f8d9 300c 	ldr.w	r3, [r9, #12]
 80071e4:	eb01 0281 	add.w	r2, r1, r1, lsl #2
 80071e8:	eb05 02c2 	add.w	r2, r5, r2, lsl #3
 80071ec:	f043 0302 	orr.w	r3, r3, #2
 80071f0:	f8c9 300c 	str.w	r3, [r9, #12]
 80071f4:	6d13      	ldr	r3, [r2, #80]	; 0x50
 80071f6:	3301      	adds	r3, #1
 80071f8:	6513      	str	r3, [r2, #80]	; 0x50
 80071fa:	2306      	movs	r3, #6
 80071fc:	f882 3055 	strb.w	r3, [r2, #85]	; 0x55
 8007200:	f7f9 f958 	bl	80004b4 <USB_HC_Halt>
 8007204:	2380      	movs	r3, #128	; 0x80
 8007206:	f8c9 3008 	str.w	r3, [r9, #8]
 800720a:	68ab      	ldr	r3, [r5, #8]
 800720c:	6828      	ldr	r0, [r5, #0]
 800720e:	e4ed      	b.n	8006bec <OTG_FS_IRQHandler+0x170>
 8007210:	9b04      	ldr	r3, [sp, #16]
 8007212:	f403 23c0 	and.w	r3, r3, #393216	; 0x60000
 8007216:	f5b3 2f80 	cmp.w	r3, #262144	; 0x40000
 800721a:	682b      	ldr	r3, [r5, #0]
 800721c:	f8d3 2400 	ldr.w	r2, [r3, #1024]	; 0x400
 8007220:	f022 0203 	bic.w	r2, r2, #3
 8007224:	f8c3 2400 	str.w	r2, [r3, #1024]	; 0x400
 8007228:	f8d3 2400 	ldr.w	r2, [r3, #1024]	; 0x400
 800722c:	f503 6180 	add.w	r1, r3, #1024	; 0x400
 8007230:	d075      	beq.n	800731e <OTG_FS_IRQHandler+0x8a2>
 8007232:	f042 0201 	orr.w	r2, r2, #1
 8007236:	f8c3 2400 	str.w	r2, [r3, #1024]	; 0x400
 800723a:	f64b 3380 	movw	r3, #48000	; 0xbb80
 800723e:	604b      	str	r3, [r1, #4]
 8007240:	e6c1      	b.n	8006fc6 <OTG_FS_IRQHandler+0x54a>
 8007242:	7803      	ldrb	r3, [r0, #0]
 8007244:	2b01      	cmp	r3, #1
 8007246:	bf04      	itt	eq
 8007248:	2302      	moveq	r3, #2
 800724a:	7003      	strbeq	r3, [r0, #0]
 800724c:	e531      	b.n	8006cb2 <OTG_FS_IRQHandler+0x236>
 800724e:	eb03 0c01 	add.w	ip, r3, r1
 8007252:	eb05 0ccc 	add.w	ip, r5, ip, lsl #3
 8007256:	f8dc e050 	ldr.w	lr, [ip, #80]	; 0x50
 800725a:	f1be 0f03 	cmp.w	lr, #3
 800725e:	d843      	bhi.n	80072e8 <OTG_FS_IRQHandler+0x86c>
 8007260:	f10e 0e01 	add.w	lr, lr, #1
 8007264:	f8cc e050 	str.w	lr, [ip, #80]	; 0x50
 8007268:	f04f 0c02 	mov.w	ip, #2
 800726c:	440b      	add	r3, r1
 800726e:	eb05 03c3 	add.w	r3, r5, r3, lsl #3
 8007272:	f883 c054 	strb.w	ip, [r3, #84]	; 0x54
 8007276:	58b3      	ldr	r3, [r6, r2]
 8007278:	f023 4380 	bic.w	r3, r3, #1073741824	; 0x40000000
 800727c:	50b3      	str	r3, [r6, r2]
 800727e:	58b3      	ldr	r3, [r6, r2]
 8007280:	f043 4300 	orr.w	r3, r3, #2147483648	; 0x80000000
 8007284:	50b3      	str	r3, [r6, r2]
 8007286:	e5c8      	b.n	8006e1a <OTG_FS_IRQHandler+0x39e>
 8007288:	68f3      	ldr	r3, [r6, #12]
 800728a:	eb01 0981 	add.w	r9, r1, r1, lsl #2
 800728e:	eb05 09c9 	add.w	r9, r5, r9, lsl #3
 8007292:	f043 0302 	orr.w	r3, r3, #2
 8007296:	f8c9 c050 	str.w	ip, [r9, #80]	; 0x50
 800729a:	60f3      	str	r3, [r6, #12]
 800729c:	f7f9 f90a 	bl	80004b4 <USB_HC_Halt>
 80072a0:	f8c6 a008 	str.w	sl, [r6, #8]
 80072a4:	68ab      	ldr	r3, [r5, #8]
 80072a6:	6828      	ldr	r0, [r5, #0]
 80072a8:	f889 a055 	strb.w	sl, [r9, #85]	; 0x55
 80072ac:	e49e      	b.n	8006bec <OTG_FS_IRQHandler+0x170>
 80072ae:	f856 e002 	ldr.w	lr, [r6, r2]
 80072b2:	f04e 5e00 	orr.w	lr, lr, #536870912	; 0x20000000
 80072b6:	f846 e002 	str.w	lr, [r6, r2]
 80072ba:	f88c a054 	strb.w	sl, [ip, #84]	; 0x54
 80072be:	e48b      	b.n	8006bd8 <OTG_FS_IRQHandler+0x15c>
 80072c0:	2308      	movs	r3, #8
 80072c2:	60b3      	str	r3, [r6, #8]
 80072c4:	68f3      	ldr	r3, [r6, #12]
 80072c6:	9100      	str	r1, [sp, #0]
 80072c8:	f043 0302 	orr.w	r3, r3, #2
 80072cc:	60f3      	str	r3, [r6, #12]
 80072ce:	f7f9 f8f1 	bl	80004b4 <USB_HC_Halt>
 80072d2:	9900      	ldr	r1, [sp, #0]
 80072d4:	6828      	ldr	r0, [r5, #0]
 80072d6:	eb01 0181 	add.w	r1, r1, r1, lsl #2
 80072da:	eb05 03c1 	add.w	r3, r5, r1, lsl #3
 80072de:	2205      	movs	r2, #5
 80072e0:	f883 2055 	strb.w	r2, [r3, #85]	; 0x55
 80072e4:	68ab      	ldr	r3, [r5, #8]
 80072e6:	e481      	b.n	8006bec <OTG_FS_IRQHandler+0x170>
 80072e8:	f04f 0e00 	mov.w	lr, #0
 80072ec:	f8cc e050 	str.w	lr, [ip, #80]	; 0x50
 80072f0:	f04f 0c04 	mov.w	ip, #4
 80072f4:	e7ba      	b.n	800726c <OTG_FS_IRQHandler+0x7f0>
 80072f6:	68f3      	ldr	r3, [r6, #12]
 80072f8:	eb01 0981 	add.w	r9, r1, r1, lsl #2
 80072fc:	eb05 09c9 	add.w	r9, r5, r9, lsl #3
 8007300:	f043 0302 	orr.w	r3, r3, #2
 8007304:	f8c9 c050 	str.w	ip, [r9, #80]	; 0x50
 8007308:	60f3      	str	r3, [r6, #12]
 800730a:	f7f9 f8d3 	bl	80004b4 <USB_HC_Halt>
 800730e:	2303      	movs	r3, #3
 8007310:	f889 3055 	strb.w	r3, [r9, #85]	; 0x55
 8007314:	2310      	movs	r3, #16
 8007316:	60b3      	str	r3, [r6, #8]
 8007318:	68ab      	ldr	r3, [r5, #8]
 800731a:	6828      	ldr	r0, [r5, #0]
 800731c:	e466      	b.n	8006bec <OTG_FS_IRQHandler+0x170>
 800731e:	f042 0202 	orr.w	r2, r2, #2
 8007322:	f8c3 2400 	str.w	r2, [r3, #1024]	; 0x400
 8007326:	f241 7370 	movw	r3, #6000	; 0x1770
 800732a:	604b      	str	r3, [r1, #4]
 800732c:	e64b      	b.n	8006fc6 <OTG_FS_IRQHandler+0x54a>
 800732e:	f8d9 200c 	ldr.w	r2, [r9, #12]
 8007332:	9301      	str	r3, [sp, #4]
 8007334:	f042 0202 	orr.w	r2, r2, #2
 8007338:	f8c9 200c 	str.w	r2, [r9, #12]
 800733c:	9100      	str	r1, [sp, #0]
 800733e:	f7f9 f8b9 	bl	80004b4 <USB_HC_Halt>
 8007342:	e9dd 1300 	ldrd	r1, r3, [sp]
 8007346:	6828      	ldr	r0, [r5, #0]
 8007348:	e6db      	b.n	8007102 <OTG_FS_IRQHandler+0x686>
 800734a:	68f3      	ldr	r3, [r6, #12]
 800734c:	9100      	str	r1, [sp, #0]
 800734e:	f043 0302 	orr.w	r3, r3, #2
 8007352:	60f3      	str	r3, [r6, #12]
 8007354:	f7f9 f8ae 	bl	80004b4 <USB_HC_Halt>
 8007358:	9900      	ldr	r1, [sp, #0]
 800735a:	6828      	ldr	r0, [r5, #0]
 800735c:	2328      	movs	r3, #40	; 0x28
 800735e:	fb03 5101 	mla	r1, r3, r1, r5
 8007362:	2306      	movs	r3, #6
 8007364:	f881 3055 	strb.w	r3, [r1, #85]	; 0x55
 8007368:	2380      	movs	r3, #128	; 0x80
 800736a:	60b3      	str	r3, [r6, #8]
 800736c:	68ab      	ldr	r3, [r5, #8]
 800736e:	e43d      	b.n	8006bec <OTG_FS_IRQHandler+0x170>
 8007370:	68f3      	ldr	r3, [r6, #12]
 8007372:	9100      	str	r1, [sp, #0]
 8007374:	f043 0302 	orr.w	r3, r3, #2
 8007378:	60f3      	str	r3, [r6, #12]
 800737a:	f7f9 f89b 	bl	80004b4 <USB_HC_Halt>
 800737e:	9900      	ldr	r1, [sp, #0]
 8007380:	6828      	ldr	r0, [r5, #0]
 8007382:	2328      	movs	r3, #40	; 0x28
 8007384:	fb03 5101 	mla	r1, r3, r1, r5
 8007388:	2310      	movs	r3, #16
 800738a:	60b3      	str	r3, [r6, #8]
 800738c:	f44f 6380 	mov.w	r3, #1024	; 0x400
 8007390:	60b3      	str	r3, [r6, #8]
 8007392:	2308      	movs	r3, #8
 8007394:	f881 3055 	strb.w	r3, [r1, #85]	; 0x55
 8007398:	68ab      	ldr	r3, [r5, #8]
 800739a:	e427      	b.n	8006bec <OTG_FS_IRQHandler+0x170>
 800739c:	1ff80000 	.word	0x1ff80000
 80073a0:	f899 2037 	ldrb.w	r2, [r9, #55]	; 0x37
 80073a4:	f889 c054 	strb.w	ip, [r9, #84]	; 0x54
 80073a8:	2a02      	cmp	r2, #2
 80073aa:	f47f adb6 	bne.w	8006f1a <OTG_FS_IRQHandler+0x49e>
 80073ae:	f899 2049 	ldrb.w	r2, [r9, #73]	; 0x49
 80073b2:	f082 0201 	eor.w	r2, r2, #1
 80073b6:	f889 2049 	strb.w	r2, [r9, #73]	; 0x49
 80073ba:	e5ae      	b.n	8006f1a <OTG_FS_IRQHandler+0x49e>
 80073bc:	f04f 0c00 	mov.w	ip, #0
 80073c0:	f8c9 c050 	str.w	ip, [r9, #80]	; 0x50
 80073c4:	f04f 0c04 	mov.w	ip, #4
 80073c8:	e595      	b.n	8006ef6 <OTG_FS_IRQHandler+0x47a>
 80073ca:	bf00      	nop

080073cc <SystemInit>:
SystemInit():
 80073cc:	4910      	ldr	r1, [pc, #64]	; (8007410 <SystemInit+0x44>)
 80073ce:	4b11      	ldr	r3, [pc, #68]	; (8007414 <SystemInit+0x48>)
 80073d0:	f8d1 2088 	ldr.w	r2, [r1, #136]	; 0x88
 80073d4:	f442 0270 	orr.w	r2, r2, #15728640	; 0xf00000
 80073d8:	b430      	push	{r4, r5}
 80073da:	f8c1 2088 	str.w	r2, [r1, #136]	; 0x88
 80073de:	681a      	ldr	r2, [r3, #0]
 80073e0:	4d0d      	ldr	r5, [pc, #52]	; (8007418 <SystemInit+0x4c>)
 80073e2:	2000      	movs	r0, #0
 80073e4:	f042 0201 	orr.w	r2, r2, #1
 80073e8:	601a      	str	r2, [r3, #0]
 80073ea:	6098      	str	r0, [r3, #8]
 80073ec:	681a      	ldr	r2, [r3, #0]
 80073ee:	f022 7284 	bic.w	r2, r2, #17301504	; 0x1080000
 80073f2:	f422 3280 	bic.w	r2, r2, #65536	; 0x10000
 80073f6:	601a      	str	r2, [r3, #0]
 80073f8:	605d      	str	r5, [r3, #4]
 80073fa:	681a      	ldr	r2, [r3, #0]
 80073fc:	f04f 6400 	mov.w	r4, #134217728	; 0x8000000
 8007400:	f422 2280 	bic.w	r2, r2, #262144	; 0x40000
 8007404:	601a      	str	r2, [r3, #0]
 8007406:	60d8      	str	r0, [r3, #12]
 8007408:	608c      	str	r4, [r1, #8]
 800740a:	bc30      	pop	{r4, r5}
 800740c:	4770      	bx	lr
 800740e:	bf00      	nop
 8007410:	e000ed00 	.word	0xe000ed00
 8007414:	40023800 	.word	0x40023800
 8007418:	24003010 	.word	0x24003010

0800741c <Reset_Handler>:
Reset_Handler():
 800741c:	f8df d034 	ldr.w	sp, [pc, #52]	; 8007454 <LoopFillZerobss+0x14>
 8007420:	2100      	movs	r1, #0
 8007422:	e003      	b.n	800742c <LoopCopyDataInit>

08007424 <CopyDataInit>:
 8007424:	4b0c      	ldr	r3, [pc, #48]	; (8007458 <LoopFillZerobss+0x18>)
 8007426:	585b      	ldr	r3, [r3, r1]
 8007428:	5043      	str	r3, [r0, r1]
 800742a:	3104      	adds	r1, #4

0800742c <LoopCopyDataInit>:
 800742c:	480b      	ldr	r0, [pc, #44]	; (800745c <LoopFillZerobss+0x1c>)
 800742e:	4b0c      	ldr	r3, [pc, #48]	; (8007460 <LoopFillZerobss+0x20>)
 8007430:	1842      	adds	r2, r0, r1
 8007432:	429a      	cmp	r2, r3
 8007434:	d3f6      	bcc.n	8007424 <CopyDataInit>
 8007436:	4a0b      	ldr	r2, [pc, #44]	; (8007464 <LoopFillZerobss+0x24>)
 8007438:	e002      	b.n	8007440 <LoopFillZerobss>

0800743a <FillZerobss>:
 800743a:	2300      	movs	r3, #0
 800743c:	f842 3b04 	str.w	r3, [r2], #4

08007440 <LoopFillZerobss>:
 8007440:	4b09      	ldr	r3, [pc, #36]	; (8007468 <LoopFillZerobss+0x28>)
 8007442:	429a      	cmp	r2, r3
 8007444:	d3f9      	bcc.n	800743a <FillZerobss>
 8007446:	f7ff ffc1 	bl	80073cc <SystemInit>
 800744a:	f000 fe95 	bl	8008178 <__libc_init_array>
 800744e:	f7fe f865 	bl	800551c <main>
 8007452:	4770      	bx	lr
LoopFillZerobss():
 8007454:	2001ffff 	.word	0x2001ffff
 8007458:	08008fdc 	.word	0x08008fdc
 800745c:	20000000 	.word	0x20000000
 8007460:	20000590 	.word	0x20000590
 8007464:	20000590 	.word	0x20000590
 8007468:	20003268 	.word	0x20003268

0800746c <ADC_IRQHandler>:
RTC_Alarm_IRQHandler():
 800746c:	e7fe      	b.n	800746c <ADC_IRQHandler>
	...

08007470 <tanf>:
tanf():
/Volumes/data/jenkins/workspace/GNU-toolchain/arm-11/src/newlib-cygwin/newlib/libm/math/sf_tan.c:28
 8007470:	ee10 3a10 	vmov	r3, s0
/Volumes/data/jenkins/workspace/GNU-toolchain/arm-11/src/newlib-cygwin/newlib/libm/math/sf_tan.c:32
 8007474:	4a11      	ldr	r2, [pc, #68]	; (80074bc <tanf+0x4c>)
/Volumes/data/jenkins/workspace/GNU-toolchain/arm-11/src/newlib-cygwin/newlib/libm/math/sf_tan.c:31
 8007476:	f023 4300 	bic.w	r3, r3, #2147483648	; 0x80000000
/Volumes/data/jenkins/workspace/GNU-toolchain/arm-11/src/newlib-cygwin/newlib/libm/math/sf_tan.c:32
 800747a:	4293      	cmp	r3, r2
 800747c:	dd18      	ble.n	80074b0 <tanf+0x40>
/Volumes/data/jenkins/workspace/GNU-toolchain/arm-11/src/newlib-cygwin/newlib/libm/math/sf_tan.c:35
 800747e:	f1b3 4fff 	cmp.w	r3, #2139095040	; 0x7f800000
 8007482:	db02      	blt.n	800748a <tanf+0x1a>
/Volumes/data/jenkins/workspace/GNU-toolchain/arm-11/src/newlib-cygwin/newlib/libm/math/sf_tan.c:35 (discriminator 1)
 8007484:	ee30 0a40 	vsub.f32	s0, s0, s0
/Volumes/data/jenkins/workspace/GNU-toolchain/arm-11/src/newlib-cygwin/newlib/libm/math/sf_tan.c:43 (discriminator 1)
 8007488:	4770      	bx	lr
/Volumes/data/jenkins/workspace/GNU-toolchain/arm-11/src/newlib-cygwin/newlib/libm/math/sf_tan.c:24
 800748a:	b500      	push	{lr}
 800748c:	b083      	sub	sp, #12
/Volumes/data/jenkins/workspace/GNU-toolchain/arm-11/src/newlib-cygwin/newlib/libm/math/sf_tan.c:39
 800748e:	4668      	mov	r0, sp
 8007490:	f000 f8f8 	bl	8007684 <__ieee754_rem_pio2f>
/Volumes/data/jenkins/workspace/GNU-toolchain/arm-11/src/newlib-cygwin/newlib/libm/math/sf_tan.c:40
 8007494:	0040      	lsls	r0, r0, #1
 8007496:	f000 0002 	and.w	r0, r0, #2
 800749a:	eddd 0a01 	vldr	s1, [sp, #4]
 800749e:	ed9d 0a00 	vldr	s0, [sp]
 80074a2:	f1c0 0001 	rsb	r0, r0, #1
 80074a6:	f000 f80d 	bl	80074c4 <__kernel_tanf>
/Volumes/data/jenkins/workspace/GNU-toolchain/arm-11/src/newlib-cygwin/newlib/libm/math/sf_tan.c:43
 80074aa:	b003      	add	sp, #12
 80074ac:	f85d fb04 	ldr.w	pc, [sp], #4
/Volumes/data/jenkins/workspace/GNU-toolchain/arm-11/src/newlib-cygwin/newlib/libm/math/sf_tan.c:32 (discriminator 1)
 80074b0:	eddf 0a03 	vldr	s1, [pc, #12]	; 80074c0 <tanf+0x50>
 80074b4:	2001      	movs	r0, #1
 80074b6:	f000 b805 	b.w	80074c4 <__kernel_tanf>
 80074ba:	bf00      	nop
 80074bc:	3f490fda 	.word	0x3f490fda
 80074c0:	00000000 	.word	0x00000000

080074c4 <__kernel_tanf>:
__kernel_tanf():
/Volumes/data/jenkins/workspace/GNU-toolchain/arm-11/src/newlib-cygwin/newlib/libm/math/kf_tan.c:47
 80074c4:	b508      	push	{r3, lr}
/Volumes/data/jenkins/workspace/GNU-toolchain/arm-11/src/newlib-cygwin/newlib/libm/math/kf_tan.c:50
 80074c6:	ee10 3a10 	vmov	r3, s0
/Volumes/data/jenkins/workspace/GNU-toolchain/arm-11/src/newlib-cygwin/newlib/libm/math/kf_tan.c:51
 80074ca:	f023 4200 	bic.w	r2, r3, #2147483648	; 0x80000000
/Volumes/data/jenkins/workspace/GNU-toolchain/arm-11/src/newlib-cygwin/newlib/libm/math/kf_tan.c:52
 80074ce:	f1b2 5f46 	cmp.w	r2, #830472192	; 0x31800000
/Volumes/data/jenkins/workspace/GNU-toolchain/arm-11/src/newlib-cygwin/newlib/libm/math/kf_tan.c:47
 80074d2:	eef0 7a40 	vmov.f32	s15, s0
/Volumes/data/jenkins/workspace/GNU-toolchain/arm-11/src/newlib-cygwin/newlib/libm/math/kf_tan.c:52
 80074d6:	da0f      	bge.n	80074f8 <__kernel_tanf+0x34>
/Volumes/data/jenkins/workspace/GNU-toolchain/arm-11/src/newlib-cygwin/newlib/libm/math/kf_tan.c:53
 80074d8:	eebd 7ac0 	vcvt.s32.f32	s14, s0
 80074dc:	ee17 1a10 	vmov	r1, s14
 80074e0:	b9f9      	cbnz	r1, 8007522 <__kernel_tanf+0x5e>
/Volumes/data/jenkins/workspace/GNU-toolchain/arm-11/src/newlib-cygwin/newlib/libm/math/kf_tan.c:54
 80074e2:	1c43      	adds	r3, r0, #1
 80074e4:	4313      	orrs	r3, r2
 80074e6:	f000 809f 	beq.w	8007628 <__kernel_tanf+0x164>
/Volumes/data/jenkins/workspace/GNU-toolchain/arm-11/src/newlib-cygwin/newlib/libm/math/kf_tan.c:55
 80074ea:	2801      	cmp	r0, #1
 80074ec:	d003      	beq.n	80074f6 <__kernel_tanf+0x32>
/Volumes/data/jenkins/workspace/GNU-toolchain/arm-11/src/newlib-cygwin/newlib/libm/math/kf_tan.c:55 (discriminator 1)
 80074ee:	eebf 7a00 	vmov.f32	s14, #240	; 0xbf800000 -1.0
 80074f2:	ee87 0a27 	vdiv.f32	s0, s14, s15
/Volumes/data/jenkins/workspace/GNU-toolchain/arm-11/src/newlib-cygwin/newlib/libm/math/kf_tan.c:96
 80074f6:	bd08      	pop	{r3, pc}
/Volumes/data/jenkins/workspace/GNU-toolchain/arm-11/src/newlib-cygwin/newlib/libm/math/kf_tan.c:58
 80074f8:	4950      	ldr	r1, [pc, #320]	; (800763c <__kernel_tanf+0x178>)
 80074fa:	428a      	cmp	r2, r1
 80074fc:	db11      	blt.n	8007522 <__kernel_tanf+0x5e>
/Volumes/data/jenkins/workspace/GNU-toolchain/arm-11/src/newlib-cygwin/newlib/libm/math/kf_tan.c:60
 80074fe:	ed9f 7a50 	vldr	s14, [pc, #320]	; 8007640 <__kernel_tanf+0x17c>
/Volumes/data/jenkins/workspace/GNU-toolchain/arm-11/src/newlib-cygwin/newlib/libm/math/kf_tan.c:61
 8007502:	eddf 6a50 	vldr	s13, [pc, #320]	; 8007644 <__kernel_tanf+0x180>
/Volumes/data/jenkins/workspace/GNU-toolchain/arm-11/src/newlib-cygwin/newlib/libm/math/kf_tan.c:59
 8007506:	2b00      	cmp	r3, #0
 8007508:	bfbc      	itt	lt
 800750a:	eef1 0a60 	vneglt.f32	s1, s1
 800750e:	eef1 7a40 	vneglt.f32	s15, s0
/Volumes/data/jenkins/workspace/GNU-toolchain/arm-11/src/newlib-cygwin/newlib/libm/math/kf_tan.c:60
 8007512:	ee77 7a67 	vsub.f32	s15, s14, s15
/Volumes/data/jenkins/workspace/GNU-toolchain/arm-11/src/newlib-cygwin/newlib/libm/math/kf_tan.c:61
 8007516:	ee36 7ae0 	vsub.f32	s14, s13, s1
/Volumes/data/jenkins/workspace/GNU-toolchain/arm-11/src/newlib-cygwin/newlib/libm/math/kf_tan.c:62
 800751a:	eddf 0a4b 	vldr	s1, [pc, #300]	; 8007648 <__kernel_tanf+0x184>
 800751e:	ee77 7a27 	vadd.f32	s15, s14, s15
/Volumes/data/jenkins/workspace/GNU-toolchain/arm-11/src/newlib-cygwin/newlib/libm/math/kf_tan.c:64
 8007522:	ee67 6aa7 	vmul.f32	s13, s15, s15
/Volumes/data/jenkins/workspace/GNU-toolchain/arm-11/src/newlib-cygwin/newlib/libm/math/kf_tan.c:70
 8007526:	eddf 4a49 	vldr	s9, [pc, #292]	; 800764c <__kernel_tanf+0x188>
 800752a:	eddf 5a49 	vldr	s11, [pc, #292]	; 8007650 <__kernel_tanf+0x18c>
/Volumes/data/jenkins/workspace/GNU-toolchain/arm-11/src/newlib-cygwin/newlib/libm/math/kf_tan.c:71
 800752e:	ed9f 5a49 	vldr	s10, [pc, #292]	; 8007654 <__kernel_tanf+0x190>
 8007532:	ed9f 6a49 	vldr	s12, [pc, #292]	; 8007658 <__kernel_tanf+0x194>
/Volumes/data/jenkins/workspace/GNU-toolchain/arm-11/src/newlib-cygwin/newlib/libm/math/kf_tan.c:76
 8007536:	4941      	ldr	r1, [pc, #260]	; (800763c <__kernel_tanf+0x178>)
/Volumes/data/jenkins/workspace/GNU-toolchain/arm-11/src/newlib-cygwin/newlib/libm/math/kf_tan.c:65
 8007538:	ee26 7aa6 	vmul.f32	s14, s13, s13
/Volumes/data/jenkins/workspace/GNU-toolchain/arm-11/src/newlib-cygwin/newlib/libm/math/kf_tan.c:76
 800753c:	428a      	cmp	r2, r1
/Volumes/data/jenkins/workspace/GNU-toolchain/arm-11/src/newlib-cygwin/newlib/libm/math/kf_tan.c:70
 800753e:	eee7 5a24 	vfma.f32	s11, s14, s9
/Volumes/data/jenkins/workspace/GNU-toolchain/arm-11/src/newlib-cygwin/newlib/libm/math/kf_tan.c:71
 8007542:	eea7 6a05 	vfma.f32	s12, s14, s10
/Volumes/data/jenkins/workspace/GNU-toolchain/arm-11/src/newlib-cygwin/newlib/libm/math/kf_tan.c:70
 8007546:	eddf 4a45 	vldr	s9, [pc, #276]	; 800765c <__kernel_tanf+0x198>
/Volumes/data/jenkins/workspace/GNU-toolchain/arm-11/src/newlib-cygwin/newlib/libm/math/kf_tan.c:71
 800754a:	ed9f 5a45 	vldr	s10, [pc, #276]	; 8007660 <__kernel_tanf+0x19c>
/Volumes/data/jenkins/workspace/GNU-toolchain/arm-11/src/newlib-cygwin/newlib/libm/math/kf_tan.c:70
 800754e:	eee5 4a87 	vfma.f32	s9, s11, s14
/Volumes/data/jenkins/workspace/GNU-toolchain/arm-11/src/newlib-cygwin/newlib/libm/math/kf_tan.c:71
 8007552:	eea6 5a07 	vfma.f32	s10, s12, s14
/Volumes/data/jenkins/workspace/GNU-toolchain/arm-11/src/newlib-cygwin/newlib/libm/math/kf_tan.c:70
 8007556:	eddf 5a43 	vldr	s11, [pc, #268]	; 8007664 <__kernel_tanf+0x1a0>
/Volumes/data/jenkins/workspace/GNU-toolchain/arm-11/src/newlib-cygwin/newlib/libm/math/kf_tan.c:71
 800755a:	ed9f 6a43 	vldr	s12, [pc, #268]	; 8007668 <__kernel_tanf+0x1a4>
/Volumes/data/jenkins/workspace/GNU-toolchain/arm-11/src/newlib-cygwin/newlib/libm/math/kf_tan.c:70
 800755e:	eee4 5a87 	vfma.f32	s11, s9, s14
/Volumes/data/jenkins/workspace/GNU-toolchain/arm-11/src/newlib-cygwin/newlib/libm/math/kf_tan.c:71
 8007562:	eea5 6a07 	vfma.f32	s12, s10, s14
/Volumes/data/jenkins/workspace/GNU-toolchain/arm-11/src/newlib-cygwin/newlib/libm/math/kf_tan.c:70
 8007566:	eddf 4a41 	vldr	s9, [pc, #260]	; 800766c <__kernel_tanf+0x1a8>
/Volumes/data/jenkins/workspace/GNU-toolchain/arm-11/src/newlib-cygwin/newlib/libm/math/kf_tan.c:71
 800756a:	ed9f 5a41 	vldr	s10, [pc, #260]	; 8007670 <__kernel_tanf+0x1ac>
/Volumes/data/jenkins/workspace/GNU-toolchain/arm-11/src/newlib-cygwin/newlib/libm/math/kf_tan.c:70
 800756e:	eee5 4a87 	vfma.f32	s9, s11, s14
/Volumes/data/jenkins/workspace/GNU-toolchain/arm-11/src/newlib-cygwin/newlib/libm/math/kf_tan.c:71
 8007572:	eea6 5a07 	vfma.f32	s10, s12, s14
/Volumes/data/jenkins/workspace/GNU-toolchain/arm-11/src/newlib-cygwin/newlib/libm/math/kf_tan.c:70
 8007576:	ed9f 6a3f 	vldr	s12, [pc, #252]	; 8007674 <__kernel_tanf+0x1b0>
/Volumes/data/jenkins/workspace/GNU-toolchain/arm-11/src/newlib-cygwin/newlib/libm/math/kf_tan.c:71
 800757a:	eddf 5a3f 	vldr	s11, [pc, #252]	; 8007678 <__kernel_tanf+0x1b4>
/Volumes/data/jenkins/workspace/GNU-toolchain/arm-11/src/newlib-cygwin/newlib/libm/math/kf_tan.c:70
 800757e:	eea4 6a87 	vfma.f32	s12, s9, s14
/Volumes/data/jenkins/workspace/GNU-toolchain/arm-11/src/newlib-cygwin/newlib/libm/math/kf_tan.c:71
 8007582:	eee5 5a07 	vfma.f32	s11, s10, s14
/Volumes/data/jenkins/workspace/GNU-toolchain/arm-11/src/newlib-cygwin/newlib/libm/math/kf_tan.c:73
 8007586:	eeb0 7a46 	vmov.f32	s14, s12
 800758a:	eea5 7aa6 	vfma.f32	s14, s11, s13
/Volumes/data/jenkins/workspace/GNU-toolchain/arm-11/src/newlib-cygwin/newlib/libm/math/kf_tan.c:72
 800758e:	ee27 5aa6 	vmul.f32	s10, s15, s13
/Volumes/data/jenkins/workspace/GNU-toolchain/arm-11/src/newlib-cygwin/newlib/libm/math/kf_tan.c:73
 8007592:	eeb0 6a60 	vmov.f32	s12, s1
 8007596:	eea7 6a05 	vfma.f32	s12, s14, s10
/Volumes/data/jenkins/workspace/GNU-toolchain/arm-11/src/newlib-cygwin/newlib/libm/math/kf_tan.c:74
 800759a:	eddf 4a38 	vldr	s9, [pc, #224]	; 800767c <__kernel_tanf+0x1b8>
/Volumes/data/jenkins/workspace/GNU-toolchain/arm-11/src/newlib-cygwin/newlib/libm/math/kf_tan.c:73
 800759e:	eee6 0a26 	vfma.f32	s1, s12, s13
/Volumes/data/jenkins/workspace/GNU-toolchain/arm-11/src/newlib-cygwin/newlib/libm/math/kf_tan.c:74
 80075a2:	eee5 0a24 	vfma.f32	s1, s10, s9
/Volumes/data/jenkins/workspace/GNU-toolchain/arm-11/src/newlib-cygwin/newlib/libm/math/kf_tan.c:75
 80075a6:	ee37 0aa0 	vadd.f32	s0, s15, s1
/Volumes/data/jenkins/workspace/GNU-toolchain/arm-11/src/newlib-cygwin/newlib/libm/math/kf_tan.c:76
 80075aa:	da1f      	bge.n	80075ec <__kernel_tanf+0x128>
/Volumes/data/jenkins/workspace/GNU-toolchain/arm-11/src/newlib-cygwin/newlib/libm/math/kf_tan.c:80
 80075ac:	2801      	cmp	r0, #1
 80075ae:	d0a2      	beq.n	80074f6 <__kernel_tanf+0x32>
/Volumes/data/jenkins/workspace/GNU-toolchain/arm-11/src/newlib-cygwin/newlib/libm/math/kf_tan.c:90
 80075b0:	eebf 7a00 	vmov.f32	s14, #240	; 0xbf800000 -1.0
 80075b4:	eec7 6a00 	vdiv.f32	s13, s14, s0
/Volumes/data/jenkins/workspace/GNU-toolchain/arm-11/src/newlib-cygwin/newlib/libm/math/kf_tan.c:88
 80075b8:	4b31      	ldr	r3, [pc, #196]	; (8007680 <__kernel_tanf+0x1bc>)
 80075ba:	ee10 2a10 	vmov	r2, s0
 80075be:	401a      	ands	r2, r3
 80075c0:	ee06 2a10 	vmov	s12, r2
/Volumes/data/jenkins/workspace/GNU-toolchain/arm-11/src/newlib-cygwin/newlib/libm/math/kf_tan.c:92
 80075c4:	ee16 2a90 	vmov	r2, s13
/Volumes/data/jenkins/workspace/GNU-toolchain/arm-11/src/newlib-cygwin/newlib/libm/math/kf_tan.c:89
 80075c8:	ee76 7a67 	vsub.f32	s15, s12, s15
/Volumes/data/jenkins/workspace/GNU-toolchain/arm-11/src/newlib-cygwin/newlib/libm/math/kf_tan.c:92
 80075cc:	4013      	ands	r3, r2
 80075ce:	ee00 3a10 	vmov	s0, r3
/Volumes/data/jenkins/workspace/GNU-toolchain/arm-11/src/newlib-cygwin/newlib/libm/math/kf_tan.c:93
 80075d2:	eeb7 7a00 	vmov.f32	s14, #112	; 0x3f800000  1.0
/Volumes/data/jenkins/workspace/GNU-toolchain/arm-11/src/newlib-cygwin/newlib/libm/math/kf_tan.c:89
 80075d6:	ee70 0ae7 	vsub.f32	s1, s1, s15
/Volumes/data/jenkins/workspace/GNU-toolchain/arm-11/src/newlib-cygwin/newlib/libm/math/kf_tan.c:93
 80075da:	eef0 7a47 	vmov.f32	s15, s14
 80075de:	eee6 7a00 	vfma.f32	s15, s12, s0
/Volumes/data/jenkins/workspace/GNU-toolchain/arm-11/src/newlib-cygwin/newlib/libm/math/kf_tan.c:94
 80075e2:	eee0 7a80 	vfma.f32	s15, s1, s0
 80075e6:	eea7 0aa6 	vfma.f32	s0, s15, s13
/Volumes/data/jenkins/workspace/GNU-toolchain/arm-11/src/newlib-cygwin/newlib/libm/math/kf_tan.c:96
 80075ea:	bd08      	pop	{r3, pc}
/Volumes/data/jenkins/workspace/GNU-toolchain/arm-11/src/newlib-cygwin/newlib/libm/math/kf_tan.c:77
 80075ec:	ee07 0a10 	vmov	s14, r0
 80075f0:	eeb8 7ac7 	vcvt.f32.s32	s14, s14
/Volumes/data/jenkins/workspace/GNU-toolchain/arm-11/src/newlib-cygwin/newlib/libm/math/kf_tan.c:78
 80075f4:	ee60 6a00 	vmul.f32	s13, s0, s0
 80075f8:	ee30 0a07 	vadd.f32	s0, s0, s14
 80075fc:	179b      	asrs	r3, r3, #30
 80075fe:	ee86 6a80 	vdiv.f32	s12, s13, s0
 8007602:	f003 0302 	and.w	r3, r3, #2
 8007606:	f1c3 0301 	rsb	r3, r3, #1
 800760a:	eef0 5a00 	vmov.f32	s11, #0	; 0x40000000  2.0
 800760e:	ee36 6a60 	vsub.f32	s12, s12, s1
 8007612:	ee06 3a90 	vmov	s13, r3
 8007616:	ee77 7ac6 	vsub.f32	s15, s15, s12
 800761a:	eef8 6ae6 	vcvt.f32.s32	s13, s13
 800761e:	eea7 7ae5 	vfms.f32	s14, s15, s11
 8007622:	ee26 0a87 	vmul.f32	s0, s13, s14
/Volumes/data/jenkins/workspace/GNU-toolchain/arm-11/src/newlib-cygwin/newlib/libm/math/kf_tan.c:96
 8007626:	bd08      	pop	{r3, pc}
/Volumes/data/jenkins/workspace/GNU-toolchain/arm-11/src/newlib-cygwin/newlib/libm/math/kf_tan.c:54 (discriminator 1)
 8007628:	f000 f95c 	bl	80078e4 <fabsf>
 800762c:	eeb7 7a00 	vmov.f32	s14, #112	; 0x3f800000  1.0
 8007630:	eef0 7a40 	vmov.f32	s15, s0
 8007634:	ee87 0a27 	vdiv.f32	s0, s14, s15
/Volumes/data/jenkins/workspace/GNU-toolchain/arm-11/src/newlib-cygwin/newlib/libm/math/kf_tan.c:96 (discriminator 1)
 8007638:	bd08      	pop	{r3, pc}
 800763a:	bf00      	nop
 800763c:	3f2ca140 	.word	0x3f2ca140
 8007640:	3f490fda 	.word	0x3f490fda
 8007644:	33222168 	.word	0x33222168
 8007648:	00000000 	.word	0x00000000
 800764c:	b79bae5f 	.word	0xb79bae5f
 8007650:	38a3f445 	.word	0x38a3f445
 8007654:	37d95384 	.word	0x37d95384
 8007658:	3895c07a 	.word	0x3895c07a
 800765c:	3a1a26c8 	.word	0x3a1a26c8
 8007660:	398137b9 	.word	0x398137b9
 8007664:	3b6b6916 	.word	0x3b6b6916
 8007668:	3abede48 	.word	0x3abede48
 800766c:	3cb327a4 	.word	0x3cb327a4
 8007670:	3c11371f 	.word	0x3c11371f
 8007674:	3e088889 	.word	0x3e088889
 8007678:	3d5d0dd1 	.word	0x3d5d0dd1
 800767c:	3eaaaaab 	.word	0x3eaaaaab
 8007680:	fffff000 	.word	0xfffff000

08007684 <__ieee754_rem_pio2f>:
__ieee754_rem_pio2f():
/Volumes/data/jenkins/workspace/GNU-toolchain/arm-11/src/newlib-cygwin/newlib/libm/math/ef_rem_pio2.c:104
 8007684:	b570      	push	{r4, r5, r6, lr}
 8007686:	ee10 3a10 	vmov	r3, s0
/Volumes/data/jenkins/workspace/GNU-toolchain/arm-11/src/newlib-cygwin/newlib/libm/math/ef_rem_pio2.c:112
 800768a:	4a88      	ldr	r2, [pc, #544]	; (80078ac <__ieee754_rem_pio2f+0x228>)
/Volumes/data/jenkins/workspace/GNU-toolchain/arm-11/src/newlib-cygwin/newlib/libm/math/ef_rem_pio2.c:111
 800768c:	f023 4400 	bic.w	r4, r3, #2147483648	; 0x80000000
/Volumes/data/jenkins/workspace/GNU-toolchain/arm-11/src/newlib-cygwin/newlib/libm/math/ef_rem_pio2.c:112
 8007690:	4294      	cmp	r4, r2
/Volumes/data/jenkins/workspace/GNU-toolchain/arm-11/src/newlib-cygwin/newlib/libm/math/ef_rem_pio2.c:104
 8007692:	b086      	sub	sp, #24
 8007694:	4605      	mov	r5, r0
/Volumes/data/jenkins/workspace/GNU-toolchain/arm-11/src/newlib-cygwin/newlib/libm/math/ef_rem_pio2.c:112
 8007696:	dd70      	ble.n	800777a <__ieee754_rem_pio2f+0xf6>
/Volumes/data/jenkins/workspace/GNU-toolchain/arm-11/src/newlib-cygwin/newlib/libm/math/ef_rem_pio2.c:114
 8007698:	4a85      	ldr	r2, [pc, #532]	; (80078b0 <__ieee754_rem_pio2f+0x22c>)
 800769a:	4294      	cmp	r4, r2
 800769c:	ee10 6a10 	vmov	r6, s0
 80076a0:	dc22      	bgt.n	80076e8 <__ieee754_rem_pio2f+0x64>
/Volumes/data/jenkins/workspace/GNU-toolchain/arm-11/src/newlib-cygwin/newlib/libm/math/ef_rem_pio2.c:115
 80076a2:	2b00      	cmp	r3, #0
/Volumes/data/jenkins/workspace/GNU-toolchain/arm-11/src/newlib-cygwin/newlib/libm/math/ef_rem_pio2.c:116
 80076a4:	eddf 7a83 	vldr	s15, [pc, #524]	; 80078b4 <__ieee754_rem_pio2f+0x230>
/Volumes/data/jenkins/workspace/GNU-toolchain/arm-11/src/newlib-cygwin/newlib/libm/math/ef_rem_pio2.c:117
 80076a8:	4a83      	ldr	r2, [pc, #524]	; (80078b8 <__ieee754_rem_pio2f+0x234>)
 80076aa:	f024 040f 	bic.w	r4, r4, #15
/Volumes/data/jenkins/workspace/GNU-toolchain/arm-11/src/newlib-cygwin/newlib/libm/math/ef_rem_pio2.c:116
 80076ae:	eeb0 7a40 	vmov.f32	s14, s0
/Volumes/data/jenkins/workspace/GNU-toolchain/arm-11/src/newlib-cygwin/newlib/libm/math/ef_rem_pio2.c:115
 80076b2:	f340 80e2 	ble.w	800787a <__ieee754_rem_pio2f+0x1f6>
/Volumes/data/jenkins/workspace/GNU-toolchain/arm-11/src/newlib-cygwin/newlib/libm/math/ef_rem_pio2.c:117
 80076b6:	4294      	cmp	r4, r2
/Volumes/data/jenkins/workspace/GNU-toolchain/arm-11/src/newlib-cygwin/newlib/libm/math/ef_rem_pio2.c:116
 80076b8:	ee70 7a67 	vsub.f32	s15, s0, s15
/Volumes/data/jenkins/workspace/GNU-toolchain/arm-11/src/newlib-cygwin/newlib/libm/math/ef_rem_pio2.c:121
 80076bc:	bf09      	itett	eq
 80076be:	eddf 6a7f 	vldreq	s13, [pc, #508]	; 80078bc <__ieee754_rem_pio2f+0x238>
/Volumes/data/jenkins/workspace/GNU-toolchain/arm-11/src/newlib-cygwin/newlib/libm/math/ef_rem_pio2.c:118
 80076c2:	ed9f 7a7f 	vldrne	s14, [pc, #508]	; 80078c0 <__ieee754_rem_pio2f+0x23c>
/Volumes/data/jenkins/workspace/GNU-toolchain/arm-11/src/newlib-cygwin/newlib/libm/math/ef_rem_pio2.c:122
 80076c6:	ed9f 7a7f 	vldreq	s14, [pc, #508]	; 80078c4 <__ieee754_rem_pio2f+0x240>
/Volumes/data/jenkins/workspace/GNU-toolchain/arm-11/src/newlib-cygwin/newlib/libm/math/ef_rem_pio2.c:121
 80076ca:	ee77 7ae6 	vsubeq.f32	s15, s15, s13
/Volumes/data/jenkins/workspace/GNU-toolchain/arm-11/src/newlib-cygwin/newlib/libm/math/ef_rem_pio2.c:125
 80076ce:	2001      	movs	r0, #1
/Volumes/data/jenkins/workspace/GNU-toolchain/arm-11/src/newlib-cygwin/newlib/libm/math/ef_rem_pio2.c:122
 80076d0:	ee77 6ac7 	vsub.f32	s13, s15, s14
/Volumes/data/jenkins/workspace/GNU-toolchain/arm-11/src/newlib-cygwin/newlib/libm/math/ef_rem_pio2.c:123
 80076d4:	ee77 7ae6 	vsub.f32	s15, s15, s13
/Volumes/data/jenkins/workspace/GNU-toolchain/arm-11/src/newlib-cygwin/newlib/libm/math/ef_rem_pio2.c:122
 80076d8:	edc5 6a00 	vstr	s13, [r5]
/Volumes/data/jenkins/workspace/GNU-toolchain/arm-11/src/newlib-cygwin/newlib/libm/math/ef_rem_pio2.c:123
 80076dc:	ee77 7ac7 	vsub.f32	s15, s15, s14
 80076e0:	edc5 7a01 	vstr	s15, [r5, #4]
/Volumes/data/jenkins/workspace/GNU-toolchain/arm-11/src/newlib-cygwin/newlib/libm/math/ef_rem_pio2.c:193
 80076e4:	b006      	add	sp, #24
 80076e6:	bd70      	pop	{r4, r5, r6, pc}
/Volumes/data/jenkins/workspace/GNU-toolchain/arm-11/src/newlib-cygwin/newlib/libm/math/ef_rem_pio2.c:139
 80076e8:	4a77      	ldr	r2, [pc, #476]	; (80078c8 <__ieee754_rem_pio2f+0x244>)
 80076ea:	4294      	cmp	r4, r2
 80076ec:	dd54      	ble.n	8007798 <__ieee754_rem_pio2f+0x114>
/Volumes/data/jenkins/workspace/GNU-toolchain/arm-11/src/newlib-cygwin/newlib/libm/math/ef_rem_pio2.c:177
 80076ee:	f1b4 4fff 	cmp.w	r4, #2139095040	; 0x7f800000
 80076f2:	da49      	bge.n	8007788 <__ieee754_rem_pio2f+0x104>
/Volumes/data/jenkins/workspace/GNU-toolchain/arm-11/src/newlib-cygwin/newlib/libm/math/ef_rem_pio2.c:181
 80076f4:	15e2      	asrs	r2, r4, #23
 80076f6:	3a86      	subs	r2, #134	; 0x86
/Volumes/data/jenkins/workspace/GNU-toolchain/arm-11/src/newlib-cygwin/newlib/libm/math/ef_rem_pio2.c:182
 80076f8:	eba4 53c2 	sub.w	r3, r4, r2, lsl #23
 80076fc:	ee07 3a90 	vmov	s15, r3
/Volumes/data/jenkins/workspace/GNU-toolchain/arm-11/src/newlib-cygwin/newlib/libm/math/ef_rem_pio2.c:184
 8007700:	eebd 7ae7 	vcvt.s32.f32	s14, s15
/Volumes/data/jenkins/workspace/GNU-toolchain/arm-11/src/newlib-cygwin/newlib/libm/math/ef_rem_pio2.c:185
 8007704:	eddf 6a71 	vldr	s13, [pc, #452]	; 80078cc <__ieee754_rem_pio2f+0x248>
/Volumes/data/jenkins/workspace/GNU-toolchain/arm-11/src/newlib-cygwin/newlib/libm/math/ef_rem_pio2.c:184
 8007708:	eeb8 7ac7 	vcvt.f32.s32	s14, s14
/Volumes/data/jenkins/workspace/GNU-toolchain/arm-11/src/newlib-cygwin/newlib/libm/math/ef_rem_pio2.c:185
 800770c:	ee77 7ac7 	vsub.f32	s15, s15, s14
/Volumes/data/jenkins/workspace/GNU-toolchain/arm-11/src/newlib-cygwin/newlib/libm/math/ef_rem_pio2.c:184
 8007710:	ed8d 7a03 	vstr	s14, [sp, #12]
/Volumes/data/jenkins/workspace/GNU-toolchain/arm-11/src/newlib-cygwin/newlib/libm/math/ef_rem_pio2.c:185
 8007714:	ee67 7aa6 	vmul.f32	s15, s15, s13
/Volumes/data/jenkins/workspace/GNU-toolchain/arm-11/src/newlib-cygwin/newlib/libm/math/ef_rem_pio2.c:184
 8007718:	eebd 7ae7 	vcvt.s32.f32	s14, s15
 800771c:	eeb8 7ac7 	vcvt.f32.s32	s14, s14
/Volumes/data/jenkins/workspace/GNU-toolchain/arm-11/src/newlib-cygwin/newlib/libm/math/ef_rem_pio2.c:185
 8007720:	ee77 7ac7 	vsub.f32	s15, s15, s14
/Volumes/data/jenkins/workspace/GNU-toolchain/arm-11/src/newlib-cygwin/newlib/libm/math/ef_rem_pio2.c:184
 8007724:	ed8d 7a04 	vstr	s14, [sp, #16]
/Volumes/data/jenkins/workspace/GNU-toolchain/arm-11/src/newlib-cygwin/newlib/libm/math/ef_rem_pio2.c:185
 8007728:	ee67 7aa6 	vmul.f32	s15, s15, s13
/Volumes/data/jenkins/workspace/GNU-toolchain/arm-11/src/newlib-cygwin/newlib/libm/math/ef_rem_pio2.c:189
 800772c:	eef5 7a40 	vcmp.f32	s15, #0.0
 8007730:	eef1 fa10 	vmrs	APSR_nzcv, fpscr
/Volumes/data/jenkins/workspace/GNU-toolchain/arm-11/src/newlib-cygwin/newlib/libm/math/ef_rem_pio2.c:187
 8007734:	edcd 7a05 	vstr	s15, [sp, #20]
/Volumes/data/jenkins/workspace/GNU-toolchain/arm-11/src/newlib-cygwin/newlib/libm/math/ef_rem_pio2.c:189
 8007738:	f040 808e 	bne.w	8007858 <__ieee754_rem_pio2f+0x1d4>
 800773c:	eeb5 7a40 	vcmp.f32	s14, #0.0
 8007740:	eef1 fa10 	vmrs	APSR_nzcv, fpscr
 8007744:	bf14      	ite	ne
 8007746:	2302      	movne	r3, #2
 8007748:	2301      	moveq	r3, #1
/Volumes/data/jenkins/workspace/GNU-toolchain/arm-11/src/newlib-cygwin/newlib/libm/math/ef_rem_pio2.c:190
 800774a:	4961      	ldr	r1, [pc, #388]	; (80078d0 <__ieee754_rem_pio2f+0x24c>)
 800774c:	9101      	str	r1, [sp, #4]
 800774e:	2102      	movs	r1, #2
 8007750:	9100      	str	r1, [sp, #0]
 8007752:	a803      	add	r0, sp, #12
 8007754:	4629      	mov	r1, r5
 8007756:	f000 f8cd 	bl	80078f4 <__kernel_rem_pio2f>
/Volumes/data/jenkins/workspace/GNU-toolchain/arm-11/src/newlib-cygwin/newlib/libm/math/ef_rem_pio2.c:191
 800775a:	2e00      	cmp	r6, #0
 800775c:	dac2      	bge.n	80076e4 <__ieee754_rem_pio2f+0x60>
/Volumes/data/jenkins/workspace/GNU-toolchain/arm-11/src/newlib-cygwin/newlib/libm/math/ef_rem_pio2.c:191 (discriminator 1)
 800775e:	ed95 7a00 	vldr	s14, [r5]
 8007762:	edd5 7a01 	vldr	s15, [r5, #4]
 8007766:	eeb1 7a47 	vneg.f32	s14, s14
 800776a:	eef1 7a67 	vneg.f32	s15, s15
 800776e:	ed85 7a00 	vstr	s14, [r5]
 8007772:	edc5 7a01 	vstr	s15, [r5, #4]
 8007776:	4240      	negs	r0, r0
 8007778:	e7b4      	b.n	80076e4 <__ieee754_rem_pio2f+0x60>
/Volumes/data/jenkins/workspace/GNU-toolchain/arm-11/src/newlib-cygwin/newlib/libm/math/ef_rem_pio2.c:113
 800777a:	2200      	movs	r2, #0
 800777c:	ed85 0a00 	vstr	s0, [r5]
 8007780:	6042      	str	r2, [r0, #4]
 8007782:	2000      	movs	r0, #0
/Volumes/data/jenkins/workspace/GNU-toolchain/arm-11/src/newlib-cygwin/newlib/libm/math/ef_rem_pio2.c:193
 8007784:	b006      	add	sp, #24
 8007786:	bd70      	pop	{r4, r5, r6, pc}
/Volumes/data/jenkins/workspace/GNU-toolchain/arm-11/src/newlib-cygwin/newlib/libm/math/ef_rem_pio2.c:178
 8007788:	ee70 7a40 	vsub.f32	s15, s0, s0
 800778c:	2000      	movs	r0, #0
 800778e:	edc5 7a01 	vstr	s15, [r5, #4]
 8007792:	edc5 7a00 	vstr	s15, [r5]
 8007796:	e7a5      	b.n	80076e4 <__ieee754_rem_pio2f+0x60>
/Volumes/data/jenkins/workspace/GNU-toolchain/arm-11/src/newlib-cygwin/newlib/libm/math/ef_rem_pio2.c:140
 8007798:	f000 f8a4 	bl	80078e4 <fabsf>
/Volumes/data/jenkins/workspace/GNU-toolchain/arm-11/src/newlib-cygwin/newlib/libm/math/ef_rem_pio2.c:141
 800779c:	ed9f 7a4d 	vldr	s14, [pc, #308]	; 80078d4 <__ieee754_rem_pio2f+0x250>
/Volumes/data/jenkins/workspace/GNU-toolchain/arm-11/src/newlib-cygwin/newlib/libm/math/ef_rem_pio2.c:143
 80077a0:	ed9f 6a44 	vldr	s12, [pc, #272]	; 80078b4 <__ieee754_rem_pio2f+0x230>
/Volumes/data/jenkins/workspace/GNU-toolchain/arm-11/src/newlib-cygwin/newlib/libm/math/ef_rem_pio2.c:141
 80077a4:	eef6 7a00 	vmov.f32	s15, #96	; 0x3f000000  0.5
 80077a8:	eee0 7a07 	vfma.f32	s15, s0, s14
/Volumes/data/jenkins/workspace/GNU-toolchain/arm-11/src/newlib-cygwin/newlib/libm/math/ef_rem_pio2.c:144
 80077ac:	ed9f 7a44 	vldr	s14, [pc, #272]	; 80078c0 <__ieee754_rem_pio2f+0x23c>
/Volumes/data/jenkins/workspace/GNU-toolchain/arm-11/src/newlib-cygwin/newlib/libm/math/ef_rem_pio2.c:141
 80077b0:	eefd 7ae7 	vcvt.s32.f32	s15, s15
 80077b4:	ee17 0a90 	vmov	r0, s15
/Volumes/data/jenkins/workspace/GNU-toolchain/arm-11/src/newlib-cygwin/newlib/libm/math/ef_rem_pio2.c:142
 80077b8:	eef8 6ae7 	vcvt.f32.s32	s13, s15
/Volumes/data/jenkins/workspace/GNU-toolchain/arm-11/src/newlib-cygwin/newlib/libm/math/ef_rem_pio2.c:145
 80077bc:	281f      	cmp	r0, #31
/Volumes/data/jenkins/workspace/GNU-toolchain/arm-11/src/newlib-cygwin/newlib/libm/math/ef_rem_pio2.c:143
 80077be:	eea6 0ac6 	vfms.f32	s0, s13, s12
/Volumes/data/jenkins/workspace/GNU-toolchain/arm-11/src/newlib-cygwin/newlib/libm/math/ef_rem_pio2.c:144
 80077c2:	ee66 7a87 	vmul.f32	s15, s13, s14
/Volumes/data/jenkins/workspace/GNU-toolchain/arm-11/src/newlib-cygwin/newlib/libm/math/ef_rem_pio2.c:143
 80077c6:	eeb1 6a66 	vneg.f32	s12, s13
/Volumes/data/jenkins/workspace/GNU-toolchain/arm-11/src/newlib-cygwin/newlib/libm/math/ef_rem_pio2.c:145
 80077ca:	dc1e      	bgt.n	800780a <__ieee754_rem_pio2f+0x186>
/Volumes/data/jenkins/workspace/GNU-toolchain/arm-11/src/newlib-cygwin/newlib/libm/math/ef_rem_pio2.c:145 (discriminator 1)
 80077cc:	4a42      	ldr	r2, [pc, #264]	; (80078d8 <__ieee754_rem_pio2f+0x254>)
 80077ce:	1e41      	subs	r1, r0, #1
 80077d0:	f024 03ff 	bic.w	r3, r4, #255	; 0xff
 80077d4:	f852 2021 	ldr.w	r2, [r2, r1, lsl #2]
 80077d8:	4293      	cmp	r3, r2
 80077da:	d016      	beq.n	800780a <__ieee754_rem_pio2f+0x186>
/Volumes/data/jenkins/workspace/GNU-toolchain/arm-11/src/newlib-cygwin/newlib/libm/math/ef_rem_pio2.c:166
 80077dc:	ee30 7a67 	vsub.f32	s14, s0, s15
 80077e0:	ed85 7a00 	vstr	s14, [r5]
/Volumes/data/jenkins/workspace/GNU-toolchain/arm-11/src/newlib-cygwin/newlib/libm/math/ef_rem_pio2.c:170
 80077e4:	ee30 0a47 	vsub.f32	s0, s0, s14
/Volumes/data/jenkins/workspace/GNU-toolchain/arm-11/src/newlib-cygwin/newlib/libm/math/ef_rem_pio2.c:171
 80077e8:	2e00      	cmp	r6, #0
/Volumes/data/jenkins/workspace/GNU-toolchain/arm-11/src/newlib-cygwin/newlib/libm/math/ef_rem_pio2.c:170
 80077ea:	ee30 0a67 	vsub.f32	s0, s0, s15
 80077ee:	ed85 0a01 	vstr	s0, [r5, #4]
/Volumes/data/jenkins/workspace/GNU-toolchain/arm-11/src/newlib-cygwin/newlib/libm/math/ef_rem_pio2.c:171
 80077f2:	f6bf af77 	bge.w	80076e4 <__ieee754_rem_pio2f+0x60>
/Volumes/data/jenkins/workspace/GNU-toolchain/arm-11/src/newlib-cygwin/newlib/libm/math/ef_rem_pio2.c:171 (discriminator 1)
 80077f6:	eeb1 7a47 	vneg.f32	s14, s14
 80077fa:	eeb1 0a40 	vneg.f32	s0, s0
 80077fe:	ed85 7a00 	vstr	s14, [r5]
 8007802:	ed85 0a01 	vstr	s0, [r5, #4]
 8007806:	4240      	negs	r0, r0
 8007808:	e76c      	b.n	80076e4 <__ieee754_rem_pio2f+0x60>
/Volumes/data/jenkins/workspace/GNU-toolchain/arm-11/src/newlib-cygwin/newlib/libm/math/ef_rem_pio2.c:150
 800780a:	ee30 7a67 	vsub.f32	s14, s0, s15
/Volumes/data/jenkins/workspace/GNU-toolchain/arm-11/src/newlib-cygwin/newlib/libm/math/ef_rem_pio2.c:149
 800780e:	15e2      	asrs	r2, r4, #23
/Volumes/data/jenkins/workspace/GNU-toolchain/arm-11/src/newlib-cygwin/newlib/libm/math/ef_rem_pio2.c:152
 8007810:	ee17 3a10 	vmov	r3, s14
 8007814:	f3c3 53c7 	ubfx	r3, r3, #23, #8
 8007818:	ebc3 53d4 	rsb	r3, r3, r4, lsr #23
/Volumes/data/jenkins/workspace/GNU-toolchain/arm-11/src/newlib-cygwin/newlib/libm/math/ef_rem_pio2.c:153
 800781c:	2b08      	cmp	r3, #8
 800781e:	dddf      	ble.n	80077e0 <__ieee754_rem_pio2f+0x15c>
/Volumes/data/jenkins/workspace/GNU-toolchain/arm-11/src/newlib-cygwin/newlib/libm/math/ef_rem_pio2.c:156
 8007820:	ed9f 7a26 	vldr	s14, [pc, #152]	; 80078bc <__ieee754_rem_pio2f+0x238>
/Volumes/data/jenkins/workspace/GNU-toolchain/arm-11/src/newlib-cygwin/newlib/libm/math/ef_rem_pio2.c:157
 8007824:	ed9f 5a27 	vldr	s10, [pc, #156]	; 80078c4 <__ieee754_rem_pio2f+0x240>
/Volumes/data/jenkins/workspace/GNU-toolchain/arm-11/src/newlib-cygwin/newlib/libm/math/ef_rem_pio2.c:156
 8007828:	eef0 5a40 	vmov.f32	s11, s0
 800782c:	eee6 5a07 	vfma.f32	s11, s12, s14
/Volumes/data/jenkins/workspace/GNU-toolchain/arm-11/src/newlib-cygwin/newlib/libm/math/ef_rem_pio2.c:157
 8007830:	ee70 7a65 	vsub.f32	s15, s0, s11
 8007834:	eee6 7a07 	vfma.f32	s15, s12, s14
 8007838:	eed6 7a85 	vfnms.f32	s15, s13, s10
/Volumes/data/jenkins/workspace/GNU-toolchain/arm-11/src/newlib-cygwin/newlib/libm/math/ef_rem_pio2.c:158
 800783c:	ee35 7ae7 	vsub.f32	s14, s11, s15
/Volumes/data/jenkins/workspace/GNU-toolchain/arm-11/src/newlib-cygwin/newlib/libm/math/ef_rem_pio2.c:160
 8007840:	ee17 3a10 	vmov	r3, s14
 8007844:	f3c3 53c7 	ubfx	r3, r3, #23, #8
 8007848:	1ad2      	subs	r2, r2, r3
/Volumes/data/jenkins/workspace/GNU-toolchain/arm-11/src/newlib-cygwin/newlib/libm/math/ef_rem_pio2.c:161
 800784a:	2a19      	cmp	r2, #25
 800784c:	dc06      	bgt.n	800785c <__ieee754_rem_pio2f+0x1d8>
/Volumes/data/jenkins/workspace/GNU-toolchain/arm-11/src/newlib-cygwin/newlib/libm/math/ef_rem_pio2.c:156
 800784e:	eeb0 0a65 	vmov.f32	s0, s11
/Volumes/data/jenkins/workspace/GNU-toolchain/arm-11/src/newlib-cygwin/newlib/libm/math/ef_rem_pio2.c:158
 8007852:	ed85 7a00 	vstr	s14, [r5]
 8007856:	e7c5      	b.n	80077e4 <__ieee754_rem_pio2f+0x160>
/Volumes/data/jenkins/workspace/GNU-toolchain/arm-11/src/newlib-cygwin/newlib/libm/math/ef_rem_pio2.c:188
 8007858:	2303      	movs	r3, #3
 800785a:	e776      	b.n	800774a <__ieee754_rem_pio2f+0xc6>
/Volumes/data/jenkins/workspace/GNU-toolchain/arm-11/src/newlib-cygwin/newlib/libm/math/ef_rem_pio2.c:164
 800785c:	ed9f 7a1f 	vldr	s14, [pc, #124]	; 80078dc <__ieee754_rem_pio2f+0x258>
/Volumes/data/jenkins/workspace/GNU-toolchain/arm-11/src/newlib-cygwin/newlib/libm/math/ef_rem_pio2.c:165
 8007860:	ed9f 5a1f 	vldr	s10, [pc, #124]	; 80078e0 <__ieee754_rem_pio2f+0x25c>
/Volumes/data/jenkins/workspace/GNU-toolchain/arm-11/src/newlib-cygwin/newlib/libm/math/ef_rem_pio2.c:164
 8007864:	eeb0 0a65 	vmov.f32	s0, s11
 8007868:	eea6 0a07 	vfma.f32	s0, s12, s14
/Volumes/data/jenkins/workspace/GNU-toolchain/arm-11/src/newlib-cygwin/newlib/libm/math/ef_rem_pio2.c:165
 800786c:	ee75 7ac0 	vsub.f32	s15, s11, s0
 8007870:	eee6 7a07 	vfma.f32	s15, s12, s14
 8007874:	eed6 7a85 	vfnms.f32	s15, s13, s10
 8007878:	e7b0      	b.n	80077dc <__ieee754_rem_pio2f+0x158>
/Volumes/data/jenkins/workspace/GNU-toolchain/arm-11/src/newlib-cygwin/newlib/libm/math/ef_rem_pio2.c:128
 800787a:	4294      	cmp	r4, r2
/Volumes/data/jenkins/workspace/GNU-toolchain/arm-11/src/newlib-cygwin/newlib/libm/math/ef_rem_pio2.c:127
 800787c:	ee70 7a27 	vadd.f32	s15, s0, s15
/Volumes/data/jenkins/workspace/GNU-toolchain/arm-11/src/newlib-cygwin/newlib/libm/math/ef_rem_pio2.c:132
 8007880:	bf09      	itett	eq
 8007882:	eddf 6a0e 	vldreq	s13, [pc, #56]	; 80078bc <__ieee754_rem_pio2f+0x238>
/Volumes/data/jenkins/workspace/GNU-toolchain/arm-11/src/newlib-cygwin/newlib/libm/math/ef_rem_pio2.c:129
 8007886:	ed9f 7a0e 	vldrne	s14, [pc, #56]	; 80078c0 <__ieee754_rem_pio2f+0x23c>
/Volumes/data/jenkins/workspace/GNU-toolchain/arm-11/src/newlib-cygwin/newlib/libm/math/ef_rem_pio2.c:133
 800788a:	ed9f 7a0e 	vldreq	s14, [pc, #56]	; 80078c4 <__ieee754_rem_pio2f+0x240>
/Volumes/data/jenkins/workspace/GNU-toolchain/arm-11/src/newlib-cygwin/newlib/libm/math/ef_rem_pio2.c:132
 800788e:	ee77 7aa6 	vaddeq.f32	s15, s15, s13
/Volumes/data/jenkins/workspace/GNU-toolchain/arm-11/src/newlib-cygwin/newlib/libm/math/ef_rem_pio2.c:136
 8007892:	f04f 30ff 	mov.w	r0, #4294967295	; 0xffffffff
/Volumes/data/jenkins/workspace/GNU-toolchain/arm-11/src/newlib-cygwin/newlib/libm/math/ef_rem_pio2.c:133
 8007896:	ee77 6a87 	vadd.f32	s13, s15, s14
/Volumes/data/jenkins/workspace/GNU-toolchain/arm-11/src/newlib-cygwin/newlib/libm/math/ef_rem_pio2.c:134
 800789a:	ee77 7ae6 	vsub.f32	s15, s15, s13
/Volumes/data/jenkins/workspace/GNU-toolchain/arm-11/src/newlib-cygwin/newlib/libm/math/ef_rem_pio2.c:133
 800789e:	edc5 6a00 	vstr	s13, [r5]
/Volumes/data/jenkins/workspace/GNU-toolchain/arm-11/src/newlib-cygwin/newlib/libm/math/ef_rem_pio2.c:134
 80078a2:	ee77 7a87 	vadd.f32	s15, s15, s14
 80078a6:	edc5 7a01 	vstr	s15, [r5, #4]
 80078aa:	e71b      	b.n	80076e4 <__ieee754_rem_pio2f+0x60>
 80078ac:	3f490fd8 	.word	0x3f490fd8
 80078b0:	4016cbe3 	.word	0x4016cbe3
 80078b4:	3fc90f80 	.word	0x3fc90f80
 80078b8:	3fc90fd0 	.word	0x3fc90fd0
 80078bc:	37354400 	.word	0x37354400
 80078c0:	37354443 	.word	0x37354443
 80078c4:	2e85a308 	.word	0x2e85a308
 80078c8:	43490f80 	.word	0x43490f80
 80078cc:	43800000 	.word	0x43800000
 80078d0:	08008c80 	.word	0x08008c80
 80078d4:	3f22f984 	.word	0x3f22f984
 80078d8:	08008c00 	.word	0x08008c00
 80078dc:	2e85a300 	.word	0x2e85a300
 80078e0:	248d3132 	.word	0x248d3132

080078e4 <fabsf>:
fabsf():
/Volumes/data/jenkins/workspace/GNU-toolchain/arm-11/src/newlib-cygwin/newlib/libm/math/sf_fabs.c:32
 80078e4:	ee10 3a10 	vmov	r3, s0
 80078e8:	f023 4300 	bic.w	r3, r3, #2147483648	; 0x80000000
 80078ec:	ee00 3a10 	vmov	s0, r3
/Volumes/data/jenkins/workspace/GNU-toolchain/arm-11/src/newlib-cygwin/newlib/libm/math/sf_fabs.c:33
 80078f0:	4770      	bx	lr
 80078f2:	bf00      	nop

080078f4 <__kernel_rem_pio2f>:
__kernel_rem_pio2f():
/Volumes/data/jenkins/workspace/GNU-toolchain/arm-11/src/newlib-cygwin/newlib/libm/math/kf_rem_pio2.c:61
 80078f4:	e92d 4ff0 	stmdb	sp!, {r4, r5, r6, r7, r8, r9, sl, fp, lr}
 80078f8:	ed2d 8b04 	vpush	{d8-d9}
 80078fc:	b0db      	sub	sp, #364	; 0x16c
 80078fe:	461c      	mov	r4, r3
 8007900:	9303      	str	r3, [sp, #12]
 8007902:	9106      	str	r1, [sp, #24]
/Volumes/data/jenkins/workspace/GNU-toolchain/arm-11/src/newlib-cygwin/newlib/libm/math/kf_rem_pio2.c:66
 8007904:	4ba0      	ldr	r3, [pc, #640]	; (8007b88 <__kernel_rem_pio2f+0x294>)
 8007906:	9968      	ldr	r1, [sp, #416]	; 0x1a0
/Volumes/data/jenkins/workspace/GNU-toolchain/arm-11/src/newlib-cygwin/newlib/libm/math/kf_rem_pio2.c:61
 8007908:	9208      	str	r2, [sp, #32]
/Volumes/data/jenkins/workspace/GNU-toolchain/arm-11/src/newlib-cygwin/newlib/libm/math/kf_rem_pio2.c:66
 800790a:	f853 5021 	ldr.w	r5, [r3, r1, lsl #2]
/Volumes/data/jenkins/workspace/GNU-toolchain/arm-11/src/newlib-cygwin/newlib/libm/math/kf_rem_pio2.c:71
 800790e:	1d11      	adds	r1, r2, #4
/Volumes/data/jenkins/workspace/GNU-toolchain/arm-11/src/newlib-cygwin/newlib/libm/math/kf_rem_pio2.c:61
 8007910:	4682      	mov	sl, r0
/Volumes/data/jenkins/workspace/GNU-toolchain/arm-11/src/newlib-cygwin/newlib/libm/math/kf_rem_pio2.c:70
 8007912:	f104 38ff 	add.w	r8, r4, #4294967295	; 0xffffffff
/Volumes/data/jenkins/workspace/GNU-toolchain/arm-11/src/newlib-cygwin/newlib/libm/math/kf_rem_pio2.c:71
 8007916:	f2c0 8298 	blt.w	8007e4a <__kernel_rem_pio2f+0x556>
 800791a:	1ed3      	subs	r3, r2, #3
 800791c:	bf48      	it	mi
 800791e:	1d13      	addmi	r3, r2, #4
 8007920:	10db      	asrs	r3, r3, #3
 8007922:	9302      	str	r3, [sp, #8]
/Volumes/data/jenkins/workspace/GNU-toolchain/arm-11/src/newlib-cygwin/newlib/libm/math/kf_rem_pio2.c:72
 8007924:	3301      	adds	r3, #1
 8007926:	00db      	lsls	r3, r3, #3
 8007928:	9307      	str	r3, [sp, #28]
 800792a:	e9dd 2307 	ldrd	r2, r3, [sp, #28]
 800792e:	1a9b      	subs	r3, r3, r2
 8007930:	9305      	str	r3, [sp, #20]
/Volumes/data/jenkins/workspace/GNU-toolchain/arm-11/src/newlib-cygwin/newlib/libm/math/kf_rem_pio2.c:75
 8007932:	9b02      	ldr	r3, [sp, #8]
/Volumes/data/jenkins/workspace/GNU-toolchain/arm-11/src/newlib-cygwin/newlib/libm/math/kf_rem_pio2.c:76
 8007934:	eb15 0108 	adds.w	r1, r5, r8
/Volumes/data/jenkins/workspace/GNU-toolchain/arm-11/src/newlib-cygwin/newlib/libm/math/kf_rem_pio2.c:75
 8007938:	eba3 0308 	sub.w	r3, r3, r8
/Volumes/data/jenkins/workspace/GNU-toolchain/arm-11/src/newlib-cygwin/newlib/libm/math/kf_rem_pio2.c:76
 800793c:	d416      	bmi.n	800796c <__kernel_rem_pio2f+0x78>
 800793e:	3101      	adds	r1, #1
 8007940:	ed9f 7a92 	vldr	s14, [pc, #584]	; 8007b8c <__kernel_rem_pio2f+0x298>
 8007944:	9869      	ldr	r0, [sp, #420]	; 0x1a4
 8007946:	4419      	add	r1, r3
 8007948:	aa1e      	add	r2, sp, #120	; 0x78
/Volumes/data/jenkins/workspace/GNU-toolchain/arm-11/src/newlib-cygwin/newlib/libm/math/kf_rem_pio2.c:76 (discriminator 7)
 800794a:	2b00      	cmp	r3, #0
 800794c:	bfa4      	itt	ge
 800794e:	f850 4023 	ldrge.w	r4, [r0, r3, lsl #2]
 8007952:	ee07 4a90 	vmovge	s15, r4
 8007956:	f103 0301 	add.w	r3, r3, #1
 800795a:	bfac      	ite	ge
 800795c:	eef8 7ae7 	vcvtge.f32.s32	s15, s15
 8007960:	eef0 7a47 	vmovlt.f32	s15, s14
 8007964:	428b      	cmp	r3, r1
 8007966:	ece2 7a01 	vstmia	r2!, {s15}
 800796a:	d1ee      	bne.n	800794a <__kernel_rem_pio2f+0x56>
/Volumes/data/jenkins/workspace/GNU-toolchain/arm-11/src/newlib-cygwin/newlib/libm/math/kf_rem_pio2.c:79
 800796c:	2d00      	cmp	r5, #0
 800796e:	f2c0 82db 	blt.w	8007f28 <__kernel_rem_pio2f+0x634>
 8007972:	9b03      	ldr	r3, [sp, #12]
 8007974:	aa1e      	add	r2, sp, #120	; 0x78
 8007976:	eb02 0483 	add.w	r4, r2, r3, lsl #2
 800797a:	ae46      	add	r6, sp, #280	; 0x118
 800797c:	ea4f 0c83 	mov.w	ip, r3, lsl #2
 8007980:	4640      	mov	r0, r8
 8007982:	18ef      	adds	r7, r5, r3
 8007984:	eb0a 0183 	add.w	r1, sl, r3, lsl #2
/Volumes/data/jenkins/workspace/GNU-toolchain/arm-11/src/newlib-cygwin/newlib/libm/math/kf_rem_pio2.c:80
 8007988:	f1b8 0f00 	cmp.w	r8, #0
 800798c:	eddf 7a7f 	vldr	s15, [pc, #508]	; 8007b8c <__kernel_rem_pio2f+0x298>
 8007990:	db09      	blt.n	80079a6 <__kernel_rem_pio2f+0xb2>
 8007992:	4622      	mov	r2, r4
 8007994:	4653      	mov	r3, sl
/Volumes/data/jenkins/workspace/GNU-toolchain/arm-11/src/newlib-cygwin/newlib/libm/math/kf_rem_pio2.c:80 (discriminator 3)
 8007996:	ecf3 6a01 	vldmia	r3!, {s13}
 800799a:	ed32 7a01 	vldmdb	r2!, {s14}
 800799e:	428b      	cmp	r3, r1
 80079a0:	eee6 7a87 	vfma.f32	s15, s13, s14
 80079a4:	d1f7      	bne.n	8007996 <__kernel_rem_pio2f+0xa2>
/Volumes/data/jenkins/workspace/GNU-toolchain/arm-11/src/newlib-cygwin/newlib/libm/math/kf_rem_pio2.c:79 (discriminator 2)
 80079a6:	3001      	adds	r0, #1
 80079a8:	42b8      	cmp	r0, r7
/Volumes/data/jenkins/workspace/GNU-toolchain/arm-11/src/newlib-cygwin/newlib/libm/math/kf_rem_pio2.c:81 (discriminator 2)
 80079aa:	ece6 7a01 	vstmia	r6!, {s15}
/Volumes/data/jenkins/workspace/GNU-toolchain/arm-11/src/newlib-cygwin/newlib/libm/math/kf_rem_pio2.c:79 (discriminator 2)
 80079ae:	f104 0404 	add.w	r4, r4, #4
 80079b2:	d1e9      	bne.n	8007988 <__kernel_rem_pio2f+0x94>
 80079b4:	af0a      	add	r7, sp, #40	; 0x28
 80079b6:	eb07 0385 	add.w	r3, r7, r5, lsl #2
 80079ba:	3b04      	subs	r3, #4
/Volumes/data/jenkins/workspace/GNU-toolchain/arm-11/src/newlib-cygwin/newlib/libm/math/kf_rem_pio2.c:88
 80079bc:	ed9f 9a75 	vldr	s18, [pc, #468]	; 8007b94 <__kernel_rem_pio2f+0x2a0>
/Volumes/data/jenkins/workspace/GNU-toolchain/arm-11/src/newlib-cygwin/newlib/libm/math/kf_rem_pio2.c:89
 80079c0:	eddf 8a73 	vldr	s17, [pc, #460]	; 8007b90 <__kernel_rem_pio2f+0x29c>
 80079c4:	9805      	ldr	r0, [sp, #20]
 80079c6:	9304      	str	r3, [sp, #16]
 80079c8:	eb0a 040c 	add.w	r4, sl, ip
 80079cc:	eb07 0985 	add.w	r9, r7, r5, lsl #2
 80079d0:	ae46      	add	r6, sp, #280	; 0x118
 80079d2:	9500      	str	r5, [sp, #0]
/Volumes/data/jenkins/workspace/GNU-toolchain/arm-11/src/newlib-cygwin/newlib/libm/math/kf_rem_pio2.c:87
 80079d4:	ab5a      	add	r3, sp, #360	; 0x168
 80079d6:	eb03 0385 	add.w	r3, r3, r5, lsl #2
 80079da:	2d00      	cmp	r5, #0
 80079dc:	ed13 0a14 	vldr	s0, [r3, #-80]	; 0xffffffb0
 80079e0:	ea4f 0b85 	mov.w	fp, r5, lsl #2
 80079e4:	dd16      	ble.n	8007a14 <__kernel_rem_pio2f+0x120>
 80079e6:	eb06 0385 	add.w	r3, r6, r5, lsl #2
 80079ea:	463a      	mov	r2, r7
/Volumes/data/jenkins/workspace/GNU-toolchain/arm-11/src/newlib-cygwin/newlib/libm/math/kf_rem_pio2.c:88 (discriminator 3)
 80079ec:	ee60 7a09 	vmul.f32	s15, s0, s18
/Volumes/data/jenkins/workspace/GNU-toolchain/arm-11/src/newlib-cygwin/newlib/libm/math/kf_rem_pio2.c:89 (discriminator 3)
 80079f0:	eeb0 7a40 	vmov.f32	s14, s0
/Volumes/data/jenkins/workspace/GNU-toolchain/arm-11/src/newlib-cygwin/newlib/libm/math/kf_rem_pio2.c:88 (discriminator 3)
 80079f4:	eefd 7ae7 	vcvt.s32.f32	s15, s15
/Volumes/data/jenkins/workspace/GNU-toolchain/arm-11/src/newlib-cygwin/newlib/libm/math/kf_rem_pio2.c:90 (discriminator 3)
 80079f8:	ed73 6a01 	vldmdb	r3!, {s13}
/Volumes/data/jenkins/workspace/GNU-toolchain/arm-11/src/newlib-cygwin/newlib/libm/math/kf_rem_pio2.c:88 (discriminator 3)
 80079fc:	eef8 7ae7 	vcvt.f32.s32	s15, s15
/Volumes/data/jenkins/workspace/GNU-toolchain/arm-11/src/newlib-cygwin/newlib/libm/math/kf_rem_pio2.c:87 (discriminator 3)
 8007a00:	42b3      	cmp	r3, r6
/Volumes/data/jenkins/workspace/GNU-toolchain/arm-11/src/newlib-cygwin/newlib/libm/math/kf_rem_pio2.c:89 (discriminator 3)
 8007a02:	eea7 7ae8 	vfms.f32	s14, s15, s17
/Volumes/data/jenkins/workspace/GNU-toolchain/arm-11/src/newlib-cygwin/newlib/libm/math/kf_rem_pio2.c:90 (discriminator 3)
 8007a06:	ee37 0aa6 	vadd.f32	s0, s15, s13
/Volumes/data/jenkins/workspace/GNU-toolchain/arm-11/src/newlib-cygwin/newlib/libm/math/kf_rem_pio2.c:89 (discriminator 3)
 8007a0a:	eebd 7ac7 	vcvt.s32.f32	s14, s14
 8007a0e:	eca2 7a01 	vstmia	r2!, {s14}
/Volumes/data/jenkins/workspace/GNU-toolchain/arm-11/src/newlib-cygwin/newlib/libm/math/kf_rem_pio2.c:87 (discriminator 3)
 8007a12:	d1eb      	bne.n	80079ec <__kernel_rem_pio2f+0xf8>
/Volumes/data/jenkins/workspace/GNU-toolchain/arm-11/src/newlib-cygwin/newlib/libm/math/kf_rem_pio2.c:94
 8007a14:	9001      	str	r0, [sp, #4]
 8007a16:	f000 fae1 	bl	8007fdc <scalbnf>
 8007a1a:	eeb0 8a40 	vmov.f32	s16, s0
/Volumes/data/jenkins/workspace/GNU-toolchain/arm-11/src/newlib-cygwin/newlib/libm/math/kf_rem_pio2.c:95
 8007a1e:	eeb4 0a00 	vmov.f32	s0, #64	; 0x3e000000  0.125
 8007a22:	ee28 0a00 	vmul.f32	s0, s16, s0
 8007a26:	f000 fa91 	bl	8007f4c <floorf>
 8007a2a:	eef2 7a00 	vmov.f32	s15, #32	; 0x41000000  8.0
 8007a2e:	eea0 8a67 	vfms.f32	s16, s0, s15
/Volumes/data/jenkins/workspace/GNU-toolchain/arm-11/src/newlib-cygwin/newlib/libm/math/kf_rem_pio2.c:99
 8007a32:	9801      	ldr	r0, [sp, #4]
 8007a34:	2800      	cmp	r0, #0
/Volumes/data/jenkins/workspace/GNU-toolchain/arm-11/src/newlib-cygwin/newlib/libm/math/kf_rem_pio2.c:96
 8007a36:	eefd 9ac8 	vcvt.s32.f32	s19, s16
/Volumes/data/jenkins/workspace/GNU-toolchain/arm-11/src/newlib-cygwin/newlib/libm/math/kf_rem_pio2.c:97
 8007a3a:	eef8 7ae9 	vcvt.f32.s32	s15, s19
 8007a3e:	ee38 8a67 	vsub.f32	s16, s16, s15
/Volumes/data/jenkins/workspace/GNU-toolchain/arm-11/src/newlib-cygwin/newlib/libm/math/kf_rem_pio2.c:99
 8007a42:	dd76      	ble.n	8007b32 <__kernel_rem_pio2f+0x23e>
/Volumes/data/jenkins/workspace/GNU-toolchain/arm-11/src/newlib-cygwin/newlib/libm/math/kf_rem_pio2.c:100
 8007a44:	f105 3eff 	add.w	lr, r5, #4294967295	; 0xffffffff
 8007a48:	f1c0 0308 	rsb	r3, r0, #8
 8007a4c:	f857 202e 	ldr.w	r2, [r7, lr, lsl #2]
 8007a50:	fa42 fc03 	asr.w	ip, r2, r3
/Volumes/data/jenkins/workspace/GNU-toolchain/arm-11/src/newlib-cygwin/newlib/libm/math/kf_rem_pio2.c:101
 8007a54:	fa0c f303 	lsl.w	r3, ip, r3
 8007a58:	1ad3      	subs	r3, r2, r3
/Volumes/data/jenkins/workspace/GNU-toolchain/arm-11/src/newlib-cygwin/newlib/libm/math/kf_rem_pio2.c:102
 8007a5a:	f1c0 0107 	rsb	r1, r0, #7
/Volumes/data/jenkins/workspace/GNU-toolchain/arm-11/src/newlib-cygwin/newlib/libm/math/kf_rem_pio2.c:100
 8007a5e:	ee19 2a90 	vmov	r2, s19
/Volumes/data/jenkins/workspace/GNU-toolchain/arm-11/src/newlib-cygwin/newlib/libm/math/kf_rem_pio2.c:101
 8007a62:	f847 302e 	str.w	r3, [r7, lr, lsl #2]
/Volumes/data/jenkins/workspace/GNU-toolchain/arm-11/src/newlib-cygwin/newlib/libm/math/kf_rem_pio2.c:102
 8007a66:	410b      	asrs	r3, r1
/Volumes/data/jenkins/workspace/GNU-toolchain/arm-11/src/newlib-cygwin/newlib/libm/math/kf_rem_pio2.c:100
 8007a68:	4462      	add	r2, ip
/Volumes/data/jenkins/workspace/GNU-toolchain/arm-11/src/newlib-cygwin/newlib/libm/math/kf_rem_pio2.c:107
 8007a6a:	2b00      	cmp	r3, #0
/Volumes/data/jenkins/workspace/GNU-toolchain/arm-11/src/newlib-cygwin/newlib/libm/math/kf_rem_pio2.c:100
 8007a6c:	ee09 2a90 	vmov	s19, r2
/Volumes/data/jenkins/workspace/GNU-toolchain/arm-11/src/newlib-cygwin/newlib/libm/math/kf_rem_pio2.c:107
 8007a70:	dc67      	bgt.n	8007b42 <__kernel_rem_pio2f+0x24e>
/Volumes/data/jenkins/workspace/GNU-toolchain/arm-11/src/newlib-cygwin/newlib/libm/math/kf_rem_pio2.c:132
 8007a72:	eeb5 8a40 	vcmp.f32	s16, #0.0
 8007a76:	eef1 fa10 	vmrs	APSR_nzcv, fpscr
 8007a7a:	f040 80be 	bne.w	8007bfa <__kernel_rem_pio2f+0x306>
/Volumes/data/jenkins/workspace/GNU-toolchain/arm-11/src/newlib-cygwin/newlib/libm/math/kf_rem_pio2.c:134
 8007a7e:	9a00      	ldr	r2, [sp, #0]
 8007a80:	f105 3bff 	add.w	fp, r5, #4294967295	; 0xffffffff
 8007a84:	455a      	cmp	r2, fp
 8007a86:	dc0e      	bgt.n	8007aa6 <__kernel_rem_pio2f+0x1b2>
 8007a88:	ea4f 0c85 	mov.w	ip, r5, lsl #2
 8007a8c:	eb07 0285 	add.w	r2, r7, r5, lsl #2
/Volumes/data/jenkins/workspace/GNU-toolchain/arm-11/src/newlib-cygwin/newlib/libm/math/kf_rem_pio2.c:133
 8007a90:	2100      	movs	r1, #0
 8007a92:	469e      	mov	lr, r3
/Volumes/data/jenkins/workspace/GNU-toolchain/arm-11/src/newlib-cygwin/newlib/libm/math/kf_rem_pio2.c:134 (discriminator 3)
 8007a94:	f852 3d04 	ldr.w	r3, [r2, #-4]!
 8007a98:	454a      	cmp	r2, r9
 8007a9a:	ea41 0103 	orr.w	r1, r1, r3
 8007a9e:	d1f9      	bne.n	8007a94 <__kernel_rem_pio2f+0x1a0>
/Volumes/data/jenkins/workspace/GNU-toolchain/arm-11/src/newlib-cygwin/newlib/libm/math/kf_rem_pio2.c:135
 8007aa0:	2900      	cmp	r1, #0
 8007aa2:	f040 80f1 	bne.w	8007c88 <__kernel_rem_pio2f+0x394>
/Volumes/data/jenkins/workspace/GNU-toolchain/arm-11/src/newlib-cygwin/newlib/libm/math/kf_rem_pio2.c:136
 8007aa6:	9b00      	ldr	r3, [sp, #0]
 8007aa8:	3b01      	subs	r3, #1
 8007aaa:	f857 3023 	ldr.w	r3, [r7, r3, lsl #2]
 8007aae:	2b00      	cmp	r3, #0
 8007ab0:	f040 80e6 	bne.w	8007c80 <__kernel_rem_pio2f+0x38c>
 8007ab4:	9b04      	ldr	r3, [sp, #16]
 8007ab6:	f04f 0c01 	mov.w	ip, #1
/Volumes/data/jenkins/workspace/GNU-toolchain/arm-11/src/newlib-cygwin/newlib/libm/math/kf_rem_pio2.c:136 (discriminator 3)
 8007aba:	f853 2d04 	ldr.w	r2, [r3, #-4]!
 8007abe:	f10c 0c01 	add.w	ip, ip, #1
 8007ac2:	2a00      	cmp	r2, #0
 8007ac4:	d0f9      	beq.n	8007aba <__kernel_rem_pio2f+0x1c6>
/Volumes/data/jenkins/workspace/GNU-toolchain/arm-11/src/newlib-cygwin/newlib/libm/math/kf_rem_pio2.c:138
 8007ac6:	1c6b      	adds	r3, r5, #1
 8007ac8:	44ac      	add	ip, r5
 8007aca:	469e      	mov	lr, r3
 8007acc:	9902      	ldr	r1, [sp, #8]
 8007ace:	9a03      	ldr	r2, [sp, #12]
 8007ad0:	eb01 0b03 	add.w	fp, r1, r3
 8007ad4:	f10b 4b80 	add.w	fp, fp, #1073741824	; 0x40000000
 8007ad8:	9969      	ldr	r1, [sp, #420]	; 0x1a4
 8007ada:	442a      	add	r2, r5
 8007adc:	f10b 3bff 	add.w	fp, fp, #4294967295	; 0xffffffff
 8007ae0:	eb06 0583 	add.w	r5, r6, r3, lsl #2
 8007ae4:	ab1e      	add	r3, sp, #120	; 0x78
 8007ae6:	eb01 0b8b 	add.w	fp, r1, fp, lsl #2
 8007aea:	eb03 0182 	add.w	r1, r3, r2, lsl #2
/Volumes/data/jenkins/workspace/GNU-toolchain/arm-11/src/newlib-cygwin/newlib/libm/math/kf_rem_pio2.c:139
 8007aee:	eddb 7a01 	vldr	s15, [fp, #4]
/Volumes/data/jenkins/workspace/GNU-toolchain/arm-11/src/newlib-cygwin/newlib/libm/math/kf_rem_pio2.c:140
 8007af2:	ed9f 7a26 	vldr	s14, [pc, #152]	; 8007b8c <__kernel_rem_pio2f+0x298>
/Volumes/data/jenkins/workspace/GNU-toolchain/arm-11/src/newlib-cygwin/newlib/libm/math/kf_rem_pio2.c:139
 8007af6:	eef8 7ae7 	vcvt.f32.s32	s15, s15
/Volumes/data/jenkins/workspace/GNU-toolchain/arm-11/src/newlib-cygwin/newlib/libm/math/kf_rem_pio2.c:140
 8007afa:	f1b8 0f00 	cmp.w	r8, #0
/Volumes/data/jenkins/workspace/GNU-toolchain/arm-11/src/newlib-cygwin/newlib/libm/math/kf_rem_pio2.c:139
 8007afe:	f10b 0b04 	add.w	fp, fp, #4
 8007b02:	edc1 7a00 	vstr	s15, [r1]
 8007b06:	460a      	mov	r2, r1
 8007b08:	f101 0104 	add.w	r1, r1, #4
/Volumes/data/jenkins/workspace/GNU-toolchain/arm-11/src/newlib-cygwin/newlib/libm/math/kf_rem_pio2.c:140
 8007b0c:	db09      	blt.n	8007b22 <__kernel_rem_pio2f+0x22e>
 8007b0e:	4653      	mov	r3, sl
 8007b10:	e001      	b.n	8007b16 <__kernel_rem_pio2f+0x222>
 8007b12:	ed72 7a01 	vldmdb	r2!, {s15}
/Volumes/data/jenkins/workspace/GNU-toolchain/arm-11/src/newlib-cygwin/newlib/libm/math/kf_rem_pio2.c:140 (discriminator 3)
 8007b16:	ecf3 6a01 	vldmia	r3!, {s13}
 8007b1a:	42a3      	cmp	r3, r4
 8007b1c:	eea6 7aa7 	vfma.f32	s14, s13, s15
 8007b20:	d1f7      	bne.n	8007b12 <__kernel_rem_pio2f+0x21e>
/Volumes/data/jenkins/workspace/GNU-toolchain/arm-11/src/newlib-cygwin/newlib/libm/math/kf_rem_pio2.c:138 (discriminator 2)
 8007b22:	f10e 0e01 	add.w	lr, lr, #1
 8007b26:	45e6      	cmp	lr, ip
/Volumes/data/jenkins/workspace/GNU-toolchain/arm-11/src/newlib-cygwin/newlib/libm/math/kf_rem_pio2.c:141 (discriminator 2)
 8007b28:	eca5 7a01 	vstmia	r5!, {s14}
/Volumes/data/jenkins/workspace/GNU-toolchain/arm-11/src/newlib-cygwin/newlib/libm/math/kf_rem_pio2.c:138 (discriminator 2)
 8007b2c:	dddf      	ble.n	8007aee <__kernel_rem_pio2f+0x1fa>
 8007b2e:	4665      	mov	r5, ip
 8007b30:	e750      	b.n	80079d4 <__kernel_rem_pio2f+0xe0>
/Volumes/data/jenkins/workspace/GNU-toolchain/arm-11/src/newlib-cygwin/newlib/libm/math/kf_rem_pio2.c:104
 8007b32:	f040 809b 	bne.w	8007c6c <__kernel_rem_pio2f+0x378>
/Volumes/data/jenkins/workspace/GNU-toolchain/arm-11/src/newlib-cygwin/newlib/libm/math/kf_rem_pio2.c:104 (discriminator 1)
 8007b36:	1e6b      	subs	r3, r5, #1
 8007b38:	f857 3023 	ldr.w	r3, [r7, r3, lsl #2]
 8007b3c:	11db      	asrs	r3, r3, #7
/Volumes/data/jenkins/workspace/GNU-toolchain/arm-11/src/newlib-cygwin/newlib/libm/math/kf_rem_pio2.c:107 (discriminator 1)
 8007b3e:	2b00      	cmp	r3, #0
 8007b40:	dd97      	ble.n	8007a72 <__kernel_rem_pio2f+0x17e>
/Volumes/data/jenkins/workspace/GNU-toolchain/arm-11/src/newlib-cygwin/newlib/libm/math/kf_rem_pio2.c:108
 8007b42:	ee19 2a90 	vmov	r2, s19
/Volumes/data/jenkins/workspace/GNU-toolchain/arm-11/src/newlib-cygwin/newlib/libm/math/kf_rem_pio2.c:109
 8007b46:	2d00      	cmp	r5, #0
/Volumes/data/jenkins/workspace/GNU-toolchain/arm-11/src/newlib-cygwin/newlib/libm/math/kf_rem_pio2.c:108
 8007b48:	f102 0201 	add.w	r2, r2, #1
 8007b4c:	ee09 2a90 	vmov	s19, r2
/Volumes/data/jenkins/workspace/GNU-toolchain/arm-11/src/newlib-cygwin/newlib/libm/math/kf_rem_pio2.c:109
 8007b50:	f340 8191 	ble.w	8007e76 <__kernel_rem_pio2f+0x582>
/Volumes/data/jenkins/workspace/GNU-toolchain/arm-11/src/newlib-cygwin/newlib/libm/math/kf_rem_pio2.c:110
 8007b54:	6839      	ldr	r1, [r7, #0]
/Volumes/data/jenkins/workspace/GNU-toolchain/arm-11/src/newlib-cygwin/newlib/libm/math/kf_rem_pio2.c:112
 8007b56:	2900      	cmp	r1, #0
 8007b58:	d17e      	bne.n	8007c58 <__kernel_rem_pio2f+0x364>
/Volumes/data/jenkins/workspace/GNU-toolchain/arm-11/src/newlib-cygwin/newlib/libm/math/kf_rem_pio2.c:109
 8007b5a:	2d01      	cmp	r5, #1
 8007b5c:	d026      	beq.n	8007bac <__kernel_rem_pio2f+0x2b8>
 8007b5e:	463a      	mov	r2, r7
 8007b60:	f04f 0c01 	mov.w	ip, #1
/Volumes/data/jenkins/workspace/GNU-toolchain/arm-11/src/newlib-cygwin/newlib/libm/math/kf_rem_pio2.c:110
 8007b64:	f852 1f04 	ldr.w	r1, [r2, #4]!
/Volumes/data/jenkins/workspace/GNU-toolchain/arm-11/src/newlib-cygwin/newlib/libm/math/kf_rem_pio2.c:112
 8007b68:	2900      	cmp	r1, #0
 8007b6a:	d079      	beq.n	8007c60 <__kernel_rem_pio2f+0x36c>
/Volumes/data/jenkins/workspace/GNU-toolchain/arm-11/src/newlib-cygwin/newlib/libm/math/kf_rem_pio2.c:109
 8007b6c:	f10c 0201 	add.w	r2, ip, #1
/Volumes/data/jenkins/workspace/GNU-toolchain/arm-11/src/newlib-cygwin/newlib/libm/math/kf_rem_pio2.c:113
 8007b70:	f5c1 7180 	rsb	r1, r1, #256	; 0x100
/Volumes/data/jenkins/workspace/GNU-toolchain/arm-11/src/newlib-cygwin/newlib/libm/math/kf_rem_pio2.c:109
 8007b74:	4295      	cmp	r5, r2
/Volumes/data/jenkins/workspace/GNU-toolchain/arm-11/src/newlib-cygwin/newlib/libm/math/kf_rem_pio2.c:113
 8007b76:	f847 102c 	str.w	r1, [r7, ip, lsl #2]
/Volumes/data/jenkins/workspace/GNU-toolchain/arm-11/src/newlib-cygwin/newlib/libm/math/kf_rem_pio2.c:109
 8007b7a:	dd16      	ble.n	8007baa <__kernel_rem_pio2f+0x2b6>
/Volumes/data/jenkins/workspace/GNU-toolchain/arm-11/src/newlib-cygwin/newlib/libm/math/kf_rem_pio2.c:110
 8007b7c:	f857 1022 	ldr.w	r1, [r7, r2, lsl #2]
/Volumes/data/jenkins/workspace/GNU-toolchain/arm-11/src/newlib-cygwin/newlib/libm/math/kf_rem_pio2.c:111
 8007b80:	44bb      	add	fp, r7
 8007b82:	eb07 0282 	add.w	r2, r7, r2, lsl #2
 8007b86:	e00a      	b.n	8007b9e <__kernel_rem_pio2f+0x2aa>
 8007b88:	08008fc4 	.word	0x08008fc4
 8007b8c:	00000000 	.word	0x00000000
 8007b90:	43800000 	.word	0x43800000
 8007b94:	3b800000 	.word	0x3b800000
 8007b98:	3fc90000 	.word	0x3fc90000
/Volumes/data/jenkins/workspace/GNU-toolchain/arm-11/src/newlib-cygwin/newlib/libm/math/kf_rem_pio2.c:110
 8007b9c:	6811      	ldr	r1, [r2, #0]
/Volumes/data/jenkins/workspace/GNU-toolchain/arm-11/src/newlib-cygwin/newlib/libm/math/kf_rem_pio2.c:115
 8007b9e:	f1c1 01ff 	rsb	r1, r1, #255	; 0xff
 8007ba2:	f842 1b04 	str.w	r1, [r2], #4
/Volumes/data/jenkins/workspace/GNU-toolchain/arm-11/src/newlib-cygwin/newlib/libm/math/kf_rem_pio2.c:109
 8007ba6:	455a      	cmp	r2, fp
 8007ba8:	d1f8      	bne.n	8007b9c <__kernel_rem_pio2f+0x2a8>
 8007baa:	2101      	movs	r1, #1
/Volumes/data/jenkins/workspace/GNU-toolchain/arm-11/src/newlib-cygwin/newlib/libm/math/kf_rem_pio2.c:117
 8007bac:	2800      	cmp	r0, #0
 8007bae:	dd0c      	ble.n	8007bca <__kernel_rem_pio2f+0x2d6>
/Volumes/data/jenkins/workspace/GNU-toolchain/arm-11/src/newlib-cygwin/newlib/libm/math/kf_rem_pio2.c:118
 8007bb0:	2801      	cmp	r0, #1
 8007bb2:	f000 8141 	beq.w	8007e38 <__kernel_rem_pio2f+0x544>
 8007bb6:	2802      	cmp	r0, #2
 8007bb8:	d107      	bne.n	8007bca <__kernel_rem_pio2f+0x2d6>
/Volumes/data/jenkins/workspace/GNU-toolchain/arm-11/src/newlib-cygwin/newlib/libm/math/kf_rem_pio2.c:122
 8007bba:	f105 3cff 	add.w	ip, r5, #4294967295	; 0xffffffff
 8007bbe:	f857 202c 	ldr.w	r2, [r7, ip, lsl #2]
 8007bc2:	f002 023f 	and.w	r2, r2, #63	; 0x3f
 8007bc6:	f847 202c 	str.w	r2, [r7, ip, lsl #2]
/Volumes/data/jenkins/workspace/GNU-toolchain/arm-11/src/newlib-cygwin/newlib/libm/math/kf_rem_pio2.c:125
 8007bca:	2b02      	cmp	r3, #2
 8007bcc:	f47f af51 	bne.w	8007a72 <__kernel_rem_pio2f+0x17e>
/Volumes/data/jenkins/workspace/GNU-toolchain/arm-11/src/newlib-cygwin/newlib/libm/math/kf_rem_pio2.c:126
 8007bd0:	eeb7 0a00 	vmov.f32	s0, #112	; 0x3f800000  1.0
 8007bd4:	ee30 8a48 	vsub.f32	s16, s0, s16
/Volumes/data/jenkins/workspace/GNU-toolchain/arm-11/src/newlib-cygwin/newlib/libm/math/kf_rem_pio2.c:127
 8007bd8:	2900      	cmp	r1, #0
 8007bda:	f43f af4a 	beq.w	8007a72 <__kernel_rem_pio2f+0x17e>
/Volumes/data/jenkins/workspace/GNU-toolchain/arm-11/src/newlib-cygwin/newlib/libm/math/kf_rem_pio2.c:127 (discriminator 1)
 8007bde:	9309      	str	r3, [sp, #36]	; 0x24
 8007be0:	9001      	str	r0, [sp, #4]
 8007be2:	f000 f9fb 	bl	8007fdc <scalbnf>
 8007be6:	ee38 8a40 	vsub.f32	s16, s16, s0
 8007bea:	9b09      	ldr	r3, [sp, #36]	; 0x24
 8007bec:	9801      	ldr	r0, [sp, #4]
/Volumes/data/jenkins/workspace/GNU-toolchain/arm-11/src/newlib-cygwin/newlib/libm/math/kf_rem_pio2.c:132 (discriminator 1)
 8007bee:	eeb5 8a40 	vcmp.f32	s16, #0.0
 8007bf2:	eef1 fa10 	vmrs	APSR_nzcv, fpscr
 8007bf6:	f43f af42 	beq.w	8007a7e <__kernel_rem_pio2f+0x18a>
/Volumes/data/jenkins/workspace/GNU-toolchain/arm-11/src/newlib-cygwin/newlib/libm/math/kf_rem_pio2.c:153
 8007bfa:	4698      	mov	r8, r3
 8007bfc:	e9dd 3207 	ldrd	r3, r2, [sp, #28]
 8007c00:	eeb0 0a48 	vmov.f32	s0, s16
 8007c04:	1a98      	subs	r0, r3, r2
 8007c06:	9501      	str	r5, [sp, #4]
 8007c08:	9d00      	ldr	r5, [sp, #0]
 8007c0a:	f000 f9e7 	bl	8007fdc <scalbnf>
/Volumes/data/jenkins/workspace/GNU-toolchain/arm-11/src/newlib-cygwin/newlib/libm/math/kf_rem_pio2.c:154
 8007c0e:	ed1f 7a20 	vldr	s14, [pc, #-128]	; 8007b90 <__kernel_rem_pio2f+0x29c>
 8007c12:	9b01      	ldr	r3, [sp, #4]
 8007c14:	eeb4 0ac7 	vcmpe.f32	s0, s14
 8007c18:	eef1 fa10 	vmrs	APSR_nzcv, fpscr
 8007c1c:	f2c0 8155 	blt.w	8007eca <__kernel_rem_pio2f+0x5d6>
/Volumes/data/jenkins/workspace/GNU-toolchain/arm-11/src/newlib-cygwin/newlib/libm/math/kf_rem_pio2.c:155
 8007c20:	ed5f 7a24 	vldr	s15, [pc, #-144]	; 8007b94 <__kernel_rem_pio2f+0x2a0>
/Volumes/data/jenkins/workspace/GNU-toolchain/arm-11/src/newlib-cygwin/newlib/libm/math/kf_rem_pio2.c:157
 8007c24:	9a05      	ldr	r2, [sp, #20]
/Volumes/data/jenkins/workspace/GNU-toolchain/arm-11/src/newlib-cygwin/newlib/libm/math/kf_rem_pio2.c:155
 8007c26:	ee60 7a27 	vmul.f32	s15, s0, s15
/Volumes/data/jenkins/workspace/GNU-toolchain/arm-11/src/newlib-cygwin/newlib/libm/math/kf_rem_pio2.c:157
 8007c2a:	3208      	adds	r2, #8
/Volumes/data/jenkins/workspace/GNU-toolchain/arm-11/src/newlib-cygwin/newlib/libm/math/kf_rem_pio2.c:155
 8007c2c:	eefd 7ae7 	vcvt.s32.f32	s15, s15
/Volumes/data/jenkins/workspace/GNU-toolchain/arm-11/src/newlib-cygwin/newlib/libm/math/kf_rem_pio2.c:157
 8007c30:	9205      	str	r2, [sp, #20]
/Volumes/data/jenkins/workspace/GNU-toolchain/arm-11/src/newlib-cygwin/newlib/libm/math/kf_rem_pio2.c:155
 8007c32:	eef8 7ae7 	vcvt.f32.s32	s15, s15
/Volumes/data/jenkins/workspace/GNU-toolchain/arm-11/src/newlib-cygwin/newlib/libm/math/kf_rem_pio2.c:157
 8007c36:	f103 0b01 	add.w	fp, r3, #1
/Volumes/data/jenkins/workspace/GNU-toolchain/arm-11/src/newlib-cygwin/newlib/libm/math/kf_rem_pio2.c:156
 8007c3a:	eea7 0ac7 	vfms.f32	s0, s15, s14
/Volumes/data/jenkins/workspace/GNU-toolchain/arm-11/src/newlib-cygwin/newlib/libm/math/kf_rem_pio2.c:158
 8007c3e:	eefd 7ae7 	vcvt.s32.f32	s15, s15
/Volumes/data/jenkins/workspace/GNU-toolchain/arm-11/src/newlib-cygwin/newlib/libm/math/kf_rem_pio2.c:156
 8007c42:	eebd 0ac0 	vcvt.s32.f32	s0, s0
 8007c46:	ee10 2a10 	vmov	r2, s0
 8007c4a:	f847 2023 	str.w	r2, [r7, r3, lsl #2]
/Volumes/data/jenkins/workspace/GNU-toolchain/arm-11/src/newlib-cygwin/newlib/libm/math/kf_rem_pio2.c:158
 8007c4e:	ee17 3a90 	vmov	r3, s15
 8007c52:	f847 302b 	str.w	r3, [r7, fp, lsl #2]
 8007c56:	e02b      	b.n	8007cb0 <__kernel_rem_pio2f+0x3bc>
/Volumes/data/jenkins/workspace/GNU-toolchain/arm-11/src/newlib-cygwin/newlib/libm/math/kf_rem_pio2.c:112
 8007c58:	2201      	movs	r2, #1
 8007c5a:	f04f 0c00 	mov.w	ip, #0
 8007c5e:	e787      	b.n	8007b70 <__kernel_rem_pio2f+0x27c>
/Volumes/data/jenkins/workspace/GNU-toolchain/arm-11/src/newlib-cygwin/newlib/libm/math/kf_rem_pio2.c:109
 8007c60:	f10c 0c01 	add.w	ip, ip, #1
 8007c64:	45ac      	cmp	ip, r5
 8007c66:	f47f af7d 	bne.w	8007b64 <__kernel_rem_pio2f+0x270>
 8007c6a:	e79f      	b.n	8007bac <__kernel_rem_pio2f+0x2b8>
/Volumes/data/jenkins/workspace/GNU-toolchain/arm-11/src/newlib-cygwin/newlib/libm/math/kf_rem_pio2.c:105
 8007c6c:	eef6 7a00 	vmov.f32	s15, #96	; 0x3f000000  0.5
 8007c70:	eeb4 8ae7 	vcmpe.f32	s16, s15
 8007c74:	eef1 fa10 	vmrs	APSR_nzcv, fpscr
 8007c78:	f280 80ec 	bge.w	8007e54 <__kernel_rem_pio2f+0x560>
/Volumes/data/jenkins/workspace/GNU-toolchain/arm-11/src/newlib-cygwin/newlib/libm/math/kf_rem_pio2.c:98
 8007c7c:	2300      	movs	r3, #0
 8007c7e:	e6f8      	b.n	8007a72 <__kernel_rem_pio2f+0x17e>
/Volumes/data/jenkins/workspace/GNU-toolchain/arm-11/src/newlib-cygwin/newlib/libm/math/kf_rem_pio2.c:138
 8007c80:	1c6b      	adds	r3, r5, #1
 8007c82:	469e      	mov	lr, r3
 8007c84:	469c      	mov	ip, r3
 8007c86:	e721      	b.n	8007acc <__kernel_rem_pio2f+0x1d8>
/Volumes/data/jenkins/workspace/GNU-toolchain/arm-11/src/newlib-cygwin/newlib/libm/math/kf_rem_pio2.c:150
 8007c88:	9b05      	ldr	r3, [sp, #20]
 8007c8a:	9d00      	ldr	r5, [sp, #0]
 8007c8c:	f1a3 0208 	sub.w	r2, r3, #8
/Volumes/data/jenkins/workspace/GNU-toolchain/arm-11/src/newlib-cygwin/newlib/libm/math/kf_rem_pio2.c:151
 8007c90:	f857 302b 	ldr.w	r3, [r7, fp, lsl #2]
/Volumes/data/jenkins/workspace/GNU-toolchain/arm-11/src/newlib-cygwin/newlib/libm/math/kf_rem_pio2.c:150
 8007c94:	9205      	str	r2, [sp, #20]
 8007c96:	46f0      	mov	r8, lr
/Volumes/data/jenkins/workspace/GNU-toolchain/arm-11/src/newlib-cygwin/newlib/libm/math/kf_rem_pio2.c:151
 8007c98:	b953      	cbnz	r3, 8007cb0 <__kernel_rem_pio2f+0x3bc>
 8007c9a:	f1ac 0304 	sub.w	r3, ip, #4
 8007c9e:	443b      	add	r3, r7
/Volumes/data/jenkins/workspace/GNU-toolchain/arm-11/src/newlib-cygwin/newlib/libm/math/kf_rem_pio2.c:151 (discriminator 2)
 8007ca0:	f853 1d04 	ldr.w	r1, [r3, #-4]!
 8007ca4:	f10b 3bff 	add.w	fp, fp, #4294967295	; 0xffffffff
 8007ca8:	3a08      	subs	r2, #8
 8007caa:	2900      	cmp	r1, #0
 8007cac:	d0f8      	beq.n	8007ca0 <__kernel_rem_pio2f+0x3ac>
 8007cae:	9205      	str	r2, [sp, #20]
/Volumes/data/jenkins/workspace/GNU-toolchain/arm-11/src/newlib-cygwin/newlib/libm/math/kf_rem_pio2.c:163
 8007cb0:	9805      	ldr	r0, [sp, #20]
 8007cb2:	eeb7 0a00 	vmov.f32	s0, #112	; 0x3f800000  1.0
 8007cb6:	f000 f991 	bl	8007fdc <scalbnf>
/Volumes/data/jenkins/workspace/GNU-toolchain/arm-11/src/newlib-cygwin/newlib/libm/math/kf_rem_pio2.c:164
 8007cba:	f1bb 0f00 	cmp.w	fp, #0
 8007cbe:	f2c0 8129 	blt.w	8007f14 <__kernel_rem_pio2f+0x620>
 8007cc2:	f10b 0601 	add.w	r6, fp, #1
 8007cc6:	aa46      	add	r2, sp, #280	; 0x118
/Volumes/data/jenkins/workspace/GNU-toolchain/arm-11/src/newlib-cygwin/newlib/libm/math/kf_rem_pio2.c:165
 8007cc8:	ed1f 7a4e 	vldr	s14, [pc, #-312]	; 8007b94 <__kernel_rem_pio2f+0x2a0>
 8007ccc:	ea4f 0c86 	mov.w	ip, r6, lsl #2
 8007cd0:	eb07 0386 	add.w	r3, r7, r6, lsl #2
 8007cd4:	eb02 0286 	add.w	r2, r2, r6, lsl #2
/Volumes/data/jenkins/workspace/GNU-toolchain/arm-11/src/newlib-cygwin/newlib/libm/math/kf_rem_pio2.c:165 (discriminator 3)
 8007cd8:	ed73 7a01 	vldmdb	r3!, {s15}
 8007cdc:	eef8 7ae7 	vcvt.f32.s32	s15, s15
/Volumes/data/jenkins/workspace/GNU-toolchain/arm-11/src/newlib-cygwin/newlib/libm/math/kf_rem_pio2.c:164 (discriminator 3)
 8007ce0:	42bb      	cmp	r3, r7
/Volumes/data/jenkins/workspace/GNU-toolchain/arm-11/src/newlib-cygwin/newlib/libm/math/kf_rem_pio2.c:165 (discriminator 3)
 8007ce2:	ee67 7a80 	vmul.f32	s15, s15, s0
 8007ce6:	ee20 0a07 	vmul.f32	s0, s0, s14
 8007cea:	ed62 7a01 	vstmdb	r2!, {s15}
/Volumes/data/jenkins/workspace/GNU-toolchain/arm-11/src/newlib-cygwin/newlib/libm/math/kf_rem_pio2.c:164 (discriminator 3)
 8007cee:	d1f3      	bne.n	8007cd8 <__kernel_rem_pio2f+0x3e4>
 8007cf0:	f1ac 0304 	sub.w	r3, ip, #4
 8007cf4:	aa46      	add	r2, sp, #280	; 0x118
/Volumes/data/jenkins/workspace/GNU-toolchain/arm-11/src/newlib-cygwin/newlib/libm/math/kf_rem_pio2.c:170
 8007cf6:	2d00      	cmp	r5, #0
 8007cf8:	ed1f 6a59 	vldr	s12, [pc, #-356]	; 8007b98 <__kernel_rem_pio2f+0x2a4>
 8007cfc:	eb02 0403 	add.w	r4, r2, r3
/Volumes/data/jenkins/workspace/GNU-toolchain/arm-11/src/newlib-cygwin/newlib/libm/math/kf_rem_pio2.c:164
 8007d00:	f04f 0000 	mov.w	r0, #0
/Volumes/data/jenkins/workspace/GNU-toolchain/arm-11/src/newlib-cygwin/newlib/libm/math/kf_rem_pio2.c:170
 8007d04:	db22      	blt.n	8007d4c <__kernel_rem_pio2f+0x458>
 8007d06:	498f      	ldr	r1, [pc, #572]	; (8007f44 <__kernel_rem_pio2f+0x650>)
 8007d08:	eddf 7a8f 	vldr	s15, [pc, #572]	; 8007f48 <__kernel_rem_pio2f+0x654>
 8007d0c:	eeb0 7a46 	vmov.f32	s14, s12
 8007d10:	4622      	mov	r2, r4
 8007d12:	2300      	movs	r3, #0
 8007d14:	e003      	b.n	8007d1e <__kernel_rem_pio2f+0x42a>
/Volumes/data/jenkins/workspace/GNU-toolchain/arm-11/src/newlib-cygwin/newlib/libm/math/kf_rem_pio2.c:170 (discriminator 3)
 8007d16:	4298      	cmp	r0, r3
 8007d18:	db08      	blt.n	8007d2c <__kernel_rem_pio2f+0x438>
/Volumes/data/jenkins/workspace/GNU-toolchain/arm-11/src/newlib-cygwin/newlib/libm/math/kf_rem_pio2.c:170
 8007d1a:	ecb1 7a01 	vldmia	r1!, {s14}
/Volumes/data/jenkins/workspace/GNU-toolchain/arm-11/src/newlib-cygwin/newlib/libm/math/kf_rem_pio2.c:170 (discriminator 4)
 8007d1e:	ecf2 6a01 	vldmia	r2!, {s13}
 8007d22:	3301      	adds	r3, #1
 8007d24:	429d      	cmp	r5, r3
 8007d26:	eee6 7a87 	vfma.f32	s15, s13, s14
 8007d2a:	daf4      	bge.n	8007d16 <__kernel_rem_pio2f+0x422>
/Volumes/data/jenkins/workspace/GNU-toolchain/arm-11/src/newlib-cygwin/newlib/libm/math/kf_rem_pio2.c:171 (discriminator 2)
 8007d2c:	ab5a      	add	r3, sp, #360	; 0x168
 8007d2e:	eb03 0380 	add.w	r3, r3, r0, lsl #2
/Volumes/data/jenkins/workspace/GNU-toolchain/arm-11/src/newlib-cygwin/newlib/libm/math/kf_rem_pio2.c:169 (discriminator 2)
 8007d32:	4558      	cmp	r0, fp
/Volumes/data/jenkins/workspace/GNU-toolchain/arm-11/src/newlib-cygwin/newlib/libm/math/kf_rem_pio2.c:171 (discriminator 2)
 8007d34:	ed43 7a28 	vstr	s15, [r3, #-160]	; 0xffffff60
 8007d38:	ea4f 0180 	mov.w	r1, r0, lsl #2
/Volumes/data/jenkins/workspace/GNU-toolchain/arm-11/src/newlib-cygwin/newlib/libm/math/kf_rem_pio2.c:169 (discriminator 2)
 8007d3c:	f100 0201 	add.w	r2, r0, #1
 8007d40:	f1a4 0404 	sub.w	r4, r4, #4
 8007d44:	d005      	beq.n	8007d52 <__kernel_rem_pio2f+0x45e>
/Volumes/data/jenkins/workspace/GNU-toolchain/arm-11/src/newlib-cygwin/newlib/libm/math/kf_rem_pio2.c:170
 8007d46:	2d00      	cmp	r5, #0
 8007d48:	4610      	mov	r0, r2
 8007d4a:	dadc      	bge.n	8007d06 <__kernel_rem_pio2f+0x412>
 8007d4c:	eddf 7a7e 	vldr	s15, [pc, #504]	; 8007f48 <__kernel_rem_pio2f+0x654>
 8007d50:	e7ec      	b.n	8007d2c <__kernel_rem_pio2f+0x438>
/Volumes/data/jenkins/workspace/GNU-toolchain/arm-11/src/newlib-cygwin/newlib/libm/math/kf_rem_pio2.c:175
 8007d52:	9a68      	ldr	r2, [sp, #416]	; 0x1a0
 8007d54:	2a02      	cmp	r2, #2
 8007d56:	dc1d      	bgt.n	8007d94 <__kernel_rem_pio2f+0x4a0>
 8007d58:	2a00      	cmp	r2, #0
 8007d5a:	f300 808e 	bgt.w	8007e7a <__kernel_rem_pio2f+0x586>
 8007d5e:	d110      	bne.n	8007d82 <__kernel_rem_pio2f+0x48e>
 8007d60:	ab32      	add	r3, sp, #200	; 0xc8
 8007d62:	eddf 7a79 	vldr	s15, [pc, #484]	; 8007f48 <__kernel_rem_pio2f+0x654>
 8007d66:	449c      	add	ip, r3
/Volumes/data/jenkins/workspace/GNU-toolchain/arm-11/src/newlib-cygwin/newlib/libm/math/kf_rem_pio2.c:178 (discriminator 3)
 8007d68:	ed3c 7a01 	vldmdb	ip!, {s14}
 8007d6c:	4563      	cmp	r3, ip
 8007d6e:	ee77 7a87 	vadd.f32	s15, s15, s14
 8007d72:	d1f9      	bne.n	8007d68 <__kernel_rem_pio2f+0x474>
/Volumes/data/jenkins/workspace/GNU-toolchain/arm-11/src/newlib-cygwin/newlib/libm/math/kf_rem_pio2.c:179
 8007d74:	4643      	mov	r3, r8
 8007d76:	b10b      	cbz	r3, 8007d7c <__kernel_rem_pio2f+0x488>
/Volumes/data/jenkins/workspace/GNU-toolchain/arm-11/src/newlib-cygwin/newlib/libm/math/kf_rem_pio2.c:179 (discriminator 1)
 8007d78:	eef1 7a67 	vneg.f32	s15, s15
/Volumes/data/jenkins/workspace/GNU-toolchain/arm-11/src/newlib-cygwin/newlib/libm/math/kf_rem_pio2.c:179 (discriminator 4)
 8007d7c:	9b06      	ldr	r3, [sp, #24]
 8007d7e:	edc3 7a00 	vstr	s15, [r3]
/Volumes/data/jenkins/workspace/GNU-toolchain/arm-11/src/newlib-cygwin/newlib/libm/math/kf_rem_pio2.c:208
 8007d82:	ee19 3a90 	vmov	r3, s19
 8007d86:	f003 0007 	and.w	r0, r3, #7
/Volumes/data/jenkins/workspace/GNU-toolchain/arm-11/src/newlib-cygwin/newlib/libm/math/kf_rem_pio2.c:209
 8007d8a:	b05b      	add	sp, #364	; 0x16c
 8007d8c:	ecbd 8b04 	vpop	{d8-d9}
 8007d90:	e8bd 8ff0 	ldmia.w	sp!, {r4, r5, r6, r7, r8, r9, sl, fp, pc}
/Volumes/data/jenkins/workspace/GNU-toolchain/arm-11/src/newlib-cygwin/newlib/libm/math/kf_rem_pio2.c:175
 8007d94:	9a68      	ldr	r2, [sp, #416]	; 0x1a0
 8007d96:	2a03      	cmp	r2, #3
 8007d98:	d1f3      	bne.n	8007d82 <__kernel_rem_pio2f+0x48e>
/Volumes/data/jenkins/workspace/GNU-toolchain/arm-11/src/newlib-cygwin/newlib/libm/math/kf_rem_pio2.c:191
 8007d9a:	f1bb 0f00 	cmp.w	fp, #0
 8007d9e:	f000 80cb 	beq.w	8007f38 <__kernel_rem_pio2f+0x644>
 8007da2:	a832      	add	r0, sp, #200	; 0xc8
/Volumes/data/jenkins/workspace/GNU-toolchain/arm-11/src/newlib-cygwin/newlib/libm/math/kf_rem_pio2.c:192
 8007da4:	ed13 7a28 	vldr	s14, [r3, #-160]	; 0xffffff60
 8007da8:	eb00 028b 	add.w	r2, r0, fp, lsl #2
 8007dac:	f10b 4380 	add.w	r3, fp, #1073741824	; 0x40000000
/Volumes/data/jenkins/workspace/GNU-toolchain/arm-11/src/newlib-cygwin/newlib/libm/math/kf_rem_pio2.c:192 (discriminator 3)
 8007db0:	ed72 7a01 	vldmdb	r2!, {s15}
 8007db4:	eef0 6a47 	vmov.f32	s13, s14
 8007db8:	ee37 7a27 	vadd.f32	s14, s14, s15
/Volumes/data/jenkins/workspace/GNU-toolchain/arm-11/src/newlib-cygwin/newlib/libm/math/kf_rem_pio2.c:191 (discriminator 3)
 8007dbc:	4290      	cmp	r0, r2
/Volumes/data/jenkins/workspace/GNU-toolchain/arm-11/src/newlib-cygwin/newlib/libm/math/kf_rem_pio2.c:193 (discriminator 3)
 8007dbe:	ee77 7ac7 	vsub.f32	s15, s15, s14
/Volumes/data/jenkins/workspace/GNU-toolchain/arm-11/src/newlib-cygwin/newlib/libm/math/kf_rem_pio2.c:194 (discriminator 3)
 8007dc2:	ed82 7a00 	vstr	s14, [r2]
/Volumes/data/jenkins/workspace/GNU-toolchain/arm-11/src/newlib-cygwin/newlib/libm/math/kf_rem_pio2.c:193 (discriminator 3)
 8007dc6:	ee77 7aa6 	vadd.f32	s15, s15, s13
 8007dca:	edc2 7a01 	vstr	s15, [r2, #4]
/Volumes/data/jenkins/workspace/GNU-toolchain/arm-11/src/newlib-cygwin/newlib/libm/math/kf_rem_pio2.c:191 (discriminator 3)
 8007dce:	d1ef      	bne.n	8007db0 <__kernel_rem_pio2f+0x4bc>
/Volumes/data/jenkins/workspace/GNU-toolchain/arm-11/src/newlib-cygwin/newlib/libm/math/kf_rem_pio2.c:196
 8007dd0:	f1bb 0f01 	cmp.w	fp, #1
 8007dd4:	f340 80b0 	ble.w	8007f38 <__kernel_rem_pio2f+0x644>
/Volumes/data/jenkins/workspace/GNU-toolchain/arm-11/src/newlib-cygwin/newlib/libm/math/kf_rem_pio2.c:197
 8007dd8:	f501 72b4 	add.w	r2, r1, #360	; 0x168
 8007ddc:	eb0d 0102 	add.w	r1, sp, r2
 8007de0:	ed11 7a28 	vldr	s14, [r1, #-160]	; 0xffffff60
 8007de4:	009a      	lsls	r2, r3, #2
 8007de6:	a933      	add	r1, sp, #204	; 0xcc
 8007de8:	eb00 0383 	add.w	r3, r0, r3, lsl #2
/Volumes/data/jenkins/workspace/GNU-toolchain/arm-11/src/newlib-cygwin/newlib/libm/math/kf_rem_pio2.c:197 (discriminator 3)
 8007dec:	ed73 7a01 	vldmdb	r3!, {s15}
 8007df0:	eef0 6a47 	vmov.f32	s13, s14
 8007df4:	ee37 7a27 	vadd.f32	s14, s14, s15
/Volumes/data/jenkins/workspace/GNU-toolchain/arm-11/src/newlib-cygwin/newlib/libm/math/kf_rem_pio2.c:196 (discriminator 3)
 8007df8:	4299      	cmp	r1, r3
/Volumes/data/jenkins/workspace/GNU-toolchain/arm-11/src/newlib-cygwin/newlib/libm/math/kf_rem_pio2.c:198 (discriminator 3)
 8007dfa:	ee77 7ac7 	vsub.f32	s15, s15, s14
/Volumes/data/jenkins/workspace/GNU-toolchain/arm-11/src/newlib-cygwin/newlib/libm/math/kf_rem_pio2.c:199 (discriminator 3)
 8007dfe:	ed83 7a00 	vstr	s14, [r3]
/Volumes/data/jenkins/workspace/GNU-toolchain/arm-11/src/newlib-cygwin/newlib/libm/math/kf_rem_pio2.c:198 (discriminator 3)
 8007e02:	ee77 7aa6 	vadd.f32	s15, s15, s13
 8007e06:	edc3 7a01 	vstr	s15, [r3, #4]
/Volumes/data/jenkins/workspace/GNU-toolchain/arm-11/src/newlib-cygwin/newlib/libm/math/kf_rem_pio2.c:196 (discriminator 3)
 8007e0a:	d1ef      	bne.n	8007dec <__kernel_rem_pio2f+0x4f8>
 8007e0c:	1d13      	adds	r3, r2, #4
/Volumes/data/jenkins/workspace/GNU-toolchain/arm-11/src/newlib-cygwin/newlib/libm/math/kf_rem_pio2.c:196
 8007e0e:	eddf 7a4e 	vldr	s15, [pc, #312]	; 8007f48 <__kernel_rem_pio2f+0x654>
 8007e12:	4403      	add	r3, r0
 8007e14:	3008      	adds	r0, #8
/Volumes/data/jenkins/workspace/GNU-toolchain/arm-11/src/newlib-cygwin/newlib/libm/math/kf_rem_pio2.c:201 (discriminator 3)
 8007e16:	ed33 7a01 	vldmdb	r3!, {s14}
 8007e1a:	4298      	cmp	r0, r3
 8007e1c:	ee77 7a87 	vadd.f32	s15, s15, s14
 8007e20:	d1f9      	bne.n	8007e16 <__kernel_rem_pio2f+0x522>
/Volumes/data/jenkins/workspace/GNU-toolchain/arm-11/src/newlib-cygwin/newlib/libm/math/kf_rem_pio2.c:202
 8007e22:	4643      	mov	r3, r8
 8007e24:	2b00      	cmp	r3, #0
 8007e26:	d158      	bne.n	8007eda <__kernel_rem_pio2f+0x5e6>
/Volumes/data/jenkins/workspace/GNU-toolchain/arm-11/src/newlib-cygwin/newlib/libm/math/kf_rem_pio2.c:203
 8007e28:	9906      	ldr	r1, [sp, #24]
 8007e2a:	9a32      	ldr	r2, [sp, #200]	; 0xc8
 8007e2c:	9b33      	ldr	r3, [sp, #204]	; 0xcc
 8007e2e:	600a      	str	r2, [r1, #0]
 8007e30:	604b      	str	r3, [r1, #4]
 8007e32:	edc1 7a02 	vstr	s15, [r1, #8]
 8007e36:	e7a4      	b.n	8007d82 <__kernel_rem_pio2f+0x48e>
/Volumes/data/jenkins/workspace/GNU-toolchain/arm-11/src/newlib-cygwin/newlib/libm/math/kf_rem_pio2.c:120
 8007e38:	f105 3cff 	add.w	ip, r5, #4294967295	; 0xffffffff
 8007e3c:	f857 202c 	ldr.w	r2, [r7, ip, lsl #2]
 8007e40:	f002 027f 	and.w	r2, r2, #127	; 0x7f
 8007e44:	f847 202c 	str.w	r2, [r7, ip, lsl #2]
 8007e48:	e6bf      	b.n	8007bca <__kernel_rem_pio2f+0x2d6>
 8007e4a:	2308      	movs	r3, #8
 8007e4c:	9307      	str	r3, [sp, #28]
/Volumes/data/jenkins/workspace/GNU-toolchain/arm-11/src/newlib-cygwin/newlib/libm/math/kf_rem_pio2.c:71
 8007e4e:	2300      	movs	r3, #0
 8007e50:	9302      	str	r3, [sp, #8]
 8007e52:	e56a      	b.n	800792a <__kernel_rem_pio2f+0x36>
/Volumes/data/jenkins/workspace/GNU-toolchain/arm-11/src/newlib-cygwin/newlib/libm/math/kf_rem_pio2.c:108
 8007e54:	ee19 3a90 	vmov	r3, s19
/Volumes/data/jenkins/workspace/GNU-toolchain/arm-11/src/newlib-cygwin/newlib/libm/math/kf_rem_pio2.c:109
 8007e58:	2d00      	cmp	r5, #0
/Volumes/data/jenkins/workspace/GNU-toolchain/arm-11/src/newlib-cygwin/newlib/libm/math/kf_rem_pio2.c:108
 8007e5a:	f103 0301 	add.w	r3, r3, #1
 8007e5e:	ee09 3a90 	vmov	s19, r3
/Volumes/data/jenkins/workspace/GNU-toolchain/arm-11/src/newlib-cygwin/newlib/libm/math/kf_rem_pio2.c:105
 8007e62:	bfc8      	it	gt
 8007e64:	2302      	movgt	r3, #2
/Volumes/data/jenkins/workspace/GNU-toolchain/arm-11/src/newlib-cygwin/newlib/libm/math/kf_rem_pio2.c:109
 8007e66:	f73f ae75 	bgt.w	8007b54 <__kernel_rem_pio2f+0x260>
/Volumes/data/jenkins/workspace/GNU-toolchain/arm-11/src/newlib-cygwin/newlib/libm/math/kf_rem_pio2.c:126
 8007e6a:	eef7 7a00 	vmov.f32	s15, #112	; 0x3f800000  1.0
 8007e6e:	ee37 8ac8 	vsub.f32	s16, s15, s16
 8007e72:	2302      	movs	r3, #2
 8007e74:	e5fd      	b.n	8007a72 <__kernel_rem_pio2f+0x17e>
/Volumes/data/jenkins/workspace/GNU-toolchain/arm-11/src/newlib-cygwin/newlib/libm/math/kf_rem_pio2.c:108
 8007e76:	2100      	movs	r1, #0
 8007e78:	e698      	b.n	8007bac <__kernel_rem_pio2f+0x2b8>
/Volumes/data/jenkins/workspace/GNU-toolchain/arm-11/src/newlib-cygwin/newlib/libm/math/kf_rem_pio2.c:184
 8007e7a:	ab32      	add	r3, sp, #200	; 0xc8
/Volumes/data/jenkins/workspace/GNU-toolchain/arm-11/src/newlib-cygwin/newlib/libm/math/kf_rem_pio2.c:183
 8007e7c:	eddf 7a32 	vldr	s15, [pc, #200]	; 8007f48 <__kernel_rem_pio2f+0x654>
 8007e80:	eb03 0686 	add.w	r6, r3, r6, lsl #2
/Volumes/data/jenkins/workspace/GNU-toolchain/arm-11/src/newlib-cygwin/newlib/libm/math/kf_rem_pio2.c:184 (discriminator 3)
 8007e84:	ed36 7a01 	vldmdb	r6!, {s14}
 8007e88:	42b3      	cmp	r3, r6
 8007e8a:	ee77 7a87 	vadd.f32	s15, s15, s14
 8007e8e:	d1f9      	bne.n	8007e84 <__kernel_rem_pio2f+0x590>
/Volumes/data/jenkins/workspace/GNU-toolchain/arm-11/src/newlib-cygwin/newlib/libm/math/kf_rem_pio2.c:185
 8007e90:	4643      	mov	r3, r8
/Volumes/data/jenkins/workspace/GNU-toolchain/arm-11/src/newlib-cygwin/newlib/libm/math/kf_rem_pio2.c:186
 8007e92:	ed9d 7a32 	vldr	s14, [sp, #200]	; 0xc8
/Volumes/data/jenkins/workspace/GNU-toolchain/arm-11/src/newlib-cygwin/newlib/libm/math/kf_rem_pio2.c:185
 8007e96:	bb93      	cbnz	r3, 8007efe <__kernel_rem_pio2f+0x60a>
 8007e98:	9b06      	ldr	r3, [sp, #24]
/Volumes/data/jenkins/workspace/GNU-toolchain/arm-11/src/newlib-cygwin/newlib/libm/math/kf_rem_pio2.c:187
 8007e9a:	f1bb 0f00 	cmp.w	fp, #0
/Volumes/data/jenkins/workspace/GNU-toolchain/arm-11/src/newlib-cygwin/newlib/libm/math/kf_rem_pio2.c:185
 8007e9e:	edc3 7a00 	vstr	s15, [r3]
/Volumes/data/jenkins/workspace/GNU-toolchain/arm-11/src/newlib-cygwin/newlib/libm/math/kf_rem_pio2.c:186
 8007ea2:	ee77 7a67 	vsub.f32	s15, s14, s15
/Volumes/data/jenkins/workspace/GNU-toolchain/arm-11/src/newlib-cygwin/newlib/libm/math/kf_rem_pio2.c:187
 8007ea6:	dd0c      	ble.n	8007ec2 <__kernel_rem_pio2f+0x5ce>
 8007ea8:	aa33      	add	r2, sp, #204	; 0xcc
 8007eaa:	2301      	movs	r3, #1
/Volumes/data/jenkins/workspace/GNU-toolchain/arm-11/src/newlib-cygwin/newlib/libm/math/kf_rem_pio2.c:187 (discriminator 3)
 8007eac:	ecb2 7a01 	vldmia	r2!, {s14}
 8007eb0:	3301      	adds	r3, #1
 8007eb2:	459b      	cmp	fp, r3
 8007eb4:	ee77 7a87 	vadd.f32	s15, s15, s14
 8007eb8:	daf8      	bge.n	8007eac <__kernel_rem_pio2f+0x5b8>
/Volumes/data/jenkins/workspace/GNU-toolchain/arm-11/src/newlib-cygwin/newlib/libm/math/kf_rem_pio2.c:188
 8007eba:	4643      	mov	r3, r8
 8007ebc:	b10b      	cbz	r3, 8007ec2 <__kernel_rem_pio2f+0x5ce>
/Volumes/data/jenkins/workspace/GNU-toolchain/arm-11/src/newlib-cygwin/newlib/libm/math/kf_rem_pio2.c:188 (discriminator 1)
 8007ebe:	eef1 7a67 	vneg.f32	s15, s15
/Volumes/data/jenkins/workspace/GNU-toolchain/arm-11/src/newlib-cygwin/newlib/libm/math/kf_rem_pio2.c:188 (discriminator 4)
 8007ec2:	9b06      	ldr	r3, [sp, #24]
 8007ec4:	edc3 7a01 	vstr	s15, [r3, #4]
/Volumes/data/jenkins/workspace/GNU-toolchain/arm-11/src/newlib-cygwin/newlib/libm/math/kf_rem_pio2.c:189 (discriminator 4)
 8007ec8:	e75b      	b.n	8007d82 <__kernel_rem_pio2f+0x48e>
/Volumes/data/jenkins/workspace/GNU-toolchain/arm-11/src/newlib-cygwin/newlib/libm/math/kf_rem_pio2.c:159
 8007eca:	eebd 0ac0 	vcvt.s32.f32	s0, s0
 8007ece:	469b      	mov	fp, r3
 8007ed0:	ee10 2a10 	vmov	r2, s0
 8007ed4:	f847 2023 	str.w	r2, [r7, r3, lsl #2]
 8007ed8:	e6ea      	b.n	8007cb0 <__kernel_rem_pio2f+0x3bc>
/Volumes/data/jenkins/workspace/GNU-toolchain/arm-11/src/newlib-cygwin/newlib/libm/math/kf_rem_pio2.c:205
 8007eda:	eddd 6a32 	vldr	s13, [sp, #200]	; 0xc8
 8007ede:	ed9d 7a33 	vldr	s14, [sp, #204]	; 0xcc
 8007ee2:	9b06      	ldr	r3, [sp, #24]
 8007ee4:	eef1 6a66 	vneg.f32	s13, s13
 8007ee8:	eeb1 7a47 	vneg.f32	s14, s14
 8007eec:	eef1 7a67 	vneg.f32	s15, s15
 8007ef0:	edc3 6a00 	vstr	s13, [r3]
 8007ef4:	ed83 7a01 	vstr	s14, [r3, #4]
 8007ef8:	edc3 7a02 	vstr	s15, [r3, #8]
 8007efc:	e741      	b.n	8007d82 <__kernel_rem_pio2f+0x48e>
/Volumes/data/jenkins/workspace/GNU-toolchain/arm-11/src/newlib-cygwin/newlib/libm/math/kf_rem_pio2.c:185 (discriminator 1)
 8007efe:	9b06      	ldr	r3, [sp, #24]
 8007f00:	eef1 6a67 	vneg.f32	s13, s15
/Volumes/data/jenkins/workspace/GNU-toolchain/arm-11/src/newlib-cygwin/newlib/libm/math/kf_rem_pio2.c:187 (discriminator 1)
 8007f04:	f1bb 0f00 	cmp.w	fp, #0
/Volumes/data/jenkins/workspace/GNU-toolchain/arm-11/src/newlib-cygwin/newlib/libm/math/kf_rem_pio2.c:186 (discriminator 1)
 8007f08:	ee77 7a67 	vsub.f32	s15, s14, s15
/Volumes/data/jenkins/workspace/GNU-toolchain/arm-11/src/newlib-cygwin/newlib/libm/math/kf_rem_pio2.c:185 (discriminator 1)
 8007f0c:	edc3 6a00 	vstr	s13, [r3]
/Volumes/data/jenkins/workspace/GNU-toolchain/arm-11/src/newlib-cygwin/newlib/libm/math/kf_rem_pio2.c:187 (discriminator 1)
 8007f10:	dcca      	bgt.n	8007ea8 <__kernel_rem_pio2f+0x5b4>
 8007f12:	e7d4      	b.n	8007ebe <__kernel_rem_pio2f+0x5ca>
/Volumes/data/jenkins/workspace/GNU-toolchain/arm-11/src/newlib-cygwin/newlib/libm/math/kf_rem_pio2.c:175
 8007f14:	9b68      	ldr	r3, [sp, #416]	; 0x1a0
 8007f16:	2b02      	cmp	r3, #2
 8007f18:	dc0a      	bgt.n	8007f30 <__kernel_rem_pio2f+0x63c>
 8007f1a:	2b00      	cmp	r3, #0
 8007f1c:	dc0f      	bgt.n	8007f3e <__kernel_rem_pio2f+0x64a>
 8007f1e:	f47f af30 	bne.w	8007d82 <__kernel_rem_pio2f+0x48e>
 8007f22:	eddf 7a09 	vldr	s15, [pc, #36]	; 8007f48 <__kernel_rem_pio2f+0x654>
 8007f26:	e725      	b.n	8007d74 <__kernel_rem_pio2f+0x480>
 8007f28:	9b03      	ldr	r3, [sp, #12]
 8007f2a:	ea4f 0c83 	mov.w	ip, r3, lsl #2
 8007f2e:	e541      	b.n	80079b4 <__kernel_rem_pio2f+0xc0>
 8007f30:	9b68      	ldr	r3, [sp, #416]	; 0x1a0
 8007f32:	2b03      	cmp	r3, #3
 8007f34:	f47f af25 	bne.w	8007d82 <__kernel_rem_pio2f+0x48e>
/Volumes/data/jenkins/workspace/GNU-toolchain/arm-11/src/newlib-cygwin/newlib/libm/math/kf_rem_pio2.c:201
 8007f38:	eddf 7a03 	vldr	s15, [pc, #12]	; 8007f48 <__kernel_rem_pio2f+0x654>
 8007f3c:	e771      	b.n	8007e22 <__kernel_rem_pio2f+0x52e>
/Volumes/data/jenkins/workspace/GNU-toolchain/arm-11/src/newlib-cygwin/newlib/libm/math/kf_rem_pio2.c:183
 8007f3e:	eddf 7a02 	vldr	s15, [pc, #8]	; 8007f48 <__kernel_rem_pio2f+0x654>
 8007f42:	e7a5      	b.n	8007e90 <__kernel_rem_pio2f+0x59c>
 8007f44:	08008f9c 	.word	0x08008f9c
 8007f48:	00000000 	.word	0x00000000

08007f4c <floorf>:
floorf():
/Volumes/data/jenkins/workspace/GNU-toolchain/arm-11/src/newlib-cygwin/newlib/libm/machine/arm/../../math/sf_floor.c:42
 8007f4c:	ee10 2a10 	vmov	r2, s0
/Volumes/data/jenkins/workspace/GNU-toolchain/arm-11/src/newlib-cygwin/newlib/libm/machine/arm/../../math/sf_floor.c:44
 8007f50:	f3c2 53c7 	ubfx	r3, r2, #23, #8
 8007f54:	3b7f      	subs	r3, #127	; 0x7f
/Volumes/data/jenkins/workspace/GNU-toolchain/arm-11/src/newlib-cygwin/newlib/libm/machine/arm/../../math/sf_floor.c:45
 8007f56:	2b16      	cmp	r3, #22
/Volumes/data/jenkins/workspace/GNU-toolchain/arm-11/src/newlib-cygwin/newlib/libm/machine/arm/../../math/sf_floor.c:43
 8007f58:	f022 4100 	bic.w	r1, r2, #2147483648	; 0x80000000
/Volumes/data/jenkins/workspace/GNU-toolchain/arm-11/src/newlib-cygwin/newlib/libm/machine/arm/../../math/sf_floor.c:45
 8007f5c:	dc2a      	bgt.n	8007fb4 <floorf+0x68>
/Volumes/data/jenkins/workspace/GNU-toolchain/arm-11/src/newlib-cygwin/newlib/libm/machine/arm/../../math/sf_floor.c:46
 8007f5e:	2b00      	cmp	r3, #0
/Volumes/data/jenkins/workspace/GNU-toolchain/arm-11/src/newlib-cygwin/newlib/libm/machine/arm/../../math/sf_floor.c:42
 8007f60:	ee10 0a10 	vmov	r0, s0
/Volumes/data/jenkins/workspace/GNU-toolchain/arm-11/src/newlib-cygwin/newlib/libm/machine/arm/../../math/sf_floor.c:46
 8007f64:	db18      	blt.n	8007f98 <floorf+0x4c>
/Volumes/data/jenkins/workspace/GNU-toolchain/arm-11/src/newlib-cygwin/newlib/libm/machine/arm/../../math/sf_floor.c:53
 8007f66:	491a      	ldr	r1, [pc, #104]	; (8007fd0 <floorf+0x84>)
 8007f68:	4119      	asrs	r1, r3
/Volumes/data/jenkins/workspace/GNU-toolchain/arm-11/src/newlib-cygwin/newlib/libm/machine/arm/../../math/sf_floor.c:54
 8007f6a:	420a      	tst	r2, r1
 8007f6c:	d021      	beq.n	8007fb2 <floorf+0x66>
/Volumes/data/jenkins/workspace/GNU-toolchain/arm-11/src/newlib-cygwin/newlib/libm/machine/arm/../../math/sf_floor.c:55
 8007f6e:	eddf 7a19 	vldr	s15, [pc, #100]	; 8007fd4 <floorf+0x88>
 8007f72:	ee70 7a27 	vadd.f32	s15, s0, s15
 8007f76:	eef5 7ac0 	vcmpe.f32	s15, #0.0
 8007f7a:	eef1 fa10 	vmrs	APSR_nzcv, fpscr
 8007f7e:	dd18      	ble.n	8007fb2 <floorf+0x66>
/Volumes/data/jenkins/workspace/GNU-toolchain/arm-11/src/newlib-cygwin/newlib/libm/machine/arm/../../math/sf_floor.c:56
 8007f80:	2a00      	cmp	r2, #0
 8007f82:	da04      	bge.n	8007f8e <floorf+0x42>
/Volumes/data/jenkins/workspace/GNU-toolchain/arm-11/src/newlib-cygwin/newlib/libm/machine/arm/../../math/sf_floor.c:56 (discriminator 1)
 8007f84:	f44f 0200 	mov.w	r2, #8388608	; 0x800000
 8007f88:	fa42 f303 	asr.w	r3, r2, r3
 8007f8c:	4418      	add	r0, r3
/Volumes/data/jenkins/workspace/GNU-toolchain/arm-11/src/newlib-cygwin/newlib/libm/machine/arm/../../math/sf_floor.c:64
 8007f8e:	ea20 0301 	bic.w	r3, r0, r1
 8007f92:	ee00 3a10 	vmov	s0, r3
 8007f96:	4770      	bx	lr
/Volumes/data/jenkins/workspace/GNU-toolchain/arm-11/src/newlib-cygwin/newlib/libm/machine/arm/../../math/sf_floor.c:47
 8007f98:	eddf 7a0e 	vldr	s15, [pc, #56]	; 8007fd4 <floorf+0x88>
 8007f9c:	ee70 7a27 	vadd.f32	s15, s0, s15
 8007fa0:	eef5 7ac0 	vcmpe.f32	s15, #0.0
 8007fa4:	eef1 fa10 	vmrs	APSR_nzcv, fpscr
 8007fa8:	dd03      	ble.n	8007fb2 <floorf+0x66>
/Volumes/data/jenkins/workspace/GNU-toolchain/arm-11/src/newlib-cygwin/newlib/libm/machine/arm/../../math/sf_floor.c:48
 8007faa:	2a00      	cmp	r2, #0
 8007fac:	db08      	blt.n	8007fc0 <floorf+0x74>
 8007fae:	ed9f 0a0a 	vldr	s0, [pc, #40]	; 8007fd8 <floorf+0x8c>
/Volumes/data/jenkins/workspace/GNU-toolchain/arm-11/src/newlib-cygwin/newlib/libm/machine/arm/../../math/sf_floor.c:66
 8007fb2:	4770      	bx	lr
/Volumes/data/jenkins/workspace/GNU-toolchain/arm-11/src/newlib-cygwin/newlib/libm/machine/arm/../../math/sf_floor.c:61
 8007fb4:	f1b1 4fff 	cmp.w	r1, #2139095040	; 0x7f800000
 8007fb8:	d3fb      	bcc.n	8007fb2 <floorf+0x66>
/Volumes/data/jenkins/workspace/GNU-toolchain/arm-11/src/newlib-cygwin/newlib/libm/machine/arm/../../math/sf_floor.c:61 (discriminator 1)
 8007fba:	ee30 0a00 	vadd.f32	s0, s0, s0
 8007fbe:	4770      	bx	lr
/Volumes/data/jenkins/workspace/GNU-toolchain/arm-11/src/newlib-cygwin/newlib/libm/machine/arm/../../math/sf_floor.c:49
 8007fc0:	eeff 7a00 	vmov.f32	s15, #240	; 0xbf800000 -1.0
 8007fc4:	2900      	cmp	r1, #0
 8007fc6:	bf18      	it	ne
 8007fc8:	eeb0 0a67 	vmovne.f32	s0, s15
 8007fcc:	4770      	bx	lr
 8007fce:	bf00      	nop
 8007fd0:	007fffff 	.word	0x007fffff
 8007fd4:	7149f2ca 	.word	0x7149f2ca
 8007fd8:	00000000 	.word	0x00000000

08007fdc <scalbnf>:
scalbnf():
/Volumes/data/jenkins/workspace/GNU-toolchain/arm-11/src/newlib-cygwin/newlib/libm/common/sf_scalbn.c:42
 8007fdc:	ee10 3a10 	vmov	r3, s0
/Volumes/data/jenkins/workspace/GNU-toolchain/arm-11/src/newlib-cygwin/newlib/libm/common/sf_scalbn.c:49
 8007fe0:	f033 4100 	bics.w	r1, r3, #2147483648	; 0x80000000
/Volumes/data/jenkins/workspace/GNU-toolchain/arm-11/src/newlib-cygwin/newlib/libm/common/sf_scalbn.c:46
 8007fe4:	ee10 2a10 	vmov	r2, s0
/Volumes/data/jenkins/workspace/GNU-toolchain/arm-11/src/newlib-cygwin/newlib/libm/common/sf_scalbn.c:49
 8007fe8:	d028      	beq.n	800803c <scalbnf+0x60>
/Volumes/data/jenkins/workspace/GNU-toolchain/arm-11/src/newlib-cygwin/newlib/libm/common/sf_scalbn.c:51
 8007fea:	f1b1 4fff 	cmp.w	r1, #2139095040	; 0x7f800000
 8007fee:	d222      	bcs.n	8008036 <scalbnf+0x5a>
/Volumes/data/jenkins/workspace/GNU-toolchain/arm-11/src/newlib-cygwin/newlib/libm/common/sf_scalbn.c:53
 8007ff0:	f013 4fff 	tst.w	r3, #2139095040	; 0x7f800000
 8007ff4:	d123      	bne.n	800803e <scalbnf+0x62>
/Volumes/data/jenkins/workspace/GNU-toolchain/arm-11/src/newlib-cygwin/newlib/libm/common/sf_scalbn.c:54
 8007ff6:	eddf 7a2c 	vldr	s15, [pc, #176]	; 80080a8 <scalbnf+0xcc>
/Volumes/data/jenkins/workspace/GNU-toolchain/arm-11/src/newlib-cygwin/newlib/libm/common/sf_scalbn.c:57
 8007ffa:	4a2c      	ldr	r2, [pc, #176]	; (80080ac <scalbnf+0xd0>)
/Volumes/data/jenkins/workspace/GNU-toolchain/arm-11/src/newlib-cygwin/newlib/libm/common/sf_scalbn.c:54
 8007ffc:	ee60 7a27 	vmul.f32	s15, s0, s15
/Volumes/data/jenkins/workspace/GNU-toolchain/arm-11/src/newlib-cygwin/newlib/libm/common/sf_scalbn.c:57
 8008000:	4290      	cmp	r0, r2
/Volumes/data/jenkins/workspace/GNU-toolchain/arm-11/src/newlib-cygwin/newlib/libm/common/sf_scalbn.c:54
 8008002:	ee17 3a90 	vmov	r3, s15
/Volumes/data/jenkins/workspace/GNU-toolchain/arm-11/src/newlib-cygwin/newlib/libm/common/sf_scalbn.c:57
 8008006:	db34      	blt.n	8008072 <scalbnf+0x96>
/Volumes/data/jenkins/workspace/GNU-toolchain/arm-11/src/newlib-cygwin/newlib/libm/common/sf_scalbn.c:59
 8008008:	f24c 3c50 	movw	ip, #50000	; 0xc350
/Volumes/data/jenkins/workspace/GNU-toolchain/arm-11/src/newlib-cygwin/newlib/libm/common/sf_scalbn.c:56
 800800c:	f3c3 51c7 	ubfx	r1, r3, #23, #8
/Volumes/data/jenkins/workspace/GNU-toolchain/arm-11/src/newlib-cygwin/newlib/libm/common/sf_scalbn.c:59
 8008010:	4560      	cmp	r0, ip
/Volumes/data/jenkins/workspace/GNU-toolchain/arm-11/src/newlib-cygwin/newlib/libm/common/sf_scalbn.c:55
 8008012:	ee17 2a90 	vmov	r2, s15
/Volumes/data/jenkins/workspace/GNU-toolchain/arm-11/src/newlib-cygwin/newlib/libm/common/sf_scalbn.c:56
 8008016:	f1a1 0119 	sub.w	r1, r1, #25
/Volumes/data/jenkins/workspace/GNU-toolchain/arm-11/src/newlib-cygwin/newlib/libm/common/sf_scalbn.c:59
 800801a:	dd16      	ble.n	800804a <scalbnf+0x6e>
/Volumes/data/jenkins/workspace/GNU-toolchain/arm-11/src/newlib-cygwin/newlib/libm/common/sf_scalbn.c:62 (discriminator 1)
 800801c:	eddf 7a24 	vldr	s15, [pc, #144]	; 80080b0 <scalbnf+0xd4>
 8008020:	eddf 6a24 	vldr	s13, [pc, #144]	; 80080b4 <scalbnf+0xd8>
 8008024:	2b00      	cmp	r3, #0
 8008026:	eeb0 7a67 	vmov.f32	s14, s15
 800802a:	bfb8      	it	lt
 800802c:	eef0 7a66 	vmovlt.f32	s15, s13
 8008030:	ee27 0a87 	vmul.f32	s0, s15, s14
 8008034:	4770      	bx	lr
/Volumes/data/jenkins/workspace/GNU-toolchain/arm-11/src/newlib-cygwin/newlib/libm/common/sf_scalbn.c:52
 8008036:	ee30 0a00 	vadd.f32	s0, s0, s0
 800803a:	4770      	bx	lr
/Volumes/data/jenkins/workspace/GNU-toolchain/arm-11/src/newlib-cygwin/newlib/libm/common/sf_scalbn.c:70
 800803c:	4770      	bx	lr
/Volumes/data/jenkins/workspace/GNU-toolchain/arm-11/src/newlib-cygwin/newlib/libm/common/sf_scalbn.c:59
 800803e:	f24c 3c50 	movw	ip, #50000	; 0xc350
 8008042:	4560      	cmp	r0, ip
/Volumes/data/jenkins/workspace/GNU-toolchain/arm-11/src/newlib-cygwin/newlib/libm/common/sf_scalbn.c:48
 8008044:	ea4f 51d1 	mov.w	r1, r1, lsr #23
/Volumes/data/jenkins/workspace/GNU-toolchain/arm-11/src/newlib-cygwin/newlib/libm/common/sf_scalbn.c:59
 8008048:	dce8      	bgt.n	800801c <scalbnf+0x40>
/Volumes/data/jenkins/workspace/GNU-toolchain/arm-11/src/newlib-cygwin/newlib/libm/common/sf_scalbn.c:61
 800804a:	4401      	add	r1, r0
/Volumes/data/jenkins/workspace/GNU-toolchain/arm-11/src/newlib-cygwin/newlib/libm/common/sf_scalbn.c:62
 800804c:	29fe      	cmp	r1, #254	; 0xfe
 800804e:	dce5      	bgt.n	800801c <scalbnf+0x40>
/Volumes/data/jenkins/workspace/GNU-toolchain/arm-11/src/newlib-cygwin/newlib/libm/common/sf_scalbn.c:63
 8008050:	2900      	cmp	r1, #0
 8008052:	dc15      	bgt.n	8008080 <scalbnf+0xa4>
/Volumes/data/jenkins/workspace/GNU-toolchain/arm-11/src/newlib-cygwin/newlib/libm/common/sf_scalbn.c:65
 8008054:	f111 0f16 	cmn.w	r1, #22
 8008058:	db19      	blt.n	800808e <scalbnf+0xb2>
/Volumes/data/jenkins/workspace/GNU-toolchain/arm-11/src/newlib-cygwin/newlib/libm/common/sf_scalbn.c:67
 800805a:	3119      	adds	r1, #25
/Volumes/data/jenkins/workspace/GNU-toolchain/arm-11/src/newlib-cygwin/newlib/libm/common/sf_scalbn.c:68
 800805c:	f022 42ff 	bic.w	r2, r2, #2139095040	; 0x7f800000
 8008060:	ea42 52c1 	orr.w	r2, r2, r1, lsl #23
/Volumes/data/jenkins/workspace/GNU-toolchain/arm-11/src/newlib-cygwin/newlib/libm/common/sf_scalbn.c:69
 8008064:	ee07 2a90 	vmov	s15, r2
 8008068:	ed9f 0a13 	vldr	s0, [pc, #76]	; 80080b8 <scalbnf+0xdc>
 800806c:	ee27 0a80 	vmul.f32	s0, s15, s0
 8008070:	4770      	bx	lr
/Volumes/data/jenkins/workspace/GNU-toolchain/arm-11/src/newlib-cygwin/newlib/libm/common/sf_scalbn.c:57 (discriminator 1)
 8008072:	eddf 7a12 	vldr	s15, [pc, #72]	; 80080bc <scalbnf+0xe0>
 8008076:	ee07 3a10 	vmov	s14, r3
 800807a:	ee27 0a27 	vmul.f32	s0, s14, s15
 800807e:	4770      	bx	lr
/Volumes/data/jenkins/workspace/GNU-toolchain/arm-11/src/newlib-cygwin/newlib/libm/common/sf_scalbn.c:64
 8008080:	f022 42ff 	bic.w	r2, r2, #2139095040	; 0x7f800000
 8008084:	ea42 53c1 	orr.w	r3, r2, r1, lsl #23
 8008088:	ee00 3a10 	vmov	s0, r3
 800808c:	4770      	bx	lr
/Volumes/data/jenkins/workspace/GNU-toolchain/arm-11/src/newlib-cygwin/newlib/libm/common/sf_scalbn.c:66
 800808e:	eddf 7a0b 	vldr	s15, [pc, #44]	; 80080bc <scalbnf+0xe0>
 8008092:	eddf 6a0b 	vldr	s13, [pc, #44]	; 80080c0 <scalbnf+0xe4>
 8008096:	2b00      	cmp	r3, #0
 8008098:	eeb0 7a67 	vmov.f32	s14, s15
 800809c:	bfb8      	it	lt
 800809e:	eef0 7a66 	vmovlt.f32	s15, s13
 80080a2:	ee27 0a87 	vmul.f32	s0, s15, s14
 80080a6:	4770      	bx	lr
 80080a8:	4c000000 	.word	0x4c000000
 80080ac:	ffff3cb0 	.word	0xffff3cb0
 80080b0:	7149f2ca 	.word	0x7149f2ca
 80080b4:	f149f2ca 	.word	0xf149f2ca
 80080b8:	33000000 	.word	0x33000000
 80080bc:	0da24260 	.word	0x0da24260
 80080c0:	8da24260 	.word	0x8da24260

080080c4 <srand>:
srand():
/Volumes/data/jenkins/workspace/GNU-toolchain/arm-11/src/newlib-cygwin/newlib/libc/stdlib/rand.c:71
 80080c4:	4b02      	ldr	r3, [pc, #8]	; (80080d0 <srand+0xc>)
 80080c6:	681b      	ldr	r3, [r3, #0]
 80080c8:	2200      	movs	r2, #0
 80080ca:	e9c3 0226 	strd	r0, r2, [r3, #152]	; 0x98
/Volumes/data/jenkins/workspace/GNU-toolchain/arm-11/src/newlib-cygwin/newlib/libc/stdlib/rand.c:72
 80080ce:	4770      	bx	lr
 80080d0:	20000178 	.word	0x20000178

080080d4 <memset>:
memset():
/Volumes/data/jenkins/workspace/GNU-toolchain/arm-11/src/newlib-cygwin/newlib/libc/string/memset.c:51
 80080d4:	0783      	lsls	r3, r0, #30
/Volumes/data/jenkins/workspace/GNU-toolchain/arm-11/src/newlib-cygwin/newlib/libc/string/memset.c:41
 80080d6:	b530      	push	{r4, r5, lr}
/Volumes/data/jenkins/workspace/GNU-toolchain/arm-11/src/newlib-cygwin/newlib/libc/string/memset.c:51
 80080d8:	d048      	beq.n	800816c <memset+0x98>
/Volumes/data/jenkins/workspace/GNU-toolchain/arm-11/src/newlib-cygwin/newlib/libc/string/memset.c:53
 80080da:	1e54      	subs	r4, r2, #1
 80080dc:	2a00      	cmp	r2, #0
 80080de:	d03f      	beq.n	8008160 <memset+0x8c>
/Volumes/data/jenkins/workspace/GNU-toolchain/arm-11/src/newlib-cygwin/newlib/libc/string/memset.c:54
 80080e0:	b2ca      	uxtb	r2, r1
/Volumes/data/jenkins/workspace/GNU-toolchain/arm-11/src/newlib-cygwin/newlib/libc/string/memset.c:42
 80080e2:	4603      	mov	r3, r0
 80080e4:	e001      	b.n	80080ea <memset+0x16>
/Volumes/data/jenkins/workspace/GNU-toolchain/arm-11/src/newlib-cygwin/newlib/libc/string/memset.c:53
 80080e6:	3c01      	subs	r4, #1
 80080e8:	d33a      	bcc.n	8008160 <memset+0x8c>
/Volumes/data/jenkins/workspace/GNU-toolchain/arm-11/src/newlib-cygwin/newlib/libc/string/memset.c:54
 80080ea:	f803 2b01 	strb.w	r2, [r3], #1
/Volumes/data/jenkins/workspace/GNU-toolchain/arm-11/src/newlib-cygwin/newlib/libc/string/memset.c:51
 80080ee:	079d      	lsls	r5, r3, #30
 80080f0:	d1f9      	bne.n	80080e6 <memset+0x12>
/Volumes/data/jenkins/workspace/GNU-toolchain/arm-11/src/newlib-cygwin/newlib/libc/string/memset.c:59
 80080f2:	2c03      	cmp	r4, #3
 80080f4:	d92d      	bls.n	8008152 <memset+0x7e>
/Volumes/data/jenkins/workspace/GNU-toolchain/arm-11/src/newlib-cygwin/newlib/libc/string/memset.c:48
 80080f6:	b2cd      	uxtb	r5, r1
/Volumes/data/jenkins/workspace/GNU-toolchain/arm-11/src/newlib-cygwin/newlib/libc/string/memset.c:66
 80080f8:	ea45 2505 	orr.w	r5, r5, r5, lsl #8
/Volumes/data/jenkins/workspace/GNU-toolchain/arm-11/src/newlib-cygwin/newlib/libc/string/memset.c:72
 80080fc:	2c0f      	cmp	r4, #15
/Volumes/data/jenkins/workspace/GNU-toolchain/arm-11/src/newlib-cygwin/newlib/libc/string/memset.c:67
 80080fe:	ea45 4505 	orr.w	r5, r5, r5, lsl #16
/Volumes/data/jenkins/workspace/GNU-toolchain/arm-11/src/newlib-cygwin/newlib/libc/string/memset.c:72
 8008102:	d936      	bls.n	8008172 <memset+0x9e>
 8008104:	f1a4 0210 	sub.w	r2, r4, #16
 8008108:	f022 0c0f 	bic.w	ip, r2, #15
 800810c:	f103 0e20 	add.w	lr, r3, #32
 8008110:	44e6      	add	lr, ip
 8008112:	ea4f 1c12 	mov.w	ip, r2, lsr #4
 8008116:	f103 0210 	add.w	r2, r3, #16
/Volumes/data/jenkins/workspace/GNU-toolchain/arm-11/src/newlib-cygwin/newlib/libc/string/memset.c:75
 800811a:	e942 5504 	strd	r5, r5, [r2, #-16]
/Volumes/data/jenkins/workspace/GNU-toolchain/arm-11/src/newlib-cygwin/newlib/libc/string/memset.c:77
 800811e:	e942 5502 	strd	r5, r5, [r2, #-8]
/Volumes/data/jenkins/workspace/GNU-toolchain/arm-11/src/newlib-cygwin/newlib/libc/string/memset.c:72
 8008122:	3210      	adds	r2, #16
 8008124:	4572      	cmp	r2, lr
 8008126:	d1f8      	bne.n	800811a <memset+0x46>
/Volumes/data/jenkins/workspace/GNU-toolchain/arm-11/src/newlib-cygwin/newlib/libc/string/memset.c:77
 8008128:	f10c 0201 	add.w	r2, ip, #1
/Volumes/data/jenkins/workspace/GNU-toolchain/arm-11/src/newlib-cygwin/newlib/libc/string/memset.c:81
 800812c:	f014 0f0c 	tst.w	r4, #12
/Volumes/data/jenkins/workspace/GNU-toolchain/arm-11/src/newlib-cygwin/newlib/libc/string/memset.c:77
 8008130:	eb03 1202 	add.w	r2, r3, r2, lsl #4
/Volumes/data/jenkins/workspace/GNU-toolchain/arm-11/src/newlib-cygwin/newlib/libc/string/memset.c:78
 8008134:	f004 0c0f 	and.w	ip, r4, #15
/Volumes/data/jenkins/workspace/GNU-toolchain/arm-11/src/newlib-cygwin/newlib/libc/string/memset.c:81
 8008138:	d013      	beq.n	8008162 <memset+0x8e>
 800813a:	f1ac 0304 	sub.w	r3, ip, #4
 800813e:	f023 0303 	bic.w	r3, r3, #3
 8008142:	3304      	adds	r3, #4
 8008144:	4413      	add	r3, r2
/Volumes/data/jenkins/workspace/GNU-toolchain/arm-11/src/newlib-cygwin/newlib/libc/string/memset.c:83
 8008146:	f842 5b04 	str.w	r5, [r2], #4
/Volumes/data/jenkins/workspace/GNU-toolchain/arm-11/src/newlib-cygwin/newlib/libc/string/memset.c:81
 800814a:	4293      	cmp	r3, r2
 800814c:	d1fb      	bne.n	8008146 <memset+0x72>
/Volumes/data/jenkins/workspace/GNU-toolchain/arm-11/src/newlib-cygwin/newlib/libc/string/memset.c:84
 800814e:	f00c 0403 	and.w	r4, ip, #3
/Volumes/data/jenkins/workspace/GNU-toolchain/arm-11/src/newlib-cygwin/newlib/libc/string/memset.c:92
 8008152:	b12c      	cbz	r4, 8008160 <memset+0x8c>
/Volumes/data/jenkins/workspace/GNU-toolchain/arm-11/src/newlib-cygwin/newlib/libc/string/memset.c:54
 8008154:	b2c9      	uxtb	r1, r1
 8008156:	441c      	add	r4, r3
/Volumes/data/jenkins/workspace/GNU-toolchain/arm-11/src/newlib-cygwin/newlib/libc/string/memset.c:93
 8008158:	f803 1b01 	strb.w	r1, [r3], #1
/Volumes/data/jenkins/workspace/GNU-toolchain/arm-11/src/newlib-cygwin/newlib/libc/string/memset.c:92
 800815c:	429c      	cmp	r4, r3
 800815e:	d1fb      	bne.n	8008158 <memset+0x84>
/Volumes/data/jenkins/workspace/GNU-toolchain/arm-11/src/newlib-cygwin/newlib/libc/string/memset.c:96
 8008160:	bd30      	pop	{r4, r5, pc}
/Volumes/data/jenkins/workspace/GNU-toolchain/arm-11/src/newlib-cygwin/newlib/libc/string/memset.c:81
 8008162:	4664      	mov	r4, ip
/Volumes/data/jenkins/workspace/GNU-toolchain/arm-11/src/newlib-cygwin/newlib/libc/string/memset.c:77
 8008164:	4613      	mov	r3, r2
/Volumes/data/jenkins/workspace/GNU-toolchain/arm-11/src/newlib-cygwin/newlib/libc/string/memset.c:92
 8008166:	2c00      	cmp	r4, #0
 8008168:	d1f4      	bne.n	8008154 <memset+0x80>
 800816a:	e7f9      	b.n	8008160 <memset+0x8c>
/Volumes/data/jenkins/workspace/GNU-toolchain/arm-11/src/newlib-cygwin/newlib/libc/string/memset.c:42
 800816c:	4603      	mov	r3, r0
/Volumes/data/jenkins/workspace/GNU-toolchain/arm-11/src/newlib-cygwin/newlib/libc/string/memset.c:51
 800816e:	4614      	mov	r4, r2
 8008170:	e7bf      	b.n	80080f2 <memset+0x1e>
/Volumes/data/jenkins/workspace/GNU-toolchain/arm-11/src/newlib-cygwin/newlib/libc/string/memset.c:72
 8008172:	461a      	mov	r2, r3
 8008174:	46a4      	mov	ip, r4
 8008176:	e7e0      	b.n	800813a <memset+0x66>

08008178 <__libc_init_array>:
__libc_init_array():
/Volumes/data/jenkins/workspace/GNU-toolchain/arm-11/src/newlib-cygwin/newlib/libc/misc/init.c:31
 8008178:	b570      	push	{r4, r5, r6, lr}
/Volumes/data/jenkins/workspace/GNU-toolchain/arm-11/src/newlib-cygwin/newlib/libc/misc/init.c:35
 800817a:	4e0d      	ldr	r6, [pc, #52]	; (80081b0 <__libc_init_array+0x38>)
 800817c:	4d0d      	ldr	r5, [pc, #52]	; (80081b4 <__libc_init_array+0x3c>)
 800817e:	1b76      	subs	r6, r6, r5
/Volumes/data/jenkins/workspace/GNU-toolchain/arm-11/src/newlib-cygwin/newlib/libc/misc/init.c:36
 8008180:	10b6      	asrs	r6, r6, #2
 8008182:	d006      	beq.n	8008192 <__libc_init_array+0x1a>
 8008184:	2400      	movs	r4, #0
/Volumes/data/jenkins/workspace/GNU-toolchain/arm-11/src/newlib-cygwin/newlib/libc/misc/init.c:37 (discriminator 3)
 8008186:	f855 3b04 	ldr.w	r3, [r5], #4
/Volumes/data/jenkins/workspace/GNU-toolchain/arm-11/src/newlib-cygwin/newlib/libc/misc/init.c:36 (discriminator 3)
 800818a:	3401      	adds	r4, #1
/Volumes/data/jenkins/workspace/GNU-toolchain/arm-11/src/newlib-cygwin/newlib/libc/misc/init.c:37 (discriminator 3)
 800818c:	4798      	blx	r3
/Volumes/data/jenkins/workspace/GNU-toolchain/arm-11/src/newlib-cygwin/newlib/libc/misc/init.c:36 (discriminator 3)
 800818e:	42a6      	cmp	r6, r4
 8008190:	d1f9      	bne.n	8008186 <__libc_init_array+0xe>
/Volumes/data/jenkins/workspace/GNU-toolchain/arm-11/src/newlib-cygwin/newlib/libc/misc/init.c:43
 8008192:	4e09      	ldr	r6, [pc, #36]	; (80081b8 <__libc_init_array+0x40>)
 8008194:	4d09      	ldr	r5, [pc, #36]	; (80081bc <__libc_init_array+0x44>)
 8008196:	1b76      	subs	r6, r6, r5
/Volumes/data/jenkins/workspace/GNU-toolchain/arm-11/src/newlib-cygwin/newlib/libc/misc/init.c:40
 8008198:	f000 fd0e 	bl	8008bb8 <_init>
/Volumes/data/jenkins/workspace/GNU-toolchain/arm-11/src/newlib-cygwin/newlib/libc/misc/init.c:44
 800819c:	10b6      	asrs	r6, r6, #2
 800819e:	d006      	beq.n	80081ae <__libc_init_array+0x36>
 80081a0:	2400      	movs	r4, #0
/Volumes/data/jenkins/workspace/GNU-toolchain/arm-11/src/newlib-cygwin/newlib/libc/misc/init.c:45 (discriminator 3)
 80081a2:	f855 3b04 	ldr.w	r3, [r5], #4
/Volumes/data/jenkins/workspace/GNU-toolchain/arm-11/src/newlib-cygwin/newlib/libc/misc/init.c:44 (discriminator 3)
 80081a6:	3401      	adds	r4, #1
/Volumes/data/jenkins/workspace/GNU-toolchain/arm-11/src/newlib-cygwin/newlib/libc/misc/init.c:45 (discriminator 3)
 80081a8:	4798      	blx	r3
/Volumes/data/jenkins/workspace/GNU-toolchain/arm-11/src/newlib-cygwin/newlib/libc/misc/init.c:44 (discriminator 3)
 80081aa:	42a6      	cmp	r6, r4
 80081ac:	d1f9      	bne.n	80081a2 <__libc_init_array+0x2a>
/Volumes/data/jenkins/workspace/GNU-toolchain/arm-11/src/newlib-cygwin/newlib/libc/misc/init.c:46
 80081ae:	bd70      	pop	{r4, r5, r6, pc}
 80081b0:	08008fd0 	.word	0x08008fd0
 80081b4:	08008fd0 	.word	0x08008fd0
 80081b8:	08008fd8 	.word	0x08008fd8
 80081bc:	08008fd0 	.word	0x08008fd0

080081c0 <__retarget_lock_acquire_recursive>:
__retarget_lock_acquire_recursive():
 80081c0:	4770      	bx	lr
 80081c2:	bf00      	nop

080081c4 <__retarget_lock_release_recursive>:
__retarget_lock_release_recursive():
 80081c4:	4770      	bx	lr
 80081c6:	bf00      	nop

080081c8 <register_fini>:
register_fini():
/Volumes/data/jenkins/workspace/GNU-toolchain/arm-11/src/newlib-cygwin/newlib/libc/stdlib/__call_atexit.c:49
 80081c8:	4b02      	ldr	r3, [pc, #8]	; (80081d4 <register_fini+0xc>)
 80081ca:	b113      	cbz	r3, 80081d2 <register_fini+0xa>
/Volumes/data/jenkins/workspace/GNU-toolchain/arm-11/src/newlib-cygwin/newlib/libc/stdlib/__call_atexit.c:52
 80081cc:	4802      	ldr	r0, [pc, #8]	; (80081d8 <register_fini+0x10>)
 80081ce:	f000 b805 	b.w	80081dc <atexit>
/Volumes/data/jenkins/workspace/GNU-toolchain/arm-11/src/newlib-cygwin/newlib/libc/stdlib/__call_atexit.c:58
 80081d2:	4770      	bx	lr
 80081d4:	00000000 	.word	0x00000000
 80081d8:	08008785 	.word	0x08008785

080081dc <atexit>:
atexit():
/Volumes/data/jenkins/workspace/GNU-toolchain/arm-11/src/newlib-cygwin/newlib/libc/stdlib/atexit.c:58
 80081dc:	2300      	movs	r3, #0
/Volumes/data/jenkins/workspace/GNU-toolchain/arm-11/src/newlib-cygwin/newlib/libc/stdlib/atexit.c:57
 80081de:	4601      	mov	r1, r0
/Volumes/data/jenkins/workspace/GNU-toolchain/arm-11/src/newlib-cygwin/newlib/libc/stdlib/atexit.c:58
 80081e0:	461a      	mov	r2, r3
 80081e2:	4618      	mov	r0, r3
 80081e4:	f000 bae2 	b.w	80087ac <__register_exitproc>

080081e8 <_malloc_r>:
_malloc_r():
/Volumes/data/jenkins/workspace/GNU-toolchain/arm-11/src/newlib-cygwin/newlib/libc/stdlib/_mallocr.c:2336
 80081e8:	e92d 4ff0 	stmdb	sp!, {r4, r5, r6, r7, r8, r9, sl, fp, lr}
/Volumes/data/jenkins/workspace/GNU-toolchain/arm-11/src/newlib-cygwin/newlib/libc/stdlib/_mallocr.c:2356
 80081ec:	f101 060b 	add.w	r6, r1, #11
 80081f0:	2e16      	cmp	r6, #22
/Volumes/data/jenkins/workspace/GNU-toolchain/arm-11/src/newlib-cygwin/newlib/libc/stdlib/_mallocr.c:2336
 80081f2:	b083      	sub	sp, #12
 80081f4:	4604      	mov	r4, r0
/Volumes/data/jenkins/workspace/GNU-toolchain/arm-11/src/newlib-cygwin/newlib/libc/stdlib/_mallocr.c:2356
 80081f6:	d824      	bhi.n	8008242 <_malloc_r+0x5a>
/Volumes/data/jenkins/workspace/GNU-toolchain/arm-11/src/newlib-cygwin/newlib/libc/stdlib/_mallocr.c:2359
 80081f8:	2910      	cmp	r1, #16
 80081fa:	f200 80ba 	bhi.w	8008372 <_malloc_r+0x18a>
/Volumes/data/jenkins/workspace/GNU-toolchain/arm-11/src/newlib-cygwin/newlib/libc/stdlib/_mallocr.c:2365
 80081fe:	f000 faa3 	bl	8008748 <__malloc_lock>
 8008202:	2610      	movs	r6, #16
 8008204:	2218      	movs	r2, #24
 8008206:	2002      	movs	r0, #2
/Volumes/data/jenkins/workspace/GNU-toolchain/arm-11/src/newlib-cygwin/newlib/libc/stdlib/_mallocr.c:2375
 8008208:	4fb5      	ldr	r7, [pc, #724]	; (80084e0 <_malloc_r+0x2f8>)
 800820a:	443a      	add	r2, r7
 800820c:	f1a2 0108 	sub.w	r1, r2, #8
/Volumes/data/jenkins/workspace/GNU-toolchain/arm-11/src/newlib-cygwin/newlib/libc/stdlib/_mallocr.c:2376
 8008210:	6853      	ldr	r3, [r2, #4]
/Volumes/data/jenkins/workspace/GNU-toolchain/arm-11/src/newlib-cygwin/newlib/libc/stdlib/_mallocr.c:2380
 8008212:	428b      	cmp	r3, r1
 8008214:	f000 80ba 	beq.w	800838c <_malloc_r+0x1a4>
/Volumes/data/jenkins/workspace/GNU-toolchain/arm-11/src/newlib-cygwin/newlib/libc/stdlib/_mallocr.c:2388
 8008218:	685a      	ldr	r2, [r3, #4]
/Volumes/data/jenkins/workspace/GNU-toolchain/arm-11/src/newlib-cygwin/newlib/libc/stdlib/_mallocr.c:2389
 800821a:	68d9      	ldr	r1, [r3, #12]
/Volumes/data/jenkins/workspace/GNU-toolchain/arm-11/src/newlib-cygwin/newlib/libc/stdlib/_mallocr.c:2388
 800821c:	f022 0203 	bic.w	r2, r2, #3
/Volumes/data/jenkins/workspace/GNU-toolchain/arm-11/src/newlib-cygwin/newlib/libc/stdlib/_mallocr.c:2390
 8008220:	441a      	add	r2, r3
/Volumes/data/jenkins/workspace/GNU-toolchain/arm-11/src/newlib-cygwin/newlib/libc/stdlib/_mallocr.c:2417
 8008222:	689d      	ldr	r5, [r3, #8]
 8008224:	60e9      	str	r1, [r5, #12]
 8008226:	608d      	str	r5, [r1, #8]
/Volumes/data/jenkins/workspace/GNU-toolchain/arm-11/src/newlib-cygwin/newlib/libc/stdlib/_mallocr.c:2418
 8008228:	6851      	ldr	r1, [r2, #4]
 800822a:	f041 0101 	orr.w	r1, r1, #1
/Volumes/data/jenkins/workspace/GNU-toolchain/arm-11/src/newlib-cygwin/newlib/libc/stdlib/_mallocr.c:2420
 800822e:	4620      	mov	r0, r4
/Volumes/data/jenkins/workspace/GNU-toolchain/arm-11/src/newlib-cygwin/newlib/libc/stdlib/_mallocr.c:2418
 8008230:	6051      	str	r1, [r2, #4]
/Volumes/data/jenkins/workspace/GNU-toolchain/arm-11/src/newlib-cygwin/newlib/libc/stdlib/_mallocr.c:2421
 8008232:	f103 0508 	add.w	r5, r3, #8
/Volumes/data/jenkins/workspace/GNU-toolchain/arm-11/src/newlib-cygwin/newlib/libc/stdlib/_mallocr.c:2420
 8008236:	f000 fa8d 	bl	8008754 <__malloc_unlock>
/Volumes/data/jenkins/workspace/GNU-toolchain/arm-11/src/newlib-cygwin/newlib/libc/stdlib/_mallocr.c:2601
 800823a:	4628      	mov	r0, r5
 800823c:	b003      	add	sp, #12
 800823e:	e8bd 8ff0 	ldmia.w	sp!, {r4, r5, r6, r7, r8, r9, sl, fp, pc}
/Volumes/data/jenkins/workspace/GNU-toolchain/arm-11/src/newlib-cygwin/newlib/libc/stdlib/_mallocr.c:2359 (discriminator 1)
 8008242:	f036 0607 	bics.w	r6, r6, #7
 8008246:	f100 8094 	bmi.w	8008372 <_malloc_r+0x18a>
 800824a:	42b1      	cmp	r1, r6
 800824c:	f200 8091 	bhi.w	8008372 <_malloc_r+0x18a>
/Volumes/data/jenkins/workspace/GNU-toolchain/arm-11/src/newlib-cygwin/newlib/libc/stdlib/_mallocr.c:2365
 8008250:	f000 fa7a 	bl	8008748 <__malloc_lock>
/Volumes/data/jenkins/workspace/GNU-toolchain/arm-11/src/newlib-cygwin/newlib/libc/stdlib/_mallocr.c:2369
 8008254:	f5b6 7ffc 	cmp.w	r6, #504	; 0x1f8
 8008258:	f0c0 819a 	bcc.w	8008590 <_malloc_r+0x3a8>
/Volumes/data/jenkins/workspace/GNU-toolchain/arm-11/src/newlib-cygwin/newlib/libc/stdlib/_mallocr.c:2401
 800825c:	0a73      	lsrs	r3, r6, #9
 800825e:	f000 808f 	beq.w	8008380 <_malloc_r+0x198>
/Volumes/data/jenkins/workspace/GNU-toolchain/arm-11/src/newlib-cygwin/newlib/libc/stdlib/_mallocr.c:2401 (discriminator 2)
 8008262:	2b04      	cmp	r3, #4
 8008264:	f200 816f 	bhi.w	8008546 <_malloc_r+0x35e>
/Volumes/data/jenkins/workspace/GNU-toolchain/arm-11/src/newlib-cygwin/newlib/libc/stdlib/_mallocr.c:2401 (discriminator 4)
 8008268:	09b3      	lsrs	r3, r6, #6
/Volumes/data/jenkins/workspace/GNU-toolchain/arm-11/src/newlib-cygwin/newlib/libc/stdlib/_mallocr.c:2402 (discriminator 4)
 800826a:	f103 0039 	add.w	r0, r3, #57	; 0x39
/Volumes/data/jenkins/workspace/GNU-toolchain/arm-11/src/newlib-cygwin/newlib/libc/stdlib/_mallocr.c:2401 (discriminator 4)
 800826e:	f103 0c38 	add.w	ip, r3, #56	; 0x38
 8008272:	00c3      	lsls	r3, r0, #3
/Volumes/data/jenkins/workspace/GNU-toolchain/arm-11/src/newlib-cygwin/newlib/libc/stdlib/_mallocr.c:2402 (discriminator 24)
 8008274:	4f9a      	ldr	r7, [pc, #616]	; (80084e0 <_malloc_r+0x2f8>)
 8008276:	443b      	add	r3, r7
 8008278:	f1a3 0508 	sub.w	r5, r3, #8
/Volumes/data/jenkins/workspace/GNU-toolchain/arm-11/src/newlib-cygwin/newlib/libc/stdlib/_mallocr.c:2404 (discriminator 24)
 800827c:	685b      	ldr	r3, [r3, #4]
 800827e:	429d      	cmp	r5, r3
 8008280:	d106      	bne.n	8008290 <_malloc_r+0xa8>
 8008282:	e00c      	b.n	800829e <_malloc_r+0xb6>
/Volumes/data/jenkins/workspace/GNU-toolchain/arm-11/src/newlib-cygwin/newlib/libc/stdlib/_mallocr.c:2415
 8008284:	2900      	cmp	r1, #0
 8008286:	f280 8127 	bge.w	80084d8 <_malloc_r+0x2f0>
/Volumes/data/jenkins/workspace/GNU-toolchain/arm-11/src/newlib-cygwin/newlib/libc/stdlib/_mallocr.c:2404 (discriminator 2)
 800828a:	68db      	ldr	r3, [r3, #12]
 800828c:	429d      	cmp	r5, r3
 800828e:	d006      	beq.n	800829e <_malloc_r+0xb6>
/Volumes/data/jenkins/workspace/GNU-toolchain/arm-11/src/newlib-cygwin/newlib/libc/stdlib/_mallocr.c:2406
 8008290:	685a      	ldr	r2, [r3, #4]
 8008292:	f022 0203 	bic.w	r2, r2, #3
/Volumes/data/jenkins/workspace/GNU-toolchain/arm-11/src/newlib-cygwin/newlib/libc/stdlib/_mallocr.c:2407
 8008296:	1b91      	subs	r1, r2, r6
/Volumes/data/jenkins/workspace/GNU-toolchain/arm-11/src/newlib-cygwin/newlib/libc/stdlib/_mallocr.c:2409
 8008298:	290f      	cmp	r1, #15
 800829a:	ddf3      	ble.n	8008284 <_malloc_r+0x9c>
 800829c:	4660      	mov	r0, ip
/Volumes/data/jenkins/workspace/GNU-toolchain/arm-11/src/newlib-cygwin/newlib/libc/stdlib/_mallocr.c:2431
 800829e:	693d      	ldr	r5, [r7, #16]
 80082a0:	f8df c250 	ldr.w	ip, [pc, #592]	; 80084f4 <_malloc_r+0x30c>
 80082a4:	4565      	cmp	r5, ip
 80082a6:	d07c      	beq.n	80083a2 <_malloc_r+0x1ba>
/Volumes/data/jenkins/workspace/GNU-toolchain/arm-11/src/newlib-cygwin/newlib/libc/stdlib/_mallocr.c:2433
 80082a8:	686a      	ldr	r2, [r5, #4]
 80082aa:	f022 0203 	bic.w	r2, r2, #3
/Volumes/data/jenkins/workspace/GNU-toolchain/arm-11/src/newlib-cygwin/newlib/libc/stdlib/_mallocr.c:2434
 80082ae:	1b93      	subs	r3, r2, r6
/Volumes/data/jenkins/workspace/GNU-toolchain/arm-11/src/newlib-cygwin/newlib/libc/stdlib/_mallocr.c:2436
 80082b0:	2b0f      	cmp	r3, #15
 80082b2:	f300 817b 	bgt.w	80085ac <_malloc_r+0x3c4>
/Volumes/data/jenkins/workspace/GNU-toolchain/arm-11/src/newlib-cygwin/newlib/libc/stdlib/_mallocr.c:2450
 80082b6:	2b00      	cmp	r3, #0
/Volumes/data/jenkins/workspace/GNU-toolchain/arm-11/src/newlib-cygwin/newlib/libc/stdlib/_mallocr.c:2448
 80082b8:	e9c7 cc04 	strd	ip, ip, [r7, #16]
/Volumes/data/jenkins/workspace/GNU-toolchain/arm-11/src/newlib-cygwin/newlib/libc/stdlib/_mallocr.c:2450
 80082bc:	f280 816c 	bge.w	8008598 <_malloc_r+0x3b0>
/Volumes/data/jenkins/workspace/GNU-toolchain/arm-11/src/newlib-cygwin/newlib/libc/stdlib/_mallocr.c:2460
 80082c0:	f5b2 7f00 	cmp.w	r2, #512	; 0x200
 80082c4:	f080 811a 	bcs.w	80084fc <_malloc_r+0x314>
/Volumes/data/jenkins/workspace/GNU-toolchain/arm-11/src/newlib-cygwin/newlib/libc/stdlib/_mallocr.c:2460 (discriminator 1)
 80082c8:	08d3      	lsrs	r3, r2, #3
 80082ca:	6879      	ldr	r1, [r7, #4]
 80082cc:	3301      	adds	r3, #1
 80082ce:	ea4f 1e52 	mov.w	lr, r2, lsr #5
 80082d2:	2201      	movs	r2, #1
 80082d4:	fa02 f20e 	lsl.w	r2, r2, lr
 80082d8:	430a      	orrs	r2, r1
 80082da:	f857 e033 	ldr.w	lr, [r7, r3, lsl #3]
 80082de:	f8c5 e008 	str.w	lr, [r5, #8]
 80082e2:	eb07 01c3 	add.w	r1, r7, r3, lsl #3
 80082e6:	3908      	subs	r1, #8
 80082e8:	60e9      	str	r1, [r5, #12]
 80082ea:	607a      	str	r2, [r7, #4]
 80082ec:	f847 5033 	str.w	r5, [r7, r3, lsl #3]
 80082f0:	f8ce 500c 	str.w	r5, [lr, #12]
/Volumes/data/jenkins/workspace/GNU-toolchain/arm-11/src/newlib-cygwin/newlib/libc/stdlib/_mallocr.c:2468 (discriminator 37)
 80082f4:	1083      	asrs	r3, r0, #2
 80082f6:	2101      	movs	r1, #1
 80082f8:	4099      	lsls	r1, r3
 80082fa:	4291      	cmp	r1, r2
 80082fc:	d857      	bhi.n	80083ae <_malloc_r+0x1c6>
/Volumes/data/jenkins/workspace/GNU-toolchain/arm-11/src/newlib-cygwin/newlib/libc/stdlib/_mallocr.c:2473
 80082fe:	4211      	tst	r1, r2
 8008300:	d106      	bne.n	8008310 <_malloc_r+0x128>
/Volumes/data/jenkins/workspace/GNU-toolchain/arm-11/src/newlib-cygwin/newlib/libc/stdlib/_mallocr.c:2476
 8008302:	f020 0003 	bic.w	r0, r0, #3
/Volumes/data/jenkins/workspace/GNU-toolchain/arm-11/src/newlib-cygwin/newlib/libc/stdlib/_mallocr.c:2477
 8008306:	0049      	lsls	r1, r1, #1
/Volumes/data/jenkins/workspace/GNU-toolchain/arm-11/src/newlib-cygwin/newlib/libc/stdlib/_mallocr.c:2478
 8008308:	4211      	tst	r1, r2
/Volumes/data/jenkins/workspace/GNU-toolchain/arm-11/src/newlib-cygwin/newlib/libc/stdlib/_mallocr.c:2476
 800830a:	f100 0004 	add.w	r0, r0, #4
/Volumes/data/jenkins/workspace/GNU-toolchain/arm-11/src/newlib-cygwin/newlib/libc/stdlib/_mallocr.c:2478
 800830e:	d0fa      	beq.n	8008306 <_malloc_r+0x11e>
/Volumes/data/jenkins/workspace/GNU-toolchain/arm-11/src/newlib-cygwin/newlib/libc/stdlib/_mallocr.c:2489
 8008310:	eb07 09c0 	add.w	r9, r7, r0, lsl #3
 8008314:	464d      	mov	r5, r9
 8008316:	4686      	mov	lr, r0
/Volumes/data/jenkins/workspace/GNU-toolchain/arm-11/src/newlib-cygwin/newlib/libc/stdlib/_mallocr.c:2496
 8008318:	f8d5 800c 	ldr.w	r8, [r5, #12]
 800831c:	4545      	cmp	r5, r8
 800831e:	d108      	bne.n	8008332 <_malloc_r+0x14a>
 8008320:	e11d      	b.n	800855e <_malloc_r+0x376>
/Volumes/data/jenkins/workspace/GNU-toolchain/arm-11/src/newlib-cygwin/newlib/libc/stdlib/_mallocr.c:2514
 8008322:	2b00      	cmp	r3, #0
 8008324:	f280 8124 	bge.w	8008570 <_malloc_r+0x388>
/Volumes/data/jenkins/workspace/GNU-toolchain/arm-11/src/newlib-cygwin/newlib/libc/stdlib/_mallocr.c:2496 (discriminator 2)
 8008328:	f8d8 800c 	ldr.w	r8, [r8, #12]
 800832c:	4545      	cmp	r5, r8
 800832e:	f000 8116 	beq.w	800855e <_malloc_r+0x376>
/Volumes/data/jenkins/workspace/GNU-toolchain/arm-11/src/newlib-cygwin/newlib/libc/stdlib/_mallocr.c:2498
 8008332:	f8d8 2004 	ldr.w	r2, [r8, #4]
 8008336:	f022 0203 	bic.w	r2, r2, #3
/Volumes/data/jenkins/workspace/GNU-toolchain/arm-11/src/newlib-cygwin/newlib/libc/stdlib/_mallocr.c:2499
 800833a:	1b93      	subs	r3, r2, r6
/Volumes/data/jenkins/workspace/GNU-toolchain/arm-11/src/newlib-cygwin/newlib/libc/stdlib/_mallocr.c:2501
 800833c:	2b0f      	cmp	r3, #15
 800833e:	ddf0      	ble.n	8008322 <_malloc_r+0x13a>
/Volumes/data/jenkins/workspace/GNU-toolchain/arm-11/src/newlib-cygwin/newlib/libc/stdlib/_mallocr.c:2510
 8008340:	4620      	mov	r0, r4
/Volumes/data/jenkins/workspace/GNU-toolchain/arm-11/src/newlib-cygwin/newlib/libc/stdlib/_mallocr.c:2505
 8008342:	e9d8 5402 	ldrd	r5, r4, [r8, #8]
/Volumes/data/jenkins/workspace/GNU-toolchain/arm-11/src/newlib-cygwin/newlib/libc/stdlib/_mallocr.c:2503
 8008346:	eb08 0106 	add.w	r1, r8, r6
/Volumes/data/jenkins/workspace/GNU-toolchain/arm-11/src/newlib-cygwin/newlib/libc/stdlib/_mallocr.c:2504
 800834a:	f046 0601 	orr.w	r6, r6, #1
 800834e:	f8c8 6004 	str.w	r6, [r8, #4]
/Volumes/data/jenkins/workspace/GNU-toolchain/arm-11/src/newlib-cygwin/newlib/libc/stdlib/_mallocr.c:2505
 8008352:	60ec      	str	r4, [r5, #12]
 8008354:	60a5      	str	r5, [r4, #8]
/Volumes/data/jenkins/workspace/GNU-toolchain/arm-11/src/newlib-cygwin/newlib/libc/stdlib/_mallocr.c:2507
 8008356:	f043 0401 	orr.w	r4, r3, #1
/Volumes/data/jenkins/workspace/GNU-toolchain/arm-11/src/newlib-cygwin/newlib/libc/stdlib/_mallocr.c:2506
 800835a:	e9c7 1104 	strd	r1, r1, [r7, #16]
 800835e:	e9c1 cc02 	strd	ip, ip, [r1, #8]
/Volumes/data/jenkins/workspace/GNU-toolchain/arm-11/src/newlib-cygwin/newlib/libc/stdlib/_mallocr.c:2507
 8008362:	604c      	str	r4, [r1, #4]
/Volumes/data/jenkins/workspace/GNU-toolchain/arm-11/src/newlib-cygwin/newlib/libc/stdlib/_mallocr.c:2508
 8008364:	f848 3002 	str.w	r3, [r8, r2]
/Volumes/data/jenkins/workspace/GNU-toolchain/arm-11/src/newlib-cygwin/newlib/libc/stdlib/_mallocr.c:2510
 8008368:	f000 f9f4 	bl	8008754 <__malloc_unlock>
/Volumes/data/jenkins/workspace/GNU-toolchain/arm-11/src/newlib-cygwin/newlib/libc/stdlib/_mallocr.c:2511
 800836c:	f108 0508 	add.w	r5, r8, #8
 8008370:	e002      	b.n	8008378 <_malloc_r+0x190>
/Volumes/data/jenkins/workspace/GNU-toolchain/arm-11/src/newlib-cygwin/newlib/libc/stdlib/_mallocr.c:2361
 8008372:	230c      	movs	r3, #12
 8008374:	6023      	str	r3, [r4, #0]
/Volumes/data/jenkins/workspace/GNU-toolchain/arm-11/src/newlib-cygwin/newlib/libc/stdlib/_mallocr.c:2362
 8008376:	2500      	movs	r5, #0
/Volumes/data/jenkins/workspace/GNU-toolchain/arm-11/src/newlib-cygwin/newlib/libc/stdlib/_mallocr.c:2601
 8008378:	4628      	mov	r0, r5
 800837a:	b003      	add	sp, #12
 800837c:	e8bd 8ff0 	ldmia.w	sp!, {r4, r5, r6, r7, r8, r9, sl, fp, pc}
 8008380:	f44f 7300 	mov.w	r3, #512	; 0x200
 8008384:	2040      	movs	r0, #64	; 0x40
/Volumes/data/jenkins/workspace/GNU-toolchain/arm-11/src/newlib-cygwin/newlib/libc/stdlib/_mallocr.c:2401
 8008386:	f04f 0c3f 	mov.w	ip, #63	; 0x3f
 800838a:	e773      	b.n	8008274 <_malloc_r+0x8c>
/Volumes/data/jenkins/workspace/GNU-toolchain/arm-11/src/newlib-cygwin/newlib/libc/stdlib/_mallocr.c:2383
 800838c:	68d3      	ldr	r3, [r2, #12]
/Volumes/data/jenkins/workspace/GNU-toolchain/arm-11/src/newlib-cygwin/newlib/libc/stdlib/_mallocr.c:2386
 800838e:	429a      	cmp	r2, r3
/Volumes/data/jenkins/workspace/GNU-toolchain/arm-11/src/newlib-cygwin/newlib/libc/stdlib/_mallocr.c:2396
 8008390:	bf08      	it	eq
 8008392:	3002      	addeq	r0, #2
/Volumes/data/jenkins/workspace/GNU-toolchain/arm-11/src/newlib-cygwin/newlib/libc/stdlib/_mallocr.c:2386
 8008394:	f47f af40 	bne.w	8008218 <_malloc_r+0x30>
/Volumes/data/jenkins/workspace/GNU-toolchain/arm-11/src/newlib-cygwin/newlib/libc/stdlib/_mallocr.c:2431
 8008398:	693d      	ldr	r5, [r7, #16]
 800839a:	f8df c158 	ldr.w	ip, [pc, #344]	; 80084f4 <_malloc_r+0x30c>
 800839e:	4565      	cmp	r5, ip
 80083a0:	d182      	bne.n	80082a8 <_malloc_r+0xc0>
/Volumes/data/jenkins/workspace/GNU-toolchain/arm-11/src/newlib-cygwin/newlib/libc/stdlib/_mallocr.c:2460
 80083a2:	687a      	ldr	r2, [r7, #4]
/Volumes/data/jenkins/workspace/GNU-toolchain/arm-11/src/newlib-cygwin/newlib/libc/stdlib/_mallocr.c:2468
 80083a4:	1083      	asrs	r3, r0, #2
 80083a6:	2101      	movs	r1, #1
 80083a8:	4099      	lsls	r1, r3
 80083aa:	4291      	cmp	r1, r2
 80083ac:	d9a7      	bls.n	80082fe <_malloc_r+0x116>
/Volumes/data/jenkins/workspace/GNU-toolchain/arm-11/src/newlib-cygwin/newlib/libc/stdlib/_mallocr.c:2568
 80083ae:	68bd      	ldr	r5, [r7, #8]
 80083b0:	686b      	ldr	r3, [r5, #4]
 80083b2:	f023 0903 	bic.w	r9, r3, #3
/Volumes/data/jenkins/workspace/GNU-toolchain/arm-11/src/newlib-cygwin/newlib/libc/stdlib/_mallocr.c:2569
 80083b6:	454e      	cmp	r6, r9
 80083b8:	d803      	bhi.n	80083c2 <_malloc_r+0x1da>
/Volumes/data/jenkins/workspace/GNU-toolchain/arm-11/src/newlib-cygwin/newlib/libc/stdlib/_mallocr.c:2568 (discriminator 1)
 80083ba:	eba9 0306 	sub.w	r3, r9, r6
/Volumes/data/jenkins/workspace/GNU-toolchain/arm-11/src/newlib-cygwin/newlib/libc/stdlib/_mallocr.c:2569 (discriminator 1)
 80083be:	2b0f      	cmp	r3, #15
 80083c0:	dc7a      	bgt.n	80084b8 <_malloc_r+0x2d0>
malloc_extend_top():
/Volumes/data/jenkins/workspace/GNU-toolchain/arm-11/src/newlib-cygwin/newlib/libc/stdlib/_mallocr.c:2165
 80083c2:	f8df b134 	ldr.w	fp, [pc, #308]	; 80084f8 <_malloc_r+0x310>
/Volumes/data/jenkins/workspace/GNU-toolchain/arm-11/src/newlib-cygwin/newlib/libc/stdlib/_mallocr.c:2158
 80083c6:	4b47      	ldr	r3, [pc, #284]	; (80084e4 <_malloc_r+0x2fc>)
/Volumes/data/jenkins/workspace/GNU-toolchain/arm-11/src/newlib-cygwin/newlib/libc/stdlib/_mallocr.c:2165
 80083c8:	f8db 2000 	ldr.w	r2, [fp]
/Volumes/data/jenkins/workspace/GNU-toolchain/arm-11/src/newlib-cygwin/newlib/libc/stdlib/_mallocr.c:2158
 80083cc:	681b      	ldr	r3, [r3, #0]
/Volumes/data/jenkins/workspace/GNU-toolchain/arm-11/src/newlib-cygwin/newlib/libc/stdlib/_mallocr.c:2165
 80083ce:	3201      	adds	r2, #1
/Volumes/data/jenkins/workspace/GNU-toolchain/arm-11/src/newlib-cygwin/newlib/libc/stdlib/_mallocr.c:2158
 80083d0:	4433      	add	r3, r6
/Volumes/data/jenkins/workspace/GNU-toolchain/arm-11/src/newlib-cygwin/newlib/libc/stdlib/_mallocr.c:2154
 80083d2:	eb05 0a09 	add.w	sl, r5, r9
/Volumes/data/jenkins/workspace/GNU-toolchain/arm-11/src/newlib-cygwin/newlib/libc/stdlib/_mallocr.c:2165
 80083d6:	f000 8133 	beq.w	8008640 <_malloc_r+0x458>
/Volumes/data/jenkins/workspace/GNU-toolchain/arm-11/src/newlib-cygwin/newlib/libc/stdlib/_mallocr.c:2166
 80083da:	f503 5380 	add.w	r3, r3, #4096	; 0x1000
 80083de:	330f      	adds	r3, #15
 80083e0:	f423 687f 	bic.w	r8, r3, #4080	; 0xff0
 80083e4:	f028 080f 	bic.w	r8, r8, #15
/Volumes/data/jenkins/workspace/GNU-toolchain/arm-11/src/newlib-cygwin/newlib/libc/stdlib/_mallocr.c:2168
 80083e8:	4641      	mov	r1, r8
 80083ea:	4620      	mov	r0, r4
 80083ec:	f000 f9b8 	bl	8008760 <_sbrk_r>
/Volumes/data/jenkins/workspace/GNU-toolchain/arm-11/src/newlib-cygwin/newlib/libc/stdlib/_mallocr.c:2171
 80083f0:	1c41      	adds	r1, r0, #1
/Volumes/data/jenkins/workspace/GNU-toolchain/arm-11/src/newlib-cygwin/newlib/libc/stdlib/_mallocr.c:2168
 80083f2:	4602      	mov	r2, r0
/Volumes/data/jenkins/workspace/GNU-toolchain/arm-11/src/newlib-cygwin/newlib/libc/stdlib/_mallocr.c:2171
 80083f4:	f000 80f3 	beq.w	80085de <_malloc_r+0x3f6>
 80083f8:	4582      	cmp	sl, r0
 80083fa:	f200 80ee 	bhi.w	80085da <_malloc_r+0x3f2>
/Volumes/data/jenkins/workspace/GNU-toolchain/arm-11/src/newlib-cygwin/newlib/libc/stdlib/_mallocr.c:2175
 80083fe:	4b3a      	ldr	r3, [pc, #232]	; (80084e8 <_malloc_r+0x300>)
 8008400:	6819      	ldr	r1, [r3, #0]
 8008402:	4441      	add	r1, r8
 8008404:	6019      	str	r1, [r3, #0]
 8008406:	4608      	mov	r0, r1
/Volumes/data/jenkins/workspace/GNU-toolchain/arm-11/src/newlib-cygwin/newlib/libc/stdlib/_mallocr.c:2177
 8008408:	f000 814e 	beq.w	80086a8 <_malloc_r+0x4c0>
/Volumes/data/jenkins/workspace/GNU-toolchain/arm-11/src/newlib-cygwin/newlib/libc/stdlib/_mallocr.c:2186
 800840c:	f8db 1000 	ldr.w	r1, [fp]
 8008410:	9301      	str	r3, [sp, #4]
 8008412:	3101      	adds	r1, #1
/Volumes/data/jenkins/workspace/GNU-toolchain/arm-11/src/newlib-cygwin/newlib/libc/stdlib/_mallocr.c:2189
 8008414:	bf1b      	ittet	ne
 8008416:	eba2 010a 	subne.w	r1, r2, sl
 800841a:	1809      	addne	r1, r1, r0
/Volumes/data/jenkins/workspace/GNU-toolchain/arm-11/src/newlib-cygwin/newlib/libc/stdlib/_mallocr.c:2187
 800841c:	f8cb 2000 	streq.w	r2, [fp]
/Volumes/data/jenkins/workspace/GNU-toolchain/arm-11/src/newlib-cygwin/newlib/libc/stdlib/_mallocr.c:2189
 8008420:	6019      	strne	r1, [r3, #0]
/Volumes/data/jenkins/workspace/GNU-toolchain/arm-11/src/newlib-cygwin/newlib/libc/stdlib/_mallocr.c:2193
 8008422:	f012 0b07 	ands.w	fp, r2, #7
 8008426:	f000 8117 	beq.w	8008658 <_malloc_r+0x470>
/Volumes/data/jenkins/workspace/GNU-toolchain/arm-11/src/newlib-cygwin/newlib/libc/stdlib/_mallocr.c:2195
 800842a:	f1cb 0108 	rsb	r1, fp, #8
/Volumes/data/jenkins/workspace/GNU-toolchain/arm-11/src/newlib-cygwin/newlib/libc/stdlib/_mallocr.c:2196
 800842e:	440a      	add	r2, r1
/Volumes/data/jenkins/workspace/GNU-toolchain/arm-11/src/newlib-cygwin/newlib/libc/stdlib/_mallocr.c:2202
 8008430:	f5cb 5180 	rsb	r1, fp, #4096	; 0x1000
 8008434:	4490      	add	r8, r2
 8008436:	3108      	adds	r1, #8
 8008438:	eba1 0108 	sub.w	r1, r1, r8
 800843c:	f3c1 0a0b 	ubfx	sl, r1, #0, #12
/Volumes/data/jenkins/workspace/GNU-toolchain/arm-11/src/newlib-cygwin/newlib/libc/stdlib/_mallocr.c:2208
 8008440:	4651      	mov	r1, sl
 8008442:	4620      	mov	r0, r4
/Volumes/data/jenkins/workspace/GNU-toolchain/arm-11/src/newlib-cygwin/newlib/libc/stdlib/_mallocr.c:2202
 8008444:	9200      	str	r2, [sp, #0]
/Volumes/data/jenkins/workspace/GNU-toolchain/arm-11/src/newlib-cygwin/newlib/libc/stdlib/_mallocr.c:2208
 8008446:	f000 f98b 	bl	8008760 <_sbrk_r>
/Volumes/data/jenkins/workspace/GNU-toolchain/arm-11/src/newlib-cygwin/newlib/libc/stdlib/_mallocr.c:2209
 800844a:	1c42      	adds	r2, r0, #1
 800844c:	e9dd 2300 	ldrd	r2, r3, [sp]
 8008450:	f000 814f 	beq.w	80086f2 <_malloc_r+0x50a>
/Volumes/data/jenkins/workspace/GNU-toolchain/arm-11/src/newlib-cygwin/newlib/libc/stdlib/_mallocr.c:2221
 8008454:	1a80      	subs	r0, r0, r2
 8008456:	eb00 080a 	add.w	r8, r0, sl
/Volumes/data/jenkins/workspace/GNU-toolchain/arm-11/src/newlib-cygwin/newlib/libc/stdlib/_mallocr.c:2218
 800845a:	6819      	ldr	r1, [r3, #0]
/Volumes/data/jenkins/workspace/GNU-toolchain/arm-11/src/newlib-cygwin/newlib/libc/stdlib/_mallocr.c:2220
 800845c:	60ba      	str	r2, [r7, #8]
/Volumes/data/jenkins/workspace/GNU-toolchain/arm-11/src/newlib-cygwin/newlib/libc/stdlib/_mallocr.c:2222
 800845e:	f048 0001 	orr.w	r0, r8, #1
/Volumes/data/jenkins/workspace/GNU-toolchain/arm-11/src/newlib-cygwin/newlib/libc/stdlib/_mallocr.c:2218
 8008462:	4451      	add	r1, sl
/Volumes/data/jenkins/workspace/GNU-toolchain/arm-11/src/newlib-cygwin/newlib/libc/stdlib/_mallocr.c:2224
 8008464:	42bd      	cmp	r5, r7
/Volumes/data/jenkins/workspace/GNU-toolchain/arm-11/src/newlib-cygwin/newlib/libc/stdlib/_mallocr.c:2222
 8008466:	6050      	str	r0, [r2, #4]
/Volumes/data/jenkins/workspace/GNU-toolchain/arm-11/src/newlib-cygwin/newlib/libc/stdlib/_mallocr.c:2218
 8008468:	6019      	str	r1, [r3, #0]
/Volumes/data/jenkins/workspace/GNU-toolchain/arm-11/src/newlib-cygwin/newlib/libc/stdlib/_mallocr.c:2224
 800846a:	f000 8129 	beq.w	80086c0 <_malloc_r+0x4d8>
/Volumes/data/jenkins/workspace/GNU-toolchain/arm-11/src/newlib-cygwin/newlib/libc/stdlib/_mallocr.c:2231
 800846e:	f1b9 0f0f 	cmp.w	r9, #15
 8008472:	f240 8127 	bls.w	80086c4 <_malloc_r+0x4dc>
/Volumes/data/jenkins/workspace/GNU-toolchain/arm-11/src/newlib-cygwin/newlib/libc/stdlib/_mallocr.c:2239
 8008476:	6868      	ldr	r0, [r5, #4]
/Volumes/data/jenkins/workspace/GNU-toolchain/arm-11/src/newlib-cygwin/newlib/libc/stdlib/_mallocr.c:2238
 8008478:	f1a9 0c0c 	sub.w	ip, r9, #12
 800847c:	f02c 0c07 	bic.w	ip, ip, #7
/Volumes/data/jenkins/workspace/GNU-toolchain/arm-11/src/newlib-cygwin/newlib/libc/stdlib/_mallocr.c:2239
 8008480:	f000 0001 	and.w	r0, r0, #1
 8008484:	ea40 000c 	orr.w	r0, r0, ip
 8008488:	6068      	str	r0, [r5, #4]
/Volumes/data/jenkins/workspace/GNU-toolchain/arm-11/src/newlib-cygwin/newlib/libc/stdlib/_mallocr.c:2240
 800848a:	f04f 0e05 	mov.w	lr, #5
 800848e:	eb05 000c 	add.w	r0, r5, ip
/Volumes/data/jenkins/workspace/GNU-toolchain/arm-11/src/newlib-cygwin/newlib/libc/stdlib/_mallocr.c:2245
 8008492:	f1bc 0f0f 	cmp.w	ip, #15
/Volumes/data/jenkins/workspace/GNU-toolchain/arm-11/src/newlib-cygwin/newlib/libc/stdlib/_mallocr.c:2242
 8008496:	e9c0 ee01 	strd	lr, lr, [r0, #4]
/Volumes/data/jenkins/workspace/GNU-toolchain/arm-11/src/newlib-cygwin/newlib/libc/stdlib/_mallocr.c:2245
 800849a:	f200 8132 	bhi.w	8008702 <_malloc_r+0x51a>
_malloc_r():
/Volumes/data/jenkins/workspace/GNU-toolchain/arm-11/src/newlib-cygwin/newlib/libc/stdlib/_mallocr.c:2584
 800849e:	6850      	ldr	r0, [r2, #4]
 80084a0:	4615      	mov	r5, r2
malloc_extend_top():
/Volumes/data/jenkins/workspace/GNU-toolchain/arm-11/src/newlib-cygwin/newlib/libc/stdlib/_mallocr.c:2250
 80084a2:	4b12      	ldr	r3, [pc, #72]	; (80084ec <_malloc_r+0x304>)
 80084a4:	681a      	ldr	r2, [r3, #0]
 80084a6:	428a      	cmp	r2, r1
/Volumes/data/jenkins/workspace/GNU-toolchain/arm-11/src/newlib-cygwin/newlib/libc/stdlib/_mallocr.c:2251
 80084a8:	bf38      	it	cc
 80084aa:	6019      	strcc	r1, [r3, #0]
/Volumes/data/jenkins/workspace/GNU-toolchain/arm-11/src/newlib-cygwin/newlib/libc/stdlib/_mallocr.c:2256
 80084ac:	4b10      	ldr	r3, [pc, #64]	; (80084f0 <_malloc_r+0x308>)
 80084ae:	681a      	ldr	r2, [r3, #0]
 80084b0:	428a      	cmp	r2, r1
/Volumes/data/jenkins/workspace/GNU-toolchain/arm-11/src/newlib-cygwin/newlib/libc/stdlib/_mallocr.c:2257
 80084b2:	bf38      	it	cc
 80084b4:	6019      	strcc	r1, [r3, #0]
 80084b6:	e094      	b.n	80085e2 <_malloc_r+0x3fa>
_malloc_r():
/Volumes/data/jenkins/workspace/GNU-toolchain/arm-11/src/newlib-cygwin/newlib/libc/stdlib/_mallocr.c:2594
 80084b8:	19aa      	adds	r2, r5, r6
/Volumes/data/jenkins/workspace/GNU-toolchain/arm-11/src/newlib-cygwin/newlib/libc/stdlib/_mallocr.c:2595
 80084ba:	f043 0301 	orr.w	r3, r3, #1
/Volumes/data/jenkins/workspace/GNU-toolchain/arm-11/src/newlib-cygwin/newlib/libc/stdlib/_mallocr.c:2593
 80084be:	f046 0601 	orr.w	r6, r6, #1
 80084c2:	606e      	str	r6, [r5, #4]
/Volumes/data/jenkins/workspace/GNU-toolchain/arm-11/src/newlib-cygwin/newlib/libc/stdlib/_mallocr.c:2597
 80084c4:	4620      	mov	r0, r4
/Volumes/data/jenkins/workspace/GNU-toolchain/arm-11/src/newlib-cygwin/newlib/libc/stdlib/_mallocr.c:2594
 80084c6:	60ba      	str	r2, [r7, #8]
/Volumes/data/jenkins/workspace/GNU-toolchain/arm-11/src/newlib-cygwin/newlib/libc/stdlib/_mallocr.c:2595
 80084c8:	6053      	str	r3, [r2, #4]
/Volumes/data/jenkins/workspace/GNU-toolchain/arm-11/src/newlib-cygwin/newlib/libc/stdlib/_mallocr.c:2597
 80084ca:	f000 f943 	bl	8008754 <__malloc_unlock>
/Volumes/data/jenkins/workspace/GNU-toolchain/arm-11/src/newlib-cygwin/newlib/libc/stdlib/_mallocr.c:2598
 80084ce:	3508      	adds	r5, #8
/Volumes/data/jenkins/workspace/GNU-toolchain/arm-11/src/newlib-cygwin/newlib/libc/stdlib/_mallocr.c:2601
 80084d0:	4628      	mov	r0, r5
 80084d2:	b003      	add	sp, #12
 80084d4:	e8bd 8ff0 	ldmia.w	sp!, {r4, r5, r6, r7, r8, r9, sl, fp, pc}
/Volumes/data/jenkins/workspace/GNU-toolchain/arm-11/src/newlib-cygwin/newlib/libc/stdlib/_mallocr.c:2417
 80084d8:	68d9      	ldr	r1, [r3, #12]
/Volumes/data/jenkins/workspace/GNU-toolchain/arm-11/src/newlib-cygwin/newlib/libc/stdlib/_mallocr.c:2418
 80084da:	441a      	add	r2, r3
 80084dc:	e6a1      	b.n	8008222 <_malloc_r+0x3a>
 80084de:	bf00      	nop
 80084e0:	20000180 	.word	0x20000180
 80084e4:	200030cc 	.word	0x200030cc
 80084e8:	2000309c 	.word	0x2000309c
 80084ec:	200030c4 	.word	0x200030c4
 80084f0:	200030c8 	.word	0x200030c8
 80084f4:	20000188 	.word	0x20000188
 80084f8:	20000588 	.word	0x20000588
/Volumes/data/jenkins/workspace/GNU-toolchain/arm-11/src/newlib-cygwin/newlib/libc/stdlib/_mallocr.c:2460 (discriminator 2)
 80084fc:	f5b2 6f20 	cmp.w	r2, #2560	; 0xa00
 8008500:	ea4f 2352 	mov.w	r3, r2, lsr #9
 8008504:	d363      	bcc.n	80085ce <_malloc_r+0x3e6>
/Volumes/data/jenkins/workspace/GNU-toolchain/arm-11/src/newlib-cygwin/newlib/libc/stdlib/_mallocr.c:2460 (discriminator 8)
 8008506:	2b14      	cmp	r3, #20
 8008508:	f200 80b7 	bhi.w	800867a <_malloc_r+0x492>
/Volumes/data/jenkins/workspace/GNU-toolchain/arm-11/src/newlib-cygwin/newlib/libc/stdlib/_mallocr.c:2460 (discriminator 10)
 800850c:	f103 015c 	add.w	r1, r3, #92	; 0x5c
 8008510:	00c9      	lsls	r1, r1, #3
 8008512:	335b      	adds	r3, #91	; 0x5b
/Volumes/data/jenkins/workspace/GNU-toolchain/arm-11/src/newlib-cygwin/newlib/libc/stdlib/_mallocr.c:2460 (discriminator 26)
 8008514:	eb07 0e01 	add.w	lr, r7, r1
 8008518:	5879      	ldr	r1, [r7, r1]
 800851a:	f1ae 0e08 	sub.w	lr, lr, #8
 800851e:	458e      	cmp	lr, r1
 8008520:	f000 8091 	beq.w	8008646 <_malloc_r+0x45e>
/Volumes/data/jenkins/workspace/GNU-toolchain/arm-11/src/newlib-cygwin/newlib/libc/stdlib/_mallocr.c:2460 (discriminator 32)
 8008524:	684b      	ldr	r3, [r1, #4]
 8008526:	f023 0303 	bic.w	r3, r3, #3
 800852a:	4293      	cmp	r3, r2
 800852c:	d902      	bls.n	8008534 <_malloc_r+0x34c>
/Volumes/data/jenkins/workspace/GNU-toolchain/arm-11/src/newlib-cygwin/newlib/libc/stdlib/_mallocr.c:2460 (discriminator 34)
 800852e:	6889      	ldr	r1, [r1, #8]
 8008530:	458e      	cmp	lr, r1
 8008532:	d1f7      	bne.n	8008524 <_malloc_r+0x33c>
/Volumes/data/jenkins/workspace/GNU-toolchain/arm-11/src/newlib-cygwin/newlib/libc/stdlib/_mallocr.c:2460 (discriminator 35)
 8008534:	f8d1 e00c 	ldr.w	lr, [r1, #12]
 8008538:	687a      	ldr	r2, [r7, #4]
/Volumes/data/jenkins/workspace/GNU-toolchain/arm-11/src/newlib-cygwin/newlib/libc/stdlib/_mallocr.c:2460 (discriminator 36)
 800853a:	e9c5 1e02 	strd	r1, lr, [r5, #8]
 800853e:	f8ce 5008 	str.w	r5, [lr, #8]
 8008542:	60cd      	str	r5, [r1, #12]
 8008544:	e6d6      	b.n	80082f4 <_malloc_r+0x10c>
/Volumes/data/jenkins/workspace/GNU-toolchain/arm-11/src/newlib-cygwin/newlib/libc/stdlib/_mallocr.c:2401 (discriminator 5)
 8008546:	2b14      	cmp	r3, #20
 8008548:	d959      	bls.n	80085fe <_malloc_r+0x416>
/Volumes/data/jenkins/workspace/GNU-toolchain/arm-11/src/newlib-cygwin/newlib/libc/stdlib/_mallocr.c:2401 (discriminator 8)
 800854a:	2b54      	cmp	r3, #84	; 0x54
 800854c:	f200 809d 	bhi.w	800868a <_malloc_r+0x4a2>
/Volumes/data/jenkins/workspace/GNU-toolchain/arm-11/src/newlib-cygwin/newlib/libc/stdlib/_mallocr.c:2401 (discriminator 10)
 8008550:	0b33      	lsrs	r3, r6, #12
/Volumes/data/jenkins/workspace/GNU-toolchain/arm-11/src/newlib-cygwin/newlib/libc/stdlib/_mallocr.c:2402 (discriminator 10)
 8008552:	f103 006f 	add.w	r0, r3, #111	; 0x6f
/Volumes/data/jenkins/workspace/GNU-toolchain/arm-11/src/newlib-cygwin/newlib/libc/stdlib/_mallocr.c:2401 (discriminator 10)
 8008556:	f103 0c6e 	add.w	ip, r3, #110	; 0x6e
 800855a:	00c3      	lsls	r3, r0, #3
 800855c:	e68a      	b.n	8008274 <_malloc_r+0x8c>
/Volumes/data/jenkins/workspace/GNU-toolchain/arm-11/src/newlib-cygwin/newlib/libc/stdlib/_mallocr.c:2534
 800855e:	f10e 0e01 	add.w	lr, lr, #1
 8008562:	f01e 0f03 	tst.w	lr, #3
/Volumes/data/jenkins/workspace/GNU-toolchain/arm-11/src/newlib-cygwin/newlib/libc/stdlib/_mallocr.c:2525
 8008566:	f105 0508 	add.w	r5, r5, #8
/Volumes/data/jenkins/workspace/GNU-toolchain/arm-11/src/newlib-cygwin/newlib/libc/stdlib/_mallocr.c:2534
 800856a:	f47f aed5 	bne.w	8008318 <_malloc_r+0x130>
 800856e:	e051      	b.n	8008614 <_malloc_r+0x42c>
/Volumes/data/jenkins/workspace/GNU-toolchain/arm-11/src/newlib-cygwin/newlib/libc/stdlib/_mallocr.c:2516
 8008570:	4442      	add	r2, r8
/Volumes/data/jenkins/workspace/GNU-toolchain/arm-11/src/newlib-cygwin/newlib/libc/stdlib/_mallocr.c:2517
 8008572:	4645      	mov	r5, r8
/Volumes/data/jenkins/workspace/GNU-toolchain/arm-11/src/newlib-cygwin/newlib/libc/stdlib/_mallocr.c:2516
 8008574:	6853      	ldr	r3, [r2, #4]
/Volumes/data/jenkins/workspace/GNU-toolchain/arm-11/src/newlib-cygwin/newlib/libc/stdlib/_mallocr.c:2517
 8008576:	f8d8 100c 	ldr.w	r1, [r8, #12]
/Volumes/data/jenkins/workspace/GNU-toolchain/arm-11/src/newlib-cygwin/newlib/libc/stdlib/_mallocr.c:2516
 800857a:	f043 0301 	orr.w	r3, r3, #1
 800857e:	6053      	str	r3, [r2, #4]
/Volumes/data/jenkins/workspace/GNU-toolchain/arm-11/src/newlib-cygwin/newlib/libc/stdlib/_mallocr.c:2517
 8008580:	f855 3f08 	ldr.w	r3, [r5, #8]!
/Volumes/data/jenkins/workspace/GNU-toolchain/arm-11/src/newlib-cygwin/newlib/libc/stdlib/_mallocr.c:2519
 8008584:	4620      	mov	r0, r4
/Volumes/data/jenkins/workspace/GNU-toolchain/arm-11/src/newlib-cygwin/newlib/libc/stdlib/_mallocr.c:2517
 8008586:	60d9      	str	r1, [r3, #12]
 8008588:	608b      	str	r3, [r1, #8]
/Volumes/data/jenkins/workspace/GNU-toolchain/arm-11/src/newlib-cygwin/newlib/libc/stdlib/_mallocr.c:2519
 800858a:	f000 f8e3 	bl	8008754 <__malloc_unlock>
/Volumes/data/jenkins/workspace/GNU-toolchain/arm-11/src/newlib-cygwin/newlib/libc/stdlib/_mallocr.c:2520
 800858e:	e6f3      	b.n	8008378 <_malloc_r+0x190>
/Volumes/data/jenkins/workspace/GNU-toolchain/arm-11/src/newlib-cygwin/newlib/libc/stdlib/_mallocr.c:2375
 8008590:	08f0      	lsrs	r0, r6, #3
 8008592:	f106 0208 	add.w	r2, r6, #8
 8008596:	e637      	b.n	8008208 <_malloc_r+0x20>
/Volumes/data/jenkins/workspace/GNU-toolchain/arm-11/src/newlib-cygwin/newlib/libc/stdlib/_mallocr.c:2452
 8008598:	442a      	add	r2, r5
/Volumes/data/jenkins/workspace/GNU-toolchain/arm-11/src/newlib-cygwin/newlib/libc/stdlib/_mallocr.c:2454
 800859a:	4620      	mov	r0, r4
/Volumes/data/jenkins/workspace/GNU-toolchain/arm-11/src/newlib-cygwin/newlib/libc/stdlib/_mallocr.c:2452
 800859c:	6853      	ldr	r3, [r2, #4]
 800859e:	f043 0301 	orr.w	r3, r3, #1
 80085a2:	6053      	str	r3, [r2, #4]
/Volumes/data/jenkins/workspace/GNU-toolchain/arm-11/src/newlib-cygwin/newlib/libc/stdlib/_mallocr.c:2455
 80085a4:	3508      	adds	r5, #8
/Volumes/data/jenkins/workspace/GNU-toolchain/arm-11/src/newlib-cygwin/newlib/libc/stdlib/_mallocr.c:2454
 80085a6:	f000 f8d5 	bl	8008754 <__malloc_unlock>
/Volumes/data/jenkins/workspace/GNU-toolchain/arm-11/src/newlib-cygwin/newlib/libc/stdlib/_mallocr.c:2455
 80085aa:	e6e5      	b.n	8008378 <_malloc_r+0x190>
/Volumes/data/jenkins/workspace/GNU-toolchain/arm-11/src/newlib-cygwin/newlib/libc/stdlib/_mallocr.c:2438
 80085ac:	19a9      	adds	r1, r5, r6
/Volumes/data/jenkins/workspace/GNU-toolchain/arm-11/src/newlib-cygwin/newlib/libc/stdlib/_mallocr.c:2444
 80085ae:	4620      	mov	r0, r4
/Volumes/data/jenkins/workspace/GNU-toolchain/arm-11/src/newlib-cygwin/newlib/libc/stdlib/_mallocr.c:2439
 80085b0:	f046 0601 	orr.w	r6, r6, #1
/Volumes/data/jenkins/workspace/GNU-toolchain/arm-11/src/newlib-cygwin/newlib/libc/stdlib/_mallocr.c:2441
 80085b4:	f043 0401 	orr.w	r4, r3, #1
/Volumes/data/jenkins/workspace/GNU-toolchain/arm-11/src/newlib-cygwin/newlib/libc/stdlib/_mallocr.c:2439
 80085b8:	606e      	str	r6, [r5, #4]
/Volumes/data/jenkins/workspace/GNU-toolchain/arm-11/src/newlib-cygwin/newlib/libc/stdlib/_mallocr.c:2440
 80085ba:	e9c7 1104 	strd	r1, r1, [r7, #16]
 80085be:	e9c1 cc02 	strd	ip, ip, [r1, #8]
/Volumes/data/jenkins/workspace/GNU-toolchain/arm-11/src/newlib-cygwin/newlib/libc/stdlib/_mallocr.c:2441
 80085c2:	604c      	str	r4, [r1, #4]
/Volumes/data/jenkins/workspace/GNU-toolchain/arm-11/src/newlib-cygwin/newlib/libc/stdlib/_mallocr.c:2442
 80085c4:	50ab      	str	r3, [r5, r2]
/Volumes/data/jenkins/workspace/GNU-toolchain/arm-11/src/newlib-cygwin/newlib/libc/stdlib/_mallocr.c:2444
 80085c6:	f000 f8c5 	bl	8008754 <__malloc_unlock>
/Volumes/data/jenkins/workspace/GNU-toolchain/arm-11/src/newlib-cygwin/newlib/libc/stdlib/_mallocr.c:2445
 80085ca:	3508      	adds	r5, #8
 80085cc:	e6d4      	b.n	8008378 <_malloc_r+0x190>
/Volumes/data/jenkins/workspace/GNU-toolchain/arm-11/src/newlib-cygwin/newlib/libc/stdlib/_mallocr.c:2460 (discriminator 7)
 80085ce:	0993      	lsrs	r3, r2, #6
 80085d0:	f103 0139 	add.w	r1, r3, #57	; 0x39
 80085d4:	00c9      	lsls	r1, r1, #3
 80085d6:	3338      	adds	r3, #56	; 0x38
 80085d8:	e79c      	b.n	8008514 <_malloc_r+0x32c>
malloc_extend_top():
/Volumes/data/jenkins/workspace/GNU-toolchain/arm-11/src/newlib-cygwin/newlib/libc/stdlib/_mallocr.c:2172
 80085da:	42bd      	cmp	r5, r7
 80085dc:	d05f      	beq.n	800869e <_malloc_r+0x4b6>
/Volumes/data/jenkins/workspace/GNU-toolchain/arm-11/src/newlib-cygwin/newlib/libc/stdlib/_mallocr.c:2182
 80085de:	68bd      	ldr	r5, [r7, #8]
_malloc_r():
/Volumes/data/jenkins/workspace/GNU-toolchain/arm-11/src/newlib-cygwin/newlib/libc/stdlib/_mallocr.c:2584
 80085e0:	6868      	ldr	r0, [r5, #4]
 80085e2:	f020 0803 	bic.w	r8, r0, #3
/Volumes/data/jenkins/workspace/GNU-toolchain/arm-11/src/newlib-cygwin/newlib/libc/stdlib/_mallocr.c:2585
 80085e6:	4546      	cmp	r6, r8
/Volumes/data/jenkins/workspace/GNU-toolchain/arm-11/src/newlib-cygwin/newlib/libc/stdlib/_mallocr.c:2584
 80085e8:	eba8 0306 	sub.w	r3, r8, r6
/Volumes/data/jenkins/workspace/GNU-toolchain/arm-11/src/newlib-cygwin/newlib/libc/stdlib/_mallocr.c:2585
 80085ec:	d802      	bhi.n	80085f4 <_malloc_r+0x40c>
/Volumes/data/jenkins/workspace/GNU-toolchain/arm-11/src/newlib-cygwin/newlib/libc/stdlib/_mallocr.c:2585 (discriminator 1)
 80085ee:	2b0f      	cmp	r3, #15
 80085f0:	f73f af62 	bgt.w	80084b8 <_malloc_r+0x2d0>
/Volumes/data/jenkins/workspace/GNU-toolchain/arm-11/src/newlib-cygwin/newlib/libc/stdlib/_mallocr.c:2587
 80085f4:	4620      	mov	r0, r4
 80085f6:	f000 f8ad 	bl	8008754 <__malloc_unlock>
/Volumes/data/jenkins/workspace/GNU-toolchain/arm-11/src/newlib-cygwin/newlib/libc/stdlib/_mallocr.c:2588
 80085fa:	2500      	movs	r5, #0
 80085fc:	e6bc      	b.n	8008378 <_malloc_r+0x190>
/Volumes/data/jenkins/workspace/GNU-toolchain/arm-11/src/newlib-cygwin/newlib/libc/stdlib/_mallocr.c:2402 (discriminator 7)
 80085fe:	f103 005c 	add.w	r0, r3, #92	; 0x5c
/Volumes/data/jenkins/workspace/GNU-toolchain/arm-11/src/newlib-cygwin/newlib/libc/stdlib/_mallocr.c:2401 (discriminator 7)
 8008602:	f103 0c5b 	add.w	ip, r3, #91	; 0x5b
 8008606:	00c3      	lsls	r3, r0, #3
 8008608:	e634      	b.n	8008274 <_malloc_r+0x8c>
/Volumes/data/jenkins/workspace/GNU-toolchain/arm-11/src/newlib-cygwin/newlib/libc/stdlib/_mallocr.c:2547
 800860a:	f859 3908 	ldr.w	r3, [r9], #-8
 800860e:	454b      	cmp	r3, r9
 8008610:	f040 8096 	bne.w	8008740 <_malloc_r+0x558>
/Volumes/data/jenkins/workspace/GNU-toolchain/arm-11/src/newlib-cygwin/newlib/libc/stdlib/_mallocr.c:2540
 8008614:	f010 0f03 	tst.w	r0, #3
/Volumes/data/jenkins/workspace/GNU-toolchain/arm-11/src/newlib-cygwin/newlib/libc/stdlib/_mallocr.c:2545
 8008618:	f100 30ff 	add.w	r0, r0, #4294967295	; 0xffffffff
/Volumes/data/jenkins/workspace/GNU-toolchain/arm-11/src/newlib-cygwin/newlib/libc/stdlib/_mallocr.c:2540
 800861c:	d1f5      	bne.n	800860a <_malloc_r+0x422>
/Volumes/data/jenkins/workspace/GNU-toolchain/arm-11/src/newlib-cygwin/newlib/libc/stdlib/_mallocr.c:2542
 800861e:	687b      	ldr	r3, [r7, #4]
 8008620:	ea23 0301 	bic.w	r3, r3, r1
 8008624:	607b      	str	r3, [r7, #4]
/Volumes/data/jenkins/workspace/GNU-toolchain/arm-11/src/newlib-cygwin/newlib/libc/stdlib/_mallocr.c:2551
 8008626:	0049      	lsls	r1, r1, #1
 8008628:	4299      	cmp	r1, r3
 800862a:	f63f aec0 	bhi.w	80083ae <_malloc_r+0x1c6>
/Volumes/data/jenkins/workspace/GNU-toolchain/arm-11/src/newlib-cygwin/newlib/libc/stdlib/_mallocr.c:2551 (discriminator 1)
 800862e:	b919      	cbnz	r1, 8008638 <_malloc_r+0x450>
 8008630:	e6bd      	b.n	80083ae <_malloc_r+0x1c6>
/Volumes/data/jenkins/workspace/GNU-toolchain/arm-11/src/newlib-cygwin/newlib/libc/stdlib/_mallocr.c:2556
 8008632:	0049      	lsls	r1, r1, #1
/Volumes/data/jenkins/workspace/GNU-toolchain/arm-11/src/newlib-cygwin/newlib/libc/stdlib/_mallocr.c:2555
 8008634:	f10e 0e04 	add.w	lr, lr, #4
/Volumes/data/jenkins/workspace/GNU-toolchain/arm-11/src/newlib-cygwin/newlib/libc/stdlib/_mallocr.c:2553
 8008638:	4219      	tst	r1, r3
 800863a:	d0fa      	beq.n	8008632 <_malloc_r+0x44a>
/Volumes/data/jenkins/workspace/GNU-toolchain/arm-11/src/newlib-cygwin/newlib/libc/stdlib/_mallocr.c:2460
 800863c:	4670      	mov	r0, lr
 800863e:	e667      	b.n	8008310 <_malloc_r+0x128>
malloc_extend_top():
/Volumes/data/jenkins/workspace/GNU-toolchain/arm-11/src/newlib-cygwin/newlib/libc/stdlib/_mallocr.c:2158
 8008640:	f103 0810 	add.w	r8, r3, #16
 8008644:	e6d0      	b.n	80083e8 <_malloc_r+0x200>
_malloc_r():
/Volumes/data/jenkins/workspace/GNU-toolchain/arm-11/src/newlib-cygwin/newlib/libc/stdlib/_mallocr.c:2460 (discriminator 28)
 8008646:	109a      	asrs	r2, r3, #2
 8008648:	f04f 0801 	mov.w	r8, #1
 800864c:	687b      	ldr	r3, [r7, #4]
 800864e:	fa08 f202 	lsl.w	r2, r8, r2
 8008652:	431a      	orrs	r2, r3
 8008654:	607a      	str	r2, [r7, #4]
 8008656:	e770      	b.n	800853a <_malloc_r+0x352>
malloc_extend_top():
/Volumes/data/jenkins/workspace/GNU-toolchain/arm-11/src/newlib-cygwin/newlib/libc/stdlib/_mallocr.c:2202
 8008658:	eb02 0108 	add.w	r1, r2, r8
 800865c:	4249      	negs	r1, r1
 800865e:	f3c1 0a0b 	ubfx	sl, r1, #0, #12
/Volumes/data/jenkins/workspace/GNU-toolchain/arm-11/src/newlib-cygwin/newlib/libc/stdlib/_mallocr.c:2208
 8008662:	4651      	mov	r1, sl
 8008664:	4620      	mov	r0, r4
/Volumes/data/jenkins/workspace/GNU-toolchain/arm-11/src/newlib-cygwin/newlib/libc/stdlib/_mallocr.c:2202
 8008666:	9200      	str	r2, [sp, #0]
/Volumes/data/jenkins/workspace/GNU-toolchain/arm-11/src/newlib-cygwin/newlib/libc/stdlib/_mallocr.c:2208
 8008668:	f000 f87a 	bl	8008760 <_sbrk_r>
/Volumes/data/jenkins/workspace/GNU-toolchain/arm-11/src/newlib-cygwin/newlib/libc/stdlib/_mallocr.c:2209
 800866c:	1c43      	adds	r3, r0, #1
 800866e:	e9dd 2300 	ldrd	r2, r3, [sp]
 8008672:	f47f aeef 	bne.w	8008454 <_malloc_r+0x26c>
/Volumes/data/jenkins/workspace/GNU-toolchain/arm-11/src/newlib-cygwin/newlib/libc/stdlib/_mallocr.c:2211
 8008676:	46da      	mov	sl, fp
 8008678:	e6ef      	b.n	800845a <_malloc_r+0x272>
_malloc_r():
/Volumes/data/jenkins/workspace/GNU-toolchain/arm-11/src/newlib-cygwin/newlib/libc/stdlib/_mallocr.c:2460 (discriminator 11)
 800867a:	2b54      	cmp	r3, #84	; 0x54
 800867c:	d825      	bhi.n	80086ca <_malloc_r+0x4e2>
/Volumes/data/jenkins/workspace/GNU-toolchain/arm-11/src/newlib-cygwin/newlib/libc/stdlib/_mallocr.c:2460 (discriminator 13)
 800867e:	0b13      	lsrs	r3, r2, #12
 8008680:	f103 016f 	add.w	r1, r3, #111	; 0x6f
 8008684:	00c9      	lsls	r1, r1, #3
 8008686:	336e      	adds	r3, #110	; 0x6e
 8008688:	e744      	b.n	8008514 <_malloc_r+0x32c>
/Volumes/data/jenkins/workspace/GNU-toolchain/arm-11/src/newlib-cygwin/newlib/libc/stdlib/_mallocr.c:2401 (discriminator 11)
 800868a:	f5b3 7faa 	cmp.w	r3, #340	; 0x154
 800868e:	d825      	bhi.n	80086dc <_malloc_r+0x4f4>
/Volumes/data/jenkins/workspace/GNU-toolchain/arm-11/src/newlib-cygwin/newlib/libc/stdlib/_mallocr.c:2401 (discriminator 13)
 8008690:	0bf3      	lsrs	r3, r6, #15
/Volumes/data/jenkins/workspace/GNU-toolchain/arm-11/src/newlib-cygwin/newlib/libc/stdlib/_mallocr.c:2402 (discriminator 13)
 8008692:	f103 0078 	add.w	r0, r3, #120	; 0x78
/Volumes/data/jenkins/workspace/GNU-toolchain/arm-11/src/newlib-cygwin/newlib/libc/stdlib/_mallocr.c:2401 (discriminator 13)
 8008696:	f103 0c77 	add.w	ip, r3, #119	; 0x77
 800869a:	00c3      	lsls	r3, r0, #3
 800869c:	e5ea      	b.n	8008274 <_malloc_r+0x8c>
malloc_extend_top():
/Volumes/data/jenkins/workspace/GNU-toolchain/arm-11/src/newlib-cygwin/newlib/libc/stdlib/_mallocr.c:2175
 800869e:	4b29      	ldr	r3, [pc, #164]	; (8008744 <_malloc_r+0x55c>)
 80086a0:	6818      	ldr	r0, [r3, #0]
 80086a2:	4440      	add	r0, r8
 80086a4:	6018      	str	r0, [r3, #0]
/Volumes/data/jenkins/workspace/GNU-toolchain/arm-11/src/newlib-cygwin/newlib/libc/stdlib/_mallocr.c:2177
 80086a6:	e6b1      	b.n	800840c <_malloc_r+0x224>
/Volumes/data/jenkins/workspace/GNU-toolchain/arm-11/src/newlib-cygwin/newlib/libc/stdlib/_mallocr.c:2179
 80086a8:	f3ca 0c0b 	ubfx	ip, sl, #0, #12
 80086ac:	f1bc 0f00 	cmp.w	ip, #0
 80086b0:	f47f aeac 	bne.w	800840c <_malloc_r+0x224>
/Volumes/data/jenkins/workspace/GNU-toolchain/arm-11/src/newlib-cygwin/newlib/libc/stdlib/_mallocr.c:2182
 80086b4:	68bd      	ldr	r5, [r7, #8]
/Volumes/data/jenkins/workspace/GNU-toolchain/arm-11/src/newlib-cygwin/newlib/libc/stdlib/_mallocr.c:2181
 80086b6:	44c8      	add	r8, r9
/Volumes/data/jenkins/workspace/GNU-toolchain/arm-11/src/newlib-cygwin/newlib/libc/stdlib/_mallocr.c:2182
 80086b8:	f048 0001 	orr.w	r0, r8, #1
 80086bc:	6068      	str	r0, [r5, #4]
 80086be:	e6f0      	b.n	80084a2 <_malloc_r+0x2ba>
 80086c0:	4615      	mov	r5, r2
 80086c2:	e6ee      	b.n	80084a2 <_malloc_r+0x2ba>
/Volumes/data/jenkins/workspace/GNU-toolchain/arm-11/src/newlib-cygwin/newlib/libc/stdlib/_mallocr.c:2233
 80086c4:	2301      	movs	r3, #1
 80086c6:	6053      	str	r3, [r2, #4]
_malloc_r():
/Volumes/data/jenkins/workspace/GNU-toolchain/arm-11/src/newlib-cygwin/newlib/libc/stdlib/_mallocr.c:2585
 80086c8:	e794      	b.n	80085f4 <_malloc_r+0x40c>
/Volumes/data/jenkins/workspace/GNU-toolchain/arm-11/src/newlib-cygwin/newlib/libc/stdlib/_mallocr.c:2460 (discriminator 14)
 80086ca:	f5b3 7faa 	cmp.w	r3, #340	; 0x154
 80086ce:	d823      	bhi.n	8008718 <_malloc_r+0x530>
/Volumes/data/jenkins/workspace/GNU-toolchain/arm-11/src/newlib-cygwin/newlib/libc/stdlib/_mallocr.c:2460 (discriminator 16)
 80086d0:	0bd3      	lsrs	r3, r2, #15
 80086d2:	f103 0178 	add.w	r1, r3, #120	; 0x78
 80086d6:	00c9      	lsls	r1, r1, #3
 80086d8:	3377      	adds	r3, #119	; 0x77
 80086da:	e71b      	b.n	8008514 <_malloc_r+0x32c>
/Volumes/data/jenkins/workspace/GNU-toolchain/arm-11/src/newlib-cygwin/newlib/libc/stdlib/_mallocr.c:2401 (discriminator 14)
 80086dc:	f240 5254 	movw	r2, #1364	; 0x554
 80086e0:	4293      	cmp	r3, r2
 80086e2:	d823      	bhi.n	800872c <_malloc_r+0x544>
/Volumes/data/jenkins/workspace/GNU-toolchain/arm-11/src/newlib-cygwin/newlib/libc/stdlib/_mallocr.c:2401 (discriminator 16)
 80086e4:	0cb3      	lsrs	r3, r6, #18
/Volumes/data/jenkins/workspace/GNU-toolchain/arm-11/src/newlib-cygwin/newlib/libc/stdlib/_mallocr.c:2402 (discriminator 16)
 80086e6:	f103 007d 	add.w	r0, r3, #125	; 0x7d
/Volumes/data/jenkins/workspace/GNU-toolchain/arm-11/src/newlib-cygwin/newlib/libc/stdlib/_mallocr.c:2401 (discriminator 16)
 80086ea:	f103 0c7c 	add.w	ip, r3, #124	; 0x7c
 80086ee:	00c3      	lsls	r3, r0, #3
 80086f0:	e5c0      	b.n	8008274 <_malloc_r+0x8c>
malloc_extend_top():
/Volumes/data/jenkins/workspace/GNU-toolchain/arm-11/src/newlib-cygwin/newlib/libc/stdlib/_mallocr.c:2215
 80086f2:	f1ab 0b08 	sub.w	fp, fp, #8
 80086f6:	44d8      	add	r8, fp
/Volumes/data/jenkins/workspace/GNU-toolchain/arm-11/src/newlib-cygwin/newlib/libc/stdlib/_mallocr.c:2221
 80086f8:	eba8 0802 	sub.w	r8, r8, r2
/Volumes/data/jenkins/workspace/GNU-toolchain/arm-11/src/newlib-cygwin/newlib/libc/stdlib/_mallocr.c:2211
 80086fc:	f04f 0a00 	mov.w	sl, #0
 8008700:	e6ab      	b.n	800845a <_malloc_r+0x272>
/Volumes/data/jenkins/workspace/GNU-toolchain/arm-11/src/newlib-cygwin/newlib/libc/stdlib/_mallocr.c:2246
 8008702:	f105 0108 	add.w	r1, r5, #8
 8008706:	4620      	mov	r0, r4
 8008708:	9300      	str	r3, [sp, #0]
 800870a:	f000 f8e3 	bl	80088d4 <_free_r>
_malloc_r():
/Volumes/data/jenkins/workspace/GNU-toolchain/arm-11/src/newlib-cygwin/newlib/libc/stdlib/_mallocr.c:2584
 800870e:	68bd      	ldr	r5, [r7, #8]
malloc_extend_top():
/Volumes/data/jenkins/workspace/GNU-toolchain/arm-11/src/newlib-cygwin/newlib/libc/stdlib/_mallocr.c:2250
 8008710:	9b00      	ldr	r3, [sp, #0]
_malloc_r():
/Volumes/data/jenkins/workspace/GNU-toolchain/arm-11/src/newlib-cygwin/newlib/libc/stdlib/_mallocr.c:2584
 8008712:	6868      	ldr	r0, [r5, #4]
malloc_extend_top():
/Volumes/data/jenkins/workspace/GNU-toolchain/arm-11/src/newlib-cygwin/newlib/libc/stdlib/_mallocr.c:2250
 8008714:	6819      	ldr	r1, [r3, #0]
 8008716:	e6c4      	b.n	80084a2 <_malloc_r+0x2ba>
_malloc_r():
/Volumes/data/jenkins/workspace/GNU-toolchain/arm-11/src/newlib-cygwin/newlib/libc/stdlib/_mallocr.c:2460 (discriminator 17)
 8008718:	f240 5154 	movw	r1, #1364	; 0x554
 800871c:	428b      	cmp	r3, r1
 800871e:	d80b      	bhi.n	8008738 <_malloc_r+0x550>
/Volumes/data/jenkins/workspace/GNU-toolchain/arm-11/src/newlib-cygwin/newlib/libc/stdlib/_mallocr.c:2460 (discriminator 19)
 8008720:	0c93      	lsrs	r3, r2, #18
 8008722:	f103 017d 	add.w	r1, r3, #125	; 0x7d
 8008726:	00c9      	lsls	r1, r1, #3
 8008728:	337c      	adds	r3, #124	; 0x7c
 800872a:	e6f3      	b.n	8008514 <_malloc_r+0x32c>
 800872c:	f44f 737e 	mov.w	r3, #1016	; 0x3f8
 8008730:	207f      	movs	r0, #127	; 0x7f
/Volumes/data/jenkins/workspace/GNU-toolchain/arm-11/src/newlib-cygwin/newlib/libc/stdlib/_mallocr.c:2401
 8008732:	f04f 0c7e 	mov.w	ip, #126	; 0x7e
 8008736:	e59d      	b.n	8008274 <_malloc_r+0x8c>
 8008738:	f44f 717e 	mov.w	r1, #1016	; 0x3f8
/Volumes/data/jenkins/workspace/GNU-toolchain/arm-11/src/newlib-cygwin/newlib/libc/stdlib/_mallocr.c:2460
 800873c:	237e      	movs	r3, #126	; 0x7e
 800873e:	e6e9      	b.n	8008514 <_malloc_r+0x32c>
/Volumes/data/jenkins/workspace/GNU-toolchain/arm-11/src/newlib-cygwin/newlib/libc/stdlib/_mallocr.c:2542
 8008740:	687b      	ldr	r3, [r7, #4]
 8008742:	e770      	b.n	8008626 <_malloc_r+0x43e>
 8008744:	2000309c 	.word	0x2000309c

08008748 <__malloc_lock>:
__malloc_lock():
/Volumes/data/jenkins/workspace/GNU-toolchain/arm-11/src/newlib-cygwin/newlib/libc/stdlib/mlock.c:44
 8008748:	4801      	ldr	r0, [pc, #4]	; (8008750 <__malloc_lock+0x8>)
 800874a:	f7ff bd39 	b.w	80081c0 <__retarget_lock_acquire_recursive>
 800874e:	bf00      	nop
 8008750:	20003094 	.word	0x20003094

08008754 <__malloc_unlock>:
__malloc_unlock():
/Volumes/data/jenkins/workspace/GNU-toolchain/arm-11/src/newlib-cygwin/newlib/libc/stdlib/mlock.c:53
 8008754:	4801      	ldr	r0, [pc, #4]	; (800875c <__malloc_unlock+0x8>)
 8008756:	f7ff bd35 	b.w	80081c4 <__retarget_lock_release_recursive>
 800875a:	bf00      	nop
 800875c:	20003094 	.word	0x20003094

08008760 <_sbrk_r>:
_sbrk_r():
/Volumes/data/jenkins/workspace/GNU-toolchain/arm-11/src/newlib-cygwin/newlib/libc/reent/sbrkr.c:46
 8008760:	b538      	push	{r3, r4, r5, lr}
/Volumes/data/jenkins/workspace/GNU-toolchain/arm-11/src/newlib-cygwin/newlib/libc/reent/sbrkr.c:50
 8008762:	4d07      	ldr	r5, [pc, #28]	; (8008780 <_sbrk_r+0x20>)
 8008764:	2200      	movs	r2, #0
/Volumes/data/jenkins/workspace/GNU-toolchain/arm-11/src/newlib-cygwin/newlib/libc/reent/sbrkr.c:46
 8008766:	4604      	mov	r4, r0
/Volumes/data/jenkins/workspace/GNU-toolchain/arm-11/src/newlib-cygwin/newlib/libc/reent/sbrkr.c:51
 8008768:	4608      	mov	r0, r1
/Volumes/data/jenkins/workspace/GNU-toolchain/arm-11/src/newlib-cygwin/newlib/libc/reent/sbrkr.c:50
 800876a:	602a      	str	r2, [r5, #0]
/Volumes/data/jenkins/workspace/GNU-toolchain/arm-11/src/newlib-cygwin/newlib/libc/reent/sbrkr.c:51
 800876c:	f000 fa16 	bl	8008b9c <_sbrk>
 8008770:	1c43      	adds	r3, r0, #1
 8008772:	d000      	beq.n	8008776 <_sbrk_r+0x16>
/Volumes/data/jenkins/workspace/GNU-toolchain/arm-11/src/newlib-cygwin/newlib/libc/reent/sbrkr.c:54
 8008774:	bd38      	pop	{r3, r4, r5, pc}
/Volumes/data/jenkins/workspace/GNU-toolchain/arm-11/src/newlib-cygwin/newlib/libc/reent/sbrkr.c:51 (discriminator 1)
 8008776:	682b      	ldr	r3, [r5, #0]
 8008778:	2b00      	cmp	r3, #0
 800877a:	d0fb      	beq.n	8008774 <_sbrk_r+0x14>
/Volumes/data/jenkins/workspace/GNU-toolchain/arm-11/src/newlib-cygwin/newlib/libc/reent/sbrkr.c:52
 800877c:	6023      	str	r3, [r4, #0]
/Volumes/data/jenkins/workspace/GNU-toolchain/arm-11/src/newlib-cygwin/newlib/libc/reent/sbrkr.c:54
 800877e:	bd38      	pop	{r3, r4, r5, pc}
 8008780:	200030d0 	.word	0x200030d0

08008784 <__libc_fini_array>:
__libc_fini_array():
/Volumes/data/jenkins/workspace/GNU-toolchain/arm-11/src/newlib-cygwin/newlib/libc/misc/fini.c:27
 8008784:	b538      	push	{r3, r4, r5, lr}
/Volumes/data/jenkins/workspace/GNU-toolchain/arm-11/src/newlib-cygwin/newlib/libc/misc/fini.c:31
 8008786:	4d07      	ldr	r5, [pc, #28]	; (80087a4 <__libc_fini_array+0x20>)
 8008788:	4c07      	ldr	r4, [pc, #28]	; (80087a8 <__libc_fini_array+0x24>)
 800878a:	1b2c      	subs	r4, r5, r4
/Volumes/data/jenkins/workspace/GNU-toolchain/arm-11/src/newlib-cygwin/newlib/libc/misc/fini.c:32
 800878c:	10a4      	asrs	r4, r4, #2
 800878e:	d005      	beq.n	800879c <__libc_fini_array+0x18>
/Volumes/data/jenkins/workspace/GNU-toolchain/arm-11/src/newlib-cygwin/newlib/libc/misc/fini.c:33 (discriminator 3)
 8008790:	3c01      	subs	r4, #1
 8008792:	f855 3d04 	ldr.w	r3, [r5, #-4]!
 8008796:	4798      	blx	r3
/Volumes/data/jenkins/workspace/GNU-toolchain/arm-11/src/newlib-cygwin/newlib/libc/misc/fini.c:32 (discriminator 3)
 8008798:	2c00      	cmp	r4, #0
 800879a:	d1f9      	bne.n	8008790 <__libc_fini_array+0xc>
/Volumes/data/jenkins/workspace/GNU-toolchain/arm-11/src/newlib-cygwin/newlib/libc/misc/fini.c:38
 800879c:	e8bd 4038 	ldmia.w	sp!, {r3, r4, r5, lr}
/Volumes/data/jenkins/workspace/GNU-toolchain/arm-11/src/newlib-cygwin/newlib/libc/misc/fini.c:36
 80087a0:	f000 ba10 	b.w	8008bc4 <_fini>
 80087a4:	08008fdc 	.word	0x08008fdc
 80087a8:	08008fd8 	.word	0x08008fd8

080087ac <__register_exitproc>:
__register_exitproc():
/Volumes/data/jenkins/workspace/GNU-toolchain/arm-11/src/newlib-cygwin/newlib/libc/stdlib/__atexit.c:67
 80087ac:	e92d 47f0 	stmdb	sp!, {r4, r5, r6, r7, r8, r9, sl, lr}
/Volumes/data/jenkins/workspace/GNU-toolchain/arm-11/src/newlib-cygwin/newlib/libc/stdlib/__atexit.c:72
 80087b0:	f8df a07c 	ldr.w	sl, [pc, #124]	; 8008830 <__register_exitproc+0x84>
/Volumes/data/jenkins/workspace/GNU-toolchain/arm-11/src/newlib-cygwin/newlib/libc/stdlib/__atexit.c:67
 80087b4:	4606      	mov	r6, r0
/Volumes/data/jenkins/workspace/GNU-toolchain/arm-11/src/newlib-cygwin/newlib/libc/stdlib/__atexit.c:72
 80087b6:	f8da 0000 	ldr.w	r0, [sl]
/Volumes/data/jenkins/workspace/GNU-toolchain/arm-11/src/newlib-cygwin/newlib/libc/stdlib/__atexit.c:67
 80087ba:	4698      	mov	r8, r3
 80087bc:	460f      	mov	r7, r1
 80087be:	4691      	mov	r9, r2
/Volumes/data/jenkins/workspace/GNU-toolchain/arm-11/src/newlib-cygwin/newlib/libc/stdlib/__atexit.c:72
 80087c0:	f7ff fcfe 	bl	80081c0 <__retarget_lock_acquire_recursive>
/Volumes/data/jenkins/workspace/GNU-toolchain/arm-11/src/newlib-cygwin/newlib/libc/stdlib/__atexit.c:75
 80087c4:	4b18      	ldr	r3, [pc, #96]	; (8008828 <__register_exitproc+0x7c>)
 80087c6:	681c      	ldr	r4, [r3, #0]
/Volumes/data/jenkins/workspace/GNU-toolchain/arm-11/src/newlib-cygwin/newlib/libc/stdlib/__atexit.c:76
 80087c8:	b324      	cbz	r4, 8008814 <__register_exitproc+0x68>
/Volumes/data/jenkins/workspace/GNU-toolchain/arm-11/src/newlib-cygwin/newlib/libc/stdlib/__atexit.c:85
 80087ca:	6865      	ldr	r5, [r4, #4]
 80087cc:	2d1f      	cmp	r5, #31
 80087ce:	dc24      	bgt.n	800881a <__register_exitproc+0x6e>
/Volumes/data/jenkins/workspace/GNU-toolchain/arm-11/src/newlib-cygwin/newlib/libc/stdlib/__atexit.c:113
 80087d0:	b95e      	cbnz	r6, 80087ea <__register_exitproc+0x3e>
/Volumes/data/jenkins/workspace/GNU-toolchain/arm-11/src/newlib-cygwin/newlib/libc/stdlib/__atexit.c:149
 80087d2:	1c6b      	adds	r3, r5, #1
 80087d4:	3502      	adds	r5, #2
/Volumes/data/jenkins/workspace/GNU-toolchain/arm-11/src/newlib-cygwin/newlib/libc/stdlib/__atexit.c:151
 80087d6:	f8da 0000 	ldr.w	r0, [sl]
/Volumes/data/jenkins/workspace/GNU-toolchain/arm-11/src/newlib-cygwin/newlib/libc/stdlib/__atexit.c:149
 80087da:	6063      	str	r3, [r4, #4]
 80087dc:	f844 7025 	str.w	r7, [r4, r5, lsl #2]
/Volumes/data/jenkins/workspace/GNU-toolchain/arm-11/src/newlib-cygwin/newlib/libc/stdlib/__atexit.c:151
 80087e0:	f7ff fcf0 	bl	80081c4 <__retarget_lock_release_recursive>
/Volumes/data/jenkins/workspace/GNU-toolchain/arm-11/src/newlib-cygwin/newlib/libc/stdlib/__atexit.c:153
 80087e4:	2000      	movs	r0, #0
/Volumes/data/jenkins/workspace/GNU-toolchain/arm-11/src/newlib-cygwin/newlib/libc/stdlib/__atexit.c:154
 80087e6:	e8bd 87f0 	ldmia.w	sp!, {r4, r5, r6, r7, r8, r9, sl, pc}
/Volumes/data/jenkins/workspace/GNU-toolchain/arm-11/src/newlib-cygwin/newlib/libc/stdlib/__atexit.c:143
 80087ea:	eb04 0185 	add.w	r1, r4, r5, lsl #2
/Volumes/data/jenkins/workspace/GNU-toolchain/arm-11/src/newlib-cygwin/newlib/libc/stdlib/__atexit.c:144
 80087ee:	2301      	movs	r3, #1
/Volumes/data/jenkins/workspace/GNU-toolchain/arm-11/src/newlib-cygwin/newlib/libc/stdlib/__atexit.c:143
 80087f0:	f8c1 9088 	str.w	r9, [r1, #136]	; 0x88
/Volumes/data/jenkins/workspace/GNU-toolchain/arm-11/src/newlib-cygwin/newlib/libc/stdlib/__atexit.c:144
 80087f4:	f8d4 2188 	ldr.w	r2, [r4, #392]	; 0x188
 80087f8:	40ab      	lsls	r3, r5
 80087fa:	431a      	orrs	r2, r3
/Volumes/data/jenkins/workspace/GNU-toolchain/arm-11/src/newlib-cygwin/newlib/libc/stdlib/__atexit.c:146
 80087fc:	2e02      	cmp	r6, #2
/Volumes/data/jenkins/workspace/GNU-toolchain/arm-11/src/newlib-cygwin/newlib/libc/stdlib/__atexit.c:144
 80087fe:	f8c4 2188 	str.w	r2, [r4, #392]	; 0x188
/Volumes/data/jenkins/workspace/GNU-toolchain/arm-11/src/newlib-cygwin/newlib/libc/stdlib/__atexit.c:145
 8008802:	f8c1 8108 	str.w	r8, [r1, #264]	; 0x108
/Volumes/data/jenkins/workspace/GNU-toolchain/arm-11/src/newlib-cygwin/newlib/libc/stdlib/__atexit.c:146
 8008806:	d1e4      	bne.n	80087d2 <__register_exitproc+0x26>
/Volumes/data/jenkins/workspace/GNU-toolchain/arm-11/src/newlib-cygwin/newlib/libc/stdlib/__atexit.c:147
 8008808:	f8d4 218c 	ldr.w	r2, [r4, #396]	; 0x18c
 800880c:	431a      	orrs	r2, r3
 800880e:	f8c4 218c 	str.w	r2, [r4, #396]	; 0x18c
 8008812:	e7de      	b.n	80087d2 <__register_exitproc+0x26>
/Volumes/data/jenkins/workspace/GNU-toolchain/arm-11/src/newlib-cygwin/newlib/libc/stdlib/__atexit.c:78
 8008814:	4c05      	ldr	r4, [pc, #20]	; (800882c <__register_exitproc+0x80>)
 8008816:	601c      	str	r4, [r3, #0]
 8008818:	e7d7      	b.n	80087ca <__register_exitproc+0x1e>
/Volumes/data/jenkins/workspace/GNU-toolchain/arm-11/src/newlib-cygwin/newlib/libc/stdlib/__atexit.c:89
 800881a:	f8da 0000 	ldr.w	r0, [sl]
 800881e:	f7ff fcd1 	bl	80081c4 <__retarget_lock_release_recursive>
/Volumes/data/jenkins/workspace/GNU-toolchain/arm-11/src/newlib-cygwin/newlib/libc/stdlib/__atexit.c:91
 8008822:	f04f 30ff 	mov.w	r0, #4294967295	; 0xffffffff
 8008826:	e7de      	b.n	80087e6 <__register_exitproc+0x3a>
 8008828:	20003098 	.word	0x20003098
 800882c:	200030d4 	.word	0x200030d4
 8008830:	2000017c 	.word	0x2000017c

08008834 <_malloc_trim_r>:
_malloc_trim_r():
/Volumes/data/jenkins/workspace/GNU-toolchain/arm-11/src/newlib-cygwin/newlib/libc/stdlib/_mallocr.c:3328
 8008834:	b5f8      	push	{r3, r4, r5, r6, r7, lr}
/Volumes/data/jenkins/workspace/GNU-toolchain/arm-11/src/newlib-cygwin/newlib/libc/stdlib/_mallocr.c:3338
 8008836:	4f24      	ldr	r7, [pc, #144]	; (80088c8 <_malloc_trim_r+0x94>)
/Volumes/data/jenkins/workspace/GNU-toolchain/arm-11/src/newlib-cygwin/newlib/libc/stdlib/_mallocr.c:3328
 8008838:	460c      	mov	r4, r1
 800883a:	4606      	mov	r6, r0
/Volumes/data/jenkins/workspace/GNU-toolchain/arm-11/src/newlib-cygwin/newlib/libc/stdlib/_mallocr.c:3336
 800883c:	f7ff ff84 	bl	8008748 <__malloc_lock>
/Volumes/data/jenkins/workspace/GNU-toolchain/arm-11/src/newlib-cygwin/newlib/libc/stdlib/_mallocr.c:3338
 8008840:	68bb      	ldr	r3, [r7, #8]
 8008842:	685d      	ldr	r5, [r3, #4]
/Volumes/data/jenkins/workspace/GNU-toolchain/arm-11/src/newlib-cygwin/newlib/libc/stdlib/_mallocr.c:3339
 8008844:	f5c4 617e 	rsb	r1, r4, #4064	; 0xfe0
 8008848:	310f      	adds	r1, #15
/Volumes/data/jenkins/workspace/GNU-toolchain/arm-11/src/newlib-cygwin/newlib/libc/stdlib/_mallocr.c:3338
 800884a:	f025 0503 	bic.w	r5, r5, #3
/Volumes/data/jenkins/workspace/GNU-toolchain/arm-11/src/newlib-cygwin/newlib/libc/stdlib/_mallocr.c:3339
 800884e:	194b      	adds	r3, r1, r5
 8008850:	f423 637f 	bic.w	r3, r3, #4080	; 0xff0
 8008854:	f023 030f 	bic.w	r3, r3, #15
 8008858:	f5a3 5480 	sub.w	r4, r3, #4096	; 0x1000
/Volumes/data/jenkins/workspace/GNU-toolchain/arm-11/src/newlib-cygwin/newlib/libc/stdlib/_mallocr.c:3341
 800885c:	f5b4 5f80 	cmp.w	r4, #4096	; 0x1000
 8008860:	db07      	blt.n	8008872 <_malloc_trim_r+0x3e>
/Volumes/data/jenkins/workspace/GNU-toolchain/arm-11/src/newlib-cygwin/newlib/libc/stdlib/_mallocr.c:3350
 8008862:	2100      	movs	r1, #0
 8008864:	4630      	mov	r0, r6
 8008866:	f7ff ff7b 	bl	8008760 <_sbrk_r>
/Volumes/data/jenkins/workspace/GNU-toolchain/arm-11/src/newlib-cygwin/newlib/libc/stdlib/_mallocr.c:3351
 800886a:	68bb      	ldr	r3, [r7, #8]
 800886c:	442b      	add	r3, r5
 800886e:	4298      	cmp	r0, r3
 8008870:	d004      	beq.n	800887c <_malloc_trim_r+0x48>
/Volumes/data/jenkins/workspace/GNU-toolchain/arm-11/src/newlib-cygwin/newlib/libc/stdlib/_mallocr.c:3343
 8008872:	4630      	mov	r0, r6
 8008874:	f7ff ff6e 	bl	8008754 <__malloc_unlock>
/Volumes/data/jenkins/workspace/GNU-toolchain/arm-11/src/newlib-cygwin/newlib/libc/stdlib/_mallocr.c:3344
 8008878:	2000      	movs	r0, #0
/Volumes/data/jenkins/workspace/GNU-toolchain/arm-11/src/newlib-cygwin/newlib/libc/stdlib/_mallocr.c:3387
 800887a:	bdf8      	pop	{r3, r4, r5, r6, r7, pc}
/Volumes/data/jenkins/workspace/GNU-toolchain/arm-11/src/newlib-cygwin/newlib/libc/stdlib/_mallocr.c:3359
 800887c:	4261      	negs	r1, r4
 800887e:	4630      	mov	r0, r6
 8008880:	f7ff ff6e 	bl	8008760 <_sbrk_r>
/Volumes/data/jenkins/workspace/GNU-toolchain/arm-11/src/newlib-cygwin/newlib/libc/stdlib/_mallocr.c:3361
 8008884:	3001      	adds	r0, #1
 8008886:	d00d      	beq.n	80088a4 <_malloc_trim_r+0x70>
/Volumes/data/jenkins/workspace/GNU-toolchain/arm-11/src/newlib-cygwin/newlib/libc/stdlib/_mallocr.c:3380
 8008888:	4a10      	ldr	r2, [pc, #64]	; (80088cc <_malloc_trim_r+0x98>)
/Volumes/data/jenkins/workspace/GNU-toolchain/arm-11/src/newlib-cygwin/newlib/libc/stdlib/_mallocr.c:3379
 800888a:	68bb      	ldr	r3, [r7, #8]
 800888c:	1b2d      	subs	r5, r5, r4
 800888e:	f045 0501 	orr.w	r5, r5, #1
 8008892:	605d      	str	r5, [r3, #4]
/Volumes/data/jenkins/workspace/GNU-toolchain/arm-11/src/newlib-cygwin/newlib/libc/stdlib/_mallocr.c:3380
 8008894:	6813      	ldr	r3, [r2, #0]
/Volumes/data/jenkins/workspace/GNU-toolchain/arm-11/src/newlib-cygwin/newlib/libc/stdlib/_mallocr.c:3382
 8008896:	4630      	mov	r0, r6
/Volumes/data/jenkins/workspace/GNU-toolchain/arm-11/src/newlib-cygwin/newlib/libc/stdlib/_mallocr.c:3380
 8008898:	1b1b      	subs	r3, r3, r4
 800889a:	6013      	str	r3, [r2, #0]
/Volumes/data/jenkins/workspace/GNU-toolchain/arm-11/src/newlib-cygwin/newlib/libc/stdlib/_mallocr.c:3382
 800889c:	f7ff ff5a 	bl	8008754 <__malloc_unlock>
/Volumes/data/jenkins/workspace/GNU-toolchain/arm-11/src/newlib-cygwin/newlib/libc/stdlib/_mallocr.c:3383
 80088a0:	2001      	movs	r0, #1
/Volumes/data/jenkins/workspace/GNU-toolchain/arm-11/src/newlib-cygwin/newlib/libc/stdlib/_mallocr.c:3387
 80088a2:	bdf8      	pop	{r3, r4, r5, r6, r7, pc}
/Volumes/data/jenkins/workspace/GNU-toolchain/arm-11/src/newlib-cygwin/newlib/libc/stdlib/_mallocr.c:3364
 80088a4:	2100      	movs	r1, #0
 80088a6:	4630      	mov	r0, r6
 80088a8:	f7ff ff5a 	bl	8008760 <_sbrk_r>
/Volumes/data/jenkins/workspace/GNU-toolchain/arm-11/src/newlib-cygwin/newlib/libc/stdlib/_mallocr.c:3365
 80088ac:	68ba      	ldr	r2, [r7, #8]
 80088ae:	1a83      	subs	r3, r0, r2
/Volumes/data/jenkins/workspace/GNU-toolchain/arm-11/src/newlib-cygwin/newlib/libc/stdlib/_mallocr.c:3366
 80088b0:	2b0f      	cmp	r3, #15
 80088b2:	ddde      	ble.n	8008872 <_malloc_trim_r+0x3e>
/Volumes/data/jenkins/workspace/GNU-toolchain/arm-11/src/newlib-cygwin/newlib/libc/stdlib/_mallocr.c:3369
 80088b4:	f043 0301 	orr.w	r3, r3, #1
 80088b8:	6053      	str	r3, [r2, #4]
/Volumes/data/jenkins/workspace/GNU-toolchain/arm-11/src/newlib-cygwin/newlib/libc/stdlib/_mallocr.c:3368
 80088ba:	4b05      	ldr	r3, [pc, #20]	; (80088d0 <_malloc_trim_r+0x9c>)
 80088bc:	4903      	ldr	r1, [pc, #12]	; (80088cc <_malloc_trim_r+0x98>)
 80088be:	681b      	ldr	r3, [r3, #0]
 80088c0:	1ac0      	subs	r0, r0, r3
 80088c2:	6008      	str	r0, [r1, #0]
/Volumes/data/jenkins/workspace/GNU-toolchain/arm-11/src/newlib-cygwin/newlib/libc/stdlib/_mallocr.c:3369
 80088c4:	e7d5      	b.n	8008872 <_malloc_trim_r+0x3e>
 80088c6:	bf00      	nop
 80088c8:	20000180 	.word	0x20000180
 80088cc:	2000309c 	.word	0x2000309c
 80088d0:	20000588 	.word	0x20000588

080088d4 <_free_r>:
_free_r():
/Volumes/data/jenkins/workspace/GNU-toolchain/arm-11/src/newlib-cygwin/newlib/libc/stdlib/_mallocr.c:2652
 80088d4:	2900      	cmp	r1, #0
 80088d6:	d061      	beq.n	800899c <_free_r+0xc8>
/Volumes/data/jenkins/workspace/GNU-toolchain/arm-11/src/newlib-cygwin/newlib/libc/stdlib/_mallocr.c:2634
 80088d8:	b5f8      	push	{r3, r4, r5, r6, r7, lr}
 80088da:	460c      	mov	r4, r1
/Volumes/data/jenkins/workspace/GNU-toolchain/arm-11/src/newlib-cygwin/newlib/libc/stdlib/_mallocr.c:2655
 80088dc:	4606      	mov	r6, r0
 80088de:	f7ff ff33 	bl	8008748 <__malloc_lock>
/Volumes/data/jenkins/workspace/GNU-toolchain/arm-11/src/newlib-cygwin/newlib/libc/stdlib/_mallocr.c:2658
 80088e2:	f854 2c04 	ldr.w	r2, [r4, #-4]
/Volumes/data/jenkins/workspace/GNU-toolchain/arm-11/src/newlib-cygwin/newlib/libc/stdlib/_mallocr.c:2675
 80088e6:	4f7b      	ldr	r7, [pc, #492]	; (8008ad4 <_free_r+0x200>)
/Volumes/data/jenkins/workspace/GNU-toolchain/arm-11/src/newlib-cygwin/newlib/libc/stdlib/_mallocr.c:2657
 80088e8:	f1a4 0508 	sub.w	r5, r4, #8
/Volumes/data/jenkins/workspace/GNU-toolchain/arm-11/src/newlib-cygwin/newlib/libc/stdlib/_mallocr.c:2671
 80088ec:	f022 0101 	bic.w	r1, r2, #1
/Volumes/data/jenkins/workspace/GNU-toolchain/arm-11/src/newlib-cygwin/newlib/libc/stdlib/_mallocr.c:2672
 80088f0:	eb05 0c01 	add.w	ip, r5, r1
/Volumes/data/jenkins/workspace/GNU-toolchain/arm-11/src/newlib-cygwin/newlib/libc/stdlib/_mallocr.c:2675
 80088f4:	68b8      	ldr	r0, [r7, #8]
/Volumes/data/jenkins/workspace/GNU-toolchain/arm-11/src/newlib-cygwin/newlib/libc/stdlib/_mallocr.c:2673
 80088f6:	f8dc 3004 	ldr.w	r3, [ip, #4]
/Volumes/data/jenkins/workspace/GNU-toolchain/arm-11/src/newlib-cygwin/newlib/libc/stdlib/_mallocr.c:2675
 80088fa:	4560      	cmp	r0, ip
/Volumes/data/jenkins/workspace/GNU-toolchain/arm-11/src/newlib-cygwin/newlib/libc/stdlib/_mallocr.c:2673
 80088fc:	f023 0303 	bic.w	r3, r3, #3
/Volumes/data/jenkins/workspace/GNU-toolchain/arm-11/src/newlib-cygwin/newlib/libc/stdlib/_mallocr.c:2675
 8008900:	f000 808b 	beq.w	8008a1a <_free_r+0x146>
/Volumes/data/jenkins/workspace/GNU-toolchain/arm-11/src/newlib-cygwin/newlib/libc/stdlib/_mallocr.c:2699
 8008904:	07d2      	lsls	r2, r2, #31
/Volumes/data/jenkins/workspace/GNU-toolchain/arm-11/src/newlib-cygwin/newlib/libc/stdlib/_mallocr.c:2695
 8008906:	f8cc 3004 	str.w	r3, [ip, #4]
/Volumes/data/jenkins/workspace/GNU-toolchain/arm-11/src/newlib-cygwin/newlib/libc/stdlib/_mallocr.c:2699
 800890a:	d432      	bmi.n	8008972 <_free_r+0x9e>
/Volumes/data/jenkins/workspace/GNU-toolchain/arm-11/src/newlib-cygwin/newlib/libc/stdlib/_mallocr.c:2701
 800890c:	f854 2c08 	ldr.w	r2, [r4, #-8]
/Volumes/data/jenkins/workspace/GNU-toolchain/arm-11/src/newlib-cygwin/newlib/libc/stdlib/_mallocr.c:2702
 8008910:	1aad      	subs	r5, r5, r2
/Volumes/data/jenkins/workspace/GNU-toolchain/arm-11/src/newlib-cygwin/newlib/libc/stdlib/_mallocr.c:2703
 8008912:	4411      	add	r1, r2
/Volumes/data/jenkins/workspace/GNU-toolchain/arm-11/src/newlib-cygwin/newlib/libc/stdlib/_mallocr.c:2705
 8008914:	68aa      	ldr	r2, [r5, #8]
 8008916:	f107 0008 	add.w	r0, r7, #8
 800891a:	4282      	cmp	r2, r0
 800891c:	d06a      	beq.n	80089f4 <_free_r+0x120>
/Volumes/data/jenkins/workspace/GNU-toolchain/arm-11/src/newlib-cygwin/newlib/libc/stdlib/_mallocr.c:2711
 800891e:	eb0c 0403 	add.w	r4, ip, r3
 8008922:	f8d4 e004 	ldr.w	lr, [r4, #4]
/Volumes/data/jenkins/workspace/GNU-toolchain/arm-11/src/newlib-cygwin/newlib/libc/stdlib/_mallocr.c:2708
 8008926:	68ec      	ldr	r4, [r5, #12]
 8008928:	60d4      	str	r4, [r2, #12]
/Volumes/data/jenkins/workspace/GNU-toolchain/arm-11/src/newlib-cygwin/newlib/libc/stdlib/_mallocr.c:2711
 800892a:	f01e 0f01 	tst.w	lr, #1
/Volumes/data/jenkins/workspace/GNU-toolchain/arm-11/src/newlib-cygwin/newlib/libc/stdlib/_mallocr.c:2708
 800892e:	60a2      	str	r2, [r4, #8]
/Volumes/data/jenkins/workspace/GNU-toolchain/arm-11/src/newlib-cygwin/newlib/libc/stdlib/_mallocr.c:2711
 8008930:	f000 8097 	beq.w	8008a62 <_free_r+0x18e>
/Volumes/data/jenkins/workspace/GNU-toolchain/arm-11/src/newlib-cygwin/newlib/libc/stdlib/_mallocr.c:2725
 8008934:	f041 0301 	orr.w	r3, r1, #1
 8008938:	606b      	str	r3, [r5, #4]
/Volumes/data/jenkins/workspace/GNU-toolchain/arm-11/src/newlib-cygwin/newlib/libc/stdlib/_mallocr.c:2726
 800893a:	f8cc 1000 	str.w	r1, [ip]
/Volumes/data/jenkins/workspace/GNU-toolchain/arm-11/src/newlib-cygwin/newlib/libc/stdlib/_mallocr.c:2728
 800893e:	f5b1 7f00 	cmp.w	r1, #512	; 0x200
 8008942:	d235      	bcs.n	80089b0 <_free_r+0xdc>
/Volumes/data/jenkins/workspace/GNU-toolchain/arm-11/src/newlib-cygwin/newlib/libc/stdlib/_mallocr.c:2728 (discriminator 1)
 8008944:	6878      	ldr	r0, [r7, #4]
 8008946:	08cb      	lsrs	r3, r1, #3
 8008948:	2201      	movs	r2, #1
 800894a:	0949      	lsrs	r1, r1, #5
 800894c:	3301      	adds	r3, #1
 800894e:	408a      	lsls	r2, r1
 8008950:	4302      	orrs	r2, r0
 8008952:	f857 1033 	ldr.w	r1, [r7, r3, lsl #3]
 8008956:	607a      	str	r2, [r7, #4]
 8008958:	eb07 02c3 	add.w	r2, r7, r3, lsl #3
 800895c:	3a08      	subs	r2, #8
 800895e:	e9c5 1202 	strd	r1, r2, [r5, #8]
 8008962:	f847 5033 	str.w	r5, [r7, r3, lsl #3]
 8008966:	60cd      	str	r5, [r1, #12]
/Volumes/data/jenkins/workspace/GNU-toolchain/arm-11/src/newlib-cygwin/newlib/libc/stdlib/_mallocr.c:2691
 8008968:	4630      	mov	r0, r6
/Volumes/data/jenkins/workspace/GNU-toolchain/arm-11/src/newlib-cygwin/newlib/libc/stdlib/_mallocr.c:2733
 800896a:	e8bd 40f8 	ldmia.w	sp!, {r3, r4, r5, r6, r7, lr}
/Volumes/data/jenkins/workspace/GNU-toolchain/arm-11/src/newlib-cygwin/newlib/libc/stdlib/_mallocr.c:2691
 800896e:	f7ff bef1 	b.w	8008754 <__malloc_unlock>
/Volumes/data/jenkins/workspace/GNU-toolchain/arm-11/src/newlib-cygwin/newlib/libc/stdlib/_mallocr.c:2711
 8008972:	eb0c 0203 	add.w	r2, ip, r3
 8008976:	6852      	ldr	r2, [r2, #4]
 8008978:	07d0      	lsls	r0, r2, #31
 800897a:	d410      	bmi.n	800899e <_free_r+0xca>
/Volumes/data/jenkins/workspace/GNU-toolchain/arm-11/src/newlib-cygwin/newlib/libc/stdlib/_mallocr.c:2713
 800897c:	4419      	add	r1, r3
/Volumes/data/jenkins/workspace/GNU-toolchain/arm-11/src/newlib-cygwin/newlib/libc/stdlib/_mallocr.c:2715
 800897e:	f107 0008 	add.w	r0, r7, #8
/Volumes/data/jenkins/workspace/GNU-toolchain/arm-11/src/newlib-cygwin/newlib/libc/stdlib/_mallocr.c:2715 (discriminator 1)
 8008982:	f8dc 3008 	ldr.w	r3, [ip, #8]
 8008986:	4283      	cmp	r3, r0
 8008988:	d073      	beq.n	8008a72 <_free_r+0x19e>
/Volumes/data/jenkins/workspace/GNU-toolchain/arm-11/src/newlib-cygwin/newlib/libc/stdlib/_mallocr.c:2721
 800898a:	f8dc 200c 	ldr.w	r2, [ip, #12]
 800898e:	60da      	str	r2, [r3, #12]
 8008990:	6093      	str	r3, [r2, #8]
/Volumes/data/jenkins/workspace/GNU-toolchain/arm-11/src/newlib-cygwin/newlib/libc/stdlib/_mallocr.c:2725
 8008992:	f041 0301 	orr.w	r3, r1, #1
 8008996:	606b      	str	r3, [r5, #4]
/Volumes/data/jenkins/workspace/GNU-toolchain/arm-11/src/newlib-cygwin/newlib/libc/stdlib/_mallocr.c:2726
 8008998:	5069      	str	r1, [r5, r1]
/Volumes/data/jenkins/workspace/GNU-toolchain/arm-11/src/newlib-cygwin/newlib/libc/stdlib/_mallocr.c:2727
 800899a:	e7d0      	b.n	800893e <_free_r+0x6a>
 800899c:	4770      	bx	lr
/Volumes/data/jenkins/workspace/GNU-toolchain/arm-11/src/newlib-cygwin/newlib/libc/stdlib/_mallocr.c:2725
 800899e:	f041 0301 	orr.w	r3, r1, #1
/Volumes/data/jenkins/workspace/GNU-toolchain/arm-11/src/newlib-cygwin/newlib/libc/stdlib/_mallocr.c:2728
 80089a2:	f5b1 7f00 	cmp.w	r1, #512	; 0x200
/Volumes/data/jenkins/workspace/GNU-toolchain/arm-11/src/newlib-cygwin/newlib/libc/stdlib/_mallocr.c:2725
 80089a6:	f844 3c04 	str.w	r3, [r4, #-4]
/Volumes/data/jenkins/workspace/GNU-toolchain/arm-11/src/newlib-cygwin/newlib/libc/stdlib/_mallocr.c:2726
 80089aa:	f8cc 1000 	str.w	r1, [ip]
/Volumes/data/jenkins/workspace/GNU-toolchain/arm-11/src/newlib-cygwin/newlib/libc/stdlib/_mallocr.c:2728
 80089ae:	d3c9      	bcc.n	8008944 <_free_r+0x70>
/Volumes/data/jenkins/workspace/GNU-toolchain/arm-11/src/newlib-cygwin/newlib/libc/stdlib/_mallocr.c:2728 (discriminator 2)
 80089b0:	f5b1 6f20 	cmp.w	r1, #2560	; 0xa00
 80089b4:	ea4f 2351 	mov.w	r3, r1, lsr #9
 80089b8:	d248      	bcs.n	8008a4c <_free_r+0x178>
/Volumes/data/jenkins/workspace/GNU-toolchain/arm-11/src/newlib-cygwin/newlib/libc/stdlib/_mallocr.c:2728 (discriminator 7)
 80089ba:	098b      	lsrs	r3, r1, #6
 80089bc:	f103 0039 	add.w	r0, r3, #57	; 0x39
 80089c0:	f103 0238 	add.w	r2, r3, #56	; 0x38
 80089c4:	00c3      	lsls	r3, r0, #3
/Volumes/data/jenkins/workspace/GNU-toolchain/arm-11/src/newlib-cygwin/newlib/libc/stdlib/_mallocr.c:2728 (discriminator 26)
 80089c6:	18f8      	adds	r0, r7, r3
 80089c8:	58fb      	ldr	r3, [r7, r3]
 80089ca:	3808      	subs	r0, #8
 80089cc:	4298      	cmp	r0, r3
 80089ce:	d059      	beq.n	8008a84 <_free_r+0x1b0>
/Volumes/data/jenkins/workspace/GNU-toolchain/arm-11/src/newlib-cygwin/newlib/libc/stdlib/_mallocr.c:2728 (discriminator 32)
 80089d0:	685a      	ldr	r2, [r3, #4]
 80089d2:	f022 0203 	bic.w	r2, r2, #3
 80089d6:	428a      	cmp	r2, r1
 80089d8:	d902      	bls.n	80089e0 <_free_r+0x10c>
/Volumes/data/jenkins/workspace/GNU-toolchain/arm-11/src/newlib-cygwin/newlib/libc/stdlib/_mallocr.c:2728 (discriminator 34)
 80089da:	689b      	ldr	r3, [r3, #8]
 80089dc:	4298      	cmp	r0, r3
 80089de:	d1f7      	bne.n	80089d0 <_free_r+0xfc>
/Volumes/data/jenkins/workspace/GNU-toolchain/arm-11/src/newlib-cygwin/newlib/libc/stdlib/_mallocr.c:2728 (discriminator 35)
 80089e0:	68d8      	ldr	r0, [r3, #12]
/Volumes/data/jenkins/workspace/GNU-toolchain/arm-11/src/newlib-cygwin/newlib/libc/stdlib/_mallocr.c:2728 (discriminator 36)
 80089e2:	e9c5 3002 	strd	r3, r0, [r5, #8]
 80089e6:	6085      	str	r5, [r0, #8]
 80089e8:	60dd      	str	r5, [r3, #12]
/Volumes/data/jenkins/workspace/GNU-toolchain/arm-11/src/newlib-cygwin/newlib/libc/stdlib/_mallocr.c:2691 (discriminator 36)
 80089ea:	4630      	mov	r0, r6
/Volumes/data/jenkins/workspace/GNU-toolchain/arm-11/src/newlib-cygwin/newlib/libc/stdlib/_mallocr.c:2733 (discriminator 36)
 80089ec:	e8bd 40f8 	ldmia.w	sp!, {r3, r4, r5, r6, r7, lr}
/Volumes/data/jenkins/workspace/GNU-toolchain/arm-11/src/newlib-cygwin/newlib/libc/stdlib/_mallocr.c:2691 (discriminator 36)
 80089f0:	f7ff beb0 	b.w	8008754 <__malloc_unlock>
/Volumes/data/jenkins/workspace/GNU-toolchain/arm-11/src/newlib-cygwin/newlib/libc/stdlib/_mallocr.c:2711
 80089f4:	eb0c 0203 	add.w	r2, ip, r3
 80089f8:	6852      	ldr	r2, [r2, #4]
 80089fa:	07d2      	lsls	r2, r2, #31
 80089fc:	d463      	bmi.n	8008ac6 <_free_r+0x1f2>
/Volumes/data/jenkins/workspace/GNU-toolchain/arm-11/src/newlib-cygwin/newlib/libc/stdlib/_mallocr.c:2713
 80089fe:	440b      	add	r3, r1
/Volumes/data/jenkins/workspace/GNU-toolchain/arm-11/src/newlib-cygwin/newlib/libc/stdlib/_mallocr.c:2721
 8008a00:	e9dc 1202 	ldrd	r1, r2, [ip, #8]
 8008a04:	60ca      	str	r2, [r1, #12]
 8008a06:	6091      	str	r1, [r2, #8]
/Volumes/data/jenkins/workspace/GNU-toolchain/arm-11/src/newlib-cygwin/newlib/libc/stdlib/_mallocr.c:2725
 8008a08:	f043 0201 	orr.w	r2, r3, #1
 8008a0c:	606a      	str	r2, [r5, #4]
/Volumes/data/jenkins/workspace/GNU-toolchain/arm-11/src/newlib-cygwin/newlib/libc/stdlib/_mallocr.c:2691
 8008a0e:	4630      	mov	r0, r6
/Volumes/data/jenkins/workspace/GNU-toolchain/arm-11/src/newlib-cygwin/newlib/libc/stdlib/_mallocr.c:2726
 8008a10:	50eb      	str	r3, [r5, r3]
/Volumes/data/jenkins/workspace/GNU-toolchain/arm-11/src/newlib-cygwin/newlib/libc/stdlib/_mallocr.c:2733
 8008a12:	e8bd 40f8 	ldmia.w	sp!, {r3, r4, r5, r6, r7, lr}
/Volumes/data/jenkins/workspace/GNU-toolchain/arm-11/src/newlib-cygwin/newlib/libc/stdlib/_mallocr.c:2691
 8008a16:	f7ff be9d 	b.w	8008754 <__malloc_unlock>
/Volumes/data/jenkins/workspace/GNU-toolchain/arm-11/src/newlib-cygwin/newlib/libc/stdlib/_mallocr.c:2677
 8008a1a:	440b      	add	r3, r1
/Volumes/data/jenkins/workspace/GNU-toolchain/arm-11/src/newlib-cygwin/newlib/libc/stdlib/_mallocr.c:2679
 8008a1c:	07d1      	lsls	r1, r2, #31
 8008a1e:	d407      	bmi.n	8008a30 <_free_r+0x15c>
/Volumes/data/jenkins/workspace/GNU-toolchain/arm-11/src/newlib-cygwin/newlib/libc/stdlib/_mallocr.c:2681
 8008a20:	f854 2c08 	ldr.w	r2, [r4, #-8]
/Volumes/data/jenkins/workspace/GNU-toolchain/arm-11/src/newlib-cygwin/newlib/libc/stdlib/_mallocr.c:2682
 8008a24:	1aad      	subs	r5, r5, r2
/Volumes/data/jenkins/workspace/GNU-toolchain/arm-11/src/newlib-cygwin/newlib/libc/stdlib/_mallocr.c:2683
 8008a26:	4413      	add	r3, r2
/Volumes/data/jenkins/workspace/GNU-toolchain/arm-11/src/newlib-cygwin/newlib/libc/stdlib/_mallocr.c:2684
 8008a28:	e9d5 1202 	ldrd	r1, r2, [r5, #8]
 8008a2c:	60ca      	str	r2, [r1, #12]
 8008a2e:	6091      	str	r1, [r2, #8]
/Volumes/data/jenkins/workspace/GNU-toolchain/arm-11/src/newlib-cygwin/newlib/libc/stdlib/_mallocr.c:2687 (discriminator 1)
 8008a30:	f043 0201 	orr.w	r2, r3, #1
 8008a34:	606a      	str	r2, [r5, #4]
/Volumes/data/jenkins/workspace/GNU-toolchain/arm-11/src/newlib-cygwin/newlib/libc/stdlib/_mallocr.c:2689 (discriminator 1)
 8008a36:	4a28      	ldr	r2, [pc, #160]	; (8008ad8 <_free_r+0x204>)
/Volumes/data/jenkins/workspace/GNU-toolchain/arm-11/src/newlib-cygwin/newlib/libc/stdlib/_mallocr.c:2688 (discriminator 1)
 8008a38:	60bd      	str	r5, [r7, #8]
/Volumes/data/jenkins/workspace/GNU-toolchain/arm-11/src/newlib-cygwin/newlib/libc/stdlib/_mallocr.c:2689 (discriminator 1)
 8008a3a:	6812      	ldr	r2, [r2, #0]
 8008a3c:	429a      	cmp	r2, r3
 8008a3e:	d893      	bhi.n	8008968 <_free_r+0x94>
/Volumes/data/jenkins/workspace/GNU-toolchain/arm-11/src/newlib-cygwin/newlib/libc/stdlib/_mallocr.c:2690
 8008a40:	4b26      	ldr	r3, [pc, #152]	; (8008adc <_free_r+0x208>)
 8008a42:	4630      	mov	r0, r6
 8008a44:	6819      	ldr	r1, [r3, #0]
 8008a46:	f7ff fef5 	bl	8008834 <_malloc_trim_r>
 8008a4a:	e78d      	b.n	8008968 <_free_r+0x94>
/Volumes/data/jenkins/workspace/GNU-toolchain/arm-11/src/newlib-cygwin/newlib/libc/stdlib/_mallocr.c:2728 (discriminator 8)
 8008a4c:	2b14      	cmp	r3, #20
 8008a4e:	d90a      	bls.n	8008a66 <_free_r+0x192>
/Volumes/data/jenkins/workspace/GNU-toolchain/arm-11/src/newlib-cygwin/newlib/libc/stdlib/_mallocr.c:2728 (discriminator 11)
 8008a50:	2b54      	cmp	r3, #84	; 0x54
 8008a52:	d81f      	bhi.n	8008a94 <_free_r+0x1c0>
/Volumes/data/jenkins/workspace/GNU-toolchain/arm-11/src/newlib-cygwin/newlib/libc/stdlib/_mallocr.c:2728 (discriminator 13)
 8008a54:	0b0b      	lsrs	r3, r1, #12
 8008a56:	f103 006f 	add.w	r0, r3, #111	; 0x6f
 8008a5a:	f103 026e 	add.w	r2, r3, #110	; 0x6e
 8008a5e:	00c3      	lsls	r3, r0, #3
 8008a60:	e7b1      	b.n	80089c6 <_free_r+0xf2>
/Volumes/data/jenkins/workspace/GNU-toolchain/arm-11/src/newlib-cygwin/newlib/libc/stdlib/_mallocr.c:2713
 8008a62:	4419      	add	r1, r3
/Volumes/data/jenkins/workspace/GNU-toolchain/arm-11/src/newlib-cygwin/newlib/libc/stdlib/_mallocr.c:2715
 8008a64:	e78d      	b.n	8008982 <_free_r+0xae>
/Volumes/data/jenkins/workspace/GNU-toolchain/arm-11/src/newlib-cygwin/newlib/libc/stdlib/_mallocr.c:2728 (discriminator 10)
 8008a66:	f103 005c 	add.w	r0, r3, #92	; 0x5c
 8008a6a:	f103 025b 	add.w	r2, r3, #91	; 0x5b
 8008a6e:	00c3      	lsls	r3, r0, #3
 8008a70:	e7a9      	b.n	80089c6 <_free_r+0xf2>
/Volumes/data/jenkins/workspace/GNU-toolchain/arm-11/src/newlib-cygwin/newlib/libc/stdlib/_mallocr.c:2725
 8008a72:	f041 0301 	orr.w	r3, r1, #1
/Volumes/data/jenkins/workspace/GNU-toolchain/arm-11/src/newlib-cygwin/newlib/libc/stdlib/_mallocr.c:2718
 8008a76:	e9c7 5504 	strd	r5, r5, [r7, #16]
 8008a7a:	e9c5 0002 	strd	r0, r0, [r5, #8]
/Volumes/data/jenkins/workspace/GNU-toolchain/arm-11/src/newlib-cygwin/newlib/libc/stdlib/_mallocr.c:2725
 8008a7e:	606b      	str	r3, [r5, #4]
/Volumes/data/jenkins/workspace/GNU-toolchain/arm-11/src/newlib-cygwin/newlib/libc/stdlib/_mallocr.c:2726
 8008a80:	5069      	str	r1, [r5, r1]
/Volumes/data/jenkins/workspace/GNU-toolchain/arm-11/src/newlib-cygwin/newlib/libc/stdlib/_mallocr.c:2727
 8008a82:	e771      	b.n	8008968 <_free_r+0x94>
/Volumes/data/jenkins/workspace/GNU-toolchain/arm-11/src/newlib-cygwin/newlib/libc/stdlib/_mallocr.c:2728 (discriminator 28)
 8008a84:	6879      	ldr	r1, [r7, #4]
 8008a86:	1092      	asrs	r2, r2, #2
 8008a88:	2401      	movs	r4, #1
 8008a8a:	fa04 f202 	lsl.w	r2, r4, r2
 8008a8e:	430a      	orrs	r2, r1
 8008a90:	607a      	str	r2, [r7, #4]
 8008a92:	e7a6      	b.n	80089e2 <_free_r+0x10e>
/Volumes/data/jenkins/workspace/GNU-toolchain/arm-11/src/newlib-cygwin/newlib/libc/stdlib/_mallocr.c:2728 (discriminator 14)
 8008a94:	f5b3 7faa 	cmp.w	r3, #340	; 0x154
 8008a98:	d806      	bhi.n	8008aa8 <_free_r+0x1d4>
/Volumes/data/jenkins/workspace/GNU-toolchain/arm-11/src/newlib-cygwin/newlib/libc/stdlib/_mallocr.c:2728 (discriminator 16)
 8008a9a:	0bcb      	lsrs	r3, r1, #15
 8008a9c:	f103 0078 	add.w	r0, r3, #120	; 0x78
 8008aa0:	f103 0277 	add.w	r2, r3, #119	; 0x77
 8008aa4:	00c3      	lsls	r3, r0, #3
 8008aa6:	e78e      	b.n	80089c6 <_free_r+0xf2>
/Volumes/data/jenkins/workspace/GNU-toolchain/arm-11/src/newlib-cygwin/newlib/libc/stdlib/_mallocr.c:2728 (discriminator 17)
 8008aa8:	f240 5254 	movw	r2, #1364	; 0x554
 8008aac:	4293      	cmp	r3, r2
 8008aae:	d806      	bhi.n	8008abe <_free_r+0x1ea>
/Volumes/data/jenkins/workspace/GNU-toolchain/arm-11/src/newlib-cygwin/newlib/libc/stdlib/_mallocr.c:2728 (discriminator 19)
 8008ab0:	0c8b      	lsrs	r3, r1, #18
 8008ab2:	f103 007d 	add.w	r0, r3, #125	; 0x7d
 8008ab6:	f103 027c 	add.w	r2, r3, #124	; 0x7c
 8008aba:	00c3      	lsls	r3, r0, #3
 8008abc:	e783      	b.n	80089c6 <_free_r+0xf2>
 8008abe:	f44f 737e 	mov.w	r3, #1016	; 0x3f8
/Volumes/data/jenkins/workspace/GNU-toolchain/arm-11/src/newlib-cygwin/newlib/libc/stdlib/_mallocr.c:2728
 8008ac2:	227e      	movs	r2, #126	; 0x7e
 8008ac4:	e77f      	b.n	80089c6 <_free_r+0xf2>
/Volumes/data/jenkins/workspace/GNU-toolchain/arm-11/src/newlib-cygwin/newlib/libc/stdlib/_mallocr.c:2725
 8008ac6:	f041 0301 	orr.w	r3, r1, #1
 8008aca:	606b      	str	r3, [r5, #4]
/Volumes/data/jenkins/workspace/GNU-toolchain/arm-11/src/newlib-cygwin/newlib/libc/stdlib/_mallocr.c:2726
 8008acc:	f8cc 1000 	str.w	r1, [ip]
/Volumes/data/jenkins/workspace/GNU-toolchain/arm-11/src/newlib-cygwin/newlib/libc/stdlib/_mallocr.c:2727
 8008ad0:	e74a      	b.n	8008968 <_free_r+0x94>
 8008ad2:	bf00      	nop
 8008ad4:	20000180 	.word	0x20000180
 8008ad8:	2000058c 	.word	0x2000058c
 8008adc:	200030cc 	.word	0x200030cc

08008ae0 <calloc>:
calloc():
/Volumes/data/jenkins/workspace/GNU-toolchain/arm-11/src/newlib-cygwin/newlib/libc/stdlib/calloc.c:51
 8008ae0:	b410      	push	{r4}
/Volumes/data/jenkins/workspace/GNU-toolchain/arm-11/src/newlib-cygwin/newlib/libc/stdlib/calloc.c:52
 8008ae2:	4c04      	ldr	r4, [pc, #16]	; (8008af4 <calloc+0x14>)
/Volumes/data/jenkins/workspace/GNU-toolchain/arm-11/src/newlib-cygwin/newlib/libc/stdlib/calloc.c:51
 8008ae4:	4603      	mov	r3, r0
 8008ae6:	460a      	mov	r2, r1
/Volumes/data/jenkins/workspace/GNU-toolchain/arm-11/src/newlib-cygwin/newlib/libc/stdlib/calloc.c:52
 8008ae8:	6820      	ldr	r0, [r4, #0]
/Volumes/data/jenkins/workspace/GNU-toolchain/arm-11/src/newlib-cygwin/newlib/libc/stdlib/calloc.c:53
 8008aea:	f85d 4b04 	ldr.w	r4, [sp], #4
/Volumes/data/jenkins/workspace/GNU-toolchain/arm-11/src/newlib-cygwin/newlib/libc/stdlib/calloc.c:52
 8008aee:	4619      	mov	r1, r3
 8008af0:	f000 b802 	b.w	8008af8 <_calloc_r>
 8008af4:	20000178 	.word	0x20000178

08008af8 <_calloc_r>:
_calloc_r():
/Volumes/data/jenkins/workspace/GNU-toolchain/arm-11/src/newlib-cygwin/newlib/libc/stdlib/_mallocr.c:3201
 8008af8:	b538      	push	{r3, r4, r5, lr}
/Volumes/data/jenkins/workspace/GNU-toolchain/arm-11/src/newlib-cygwin/newlib/libc/stdlib/_mallocr.c:3213
 8008afa:	fba1 1402 	umull	r1, r4, r1, r2
 8008afe:	bb8c      	cbnz	r4, 8008b64 <_calloc_r+0x6c>
/Volumes/data/jenkins/workspace/GNU-toolchain/arm-11/src/newlib-cygwin/newlib/libc/stdlib/_mallocr.c:3226
 8008b00:	f7ff fb72 	bl	80081e8 <_malloc_r>
/Volumes/data/jenkins/workspace/GNU-toolchain/arm-11/src/newlib-cygwin/newlib/libc/stdlib/_mallocr.c:3228
 8008b04:	4605      	mov	r5, r0
 8008b06:	b1e0      	cbz	r0, 8008b42 <_calloc_r+0x4a>
/Volumes/data/jenkins/workspace/GNU-toolchain/arm-11/src/newlib-cygwin/newlib/libc/stdlib/_mallocr.c:3252
 8008b08:	f850 2c04 	ldr.w	r2, [r0, #-4]
 8008b0c:	f022 0203 	bic.w	r2, r2, #3
/Volumes/data/jenkins/workspace/GNU-toolchain/arm-11/src/newlib-cygwin/newlib/libc/stdlib/_mallocr.c:3263
 8008b10:	3a04      	subs	r2, #4
 8008b12:	2a24      	cmp	r2, #36	; 0x24
 8008b14:	d817      	bhi.n	8008b46 <_calloc_r+0x4e>
/Volumes/data/jenkins/workspace/GNU-toolchain/arm-11/src/newlib-cygwin/newlib/libc/stdlib/_mallocr.c:3263 (discriminator 1)
 8008b16:	2a13      	cmp	r2, #19
 8008b18:	d91a      	bls.n	8008b50 <_calloc_r+0x58>
/Volumes/data/jenkins/workspace/GNU-toolchain/arm-11/src/newlib-cygwin/newlib/libc/stdlib/_mallocr.c:3263 (discriminator 3)
 8008b1a:	2a1b      	cmp	r2, #27
 8008b1c:	e9c0 4400 	strd	r4, r4, [r0]
 8008b20:	d91d      	bls.n	8008b5e <_calloc_r+0x66>
/Volumes/data/jenkins/workspace/GNU-toolchain/arm-11/src/newlib-cygwin/newlib/libc/stdlib/_mallocr.c:3263 (discriminator 5)
 8008b22:	2a24      	cmp	r2, #36	; 0x24
 8008b24:	bf14      	ite	ne
 8008b26:	f100 0210 	addne.w	r2, r0, #16
 8008b2a:	f100 0218 	addeq.w	r2, r0, #24
 8008b2e:	f04f 0300 	mov.w	r3, #0
 8008b32:	e9c0 4402 	strd	r4, r4, [r0, #8]
 8008b36:	bf04      	itt	eq
 8008b38:	6104      	streq	r4, [r0, #16]
 8008b3a:	6144      	streq	r4, [r0, #20]
 8008b3c:	e9c2 3300 	strd	r3, r3, [r2]
 8008b40:	6093      	str	r3, [r2, #8]
/Volumes/data/jenkins/workspace/GNU-toolchain/arm-11/src/newlib-cygwin/newlib/libc/stdlib/_mallocr.c:3266
 8008b42:	4628      	mov	r0, r5
 8008b44:	bd38      	pop	{r3, r4, r5, pc}
/Volumes/data/jenkins/workspace/GNU-toolchain/arm-11/src/newlib-cygwin/newlib/libc/stdlib/_mallocr.c:3263 (discriminator 2)
 8008b46:	4621      	mov	r1, r4
 8008b48:	f7ff fac4 	bl	80080d4 <memset>
/Volumes/data/jenkins/workspace/GNU-toolchain/arm-11/src/newlib-cygwin/newlib/libc/stdlib/_mallocr.c:3266 (discriminator 2)
 8008b4c:	4628      	mov	r0, r5
 8008b4e:	bd38      	pop	{r3, r4, r5, pc}
 8008b50:	4602      	mov	r2, r0
/Volumes/data/jenkins/workspace/GNU-toolchain/arm-11/src/newlib-cygwin/newlib/libc/stdlib/_mallocr.c:3263 (discriminator 9)
 8008b52:	2300      	movs	r3, #0
 8008b54:	e9c2 3300 	strd	r3, r3, [r2]
 8008b58:	6093      	str	r3, [r2, #8]
/Volumes/data/jenkins/workspace/GNU-toolchain/arm-11/src/newlib-cygwin/newlib/libc/stdlib/_mallocr.c:3266 (discriminator 9)
 8008b5a:	4628      	mov	r0, r5
 8008b5c:	bd38      	pop	{r3, r4, r5, pc}
/Volumes/data/jenkins/workspace/GNU-toolchain/arm-11/src/newlib-cygwin/newlib/libc/stdlib/_mallocr.c:3263
 8008b5e:	f100 0208 	add.w	r2, r0, #8
 8008b62:	e7f6      	b.n	8008b52 <_calloc_r+0x5a>
/Volumes/data/jenkins/workspace/GNU-toolchain/arm-11/src/newlib-cygwin/newlib/libc/stdlib/_mallocr.c:3215
 8008b64:	f000 f814 	bl	8008b90 <__errno>
 8008b68:	230c      	movs	r3, #12
 8008b6a:	2500      	movs	r5, #0
 8008b6c:	6003      	str	r3, [r0, #0]
/Volumes/data/jenkins/workspace/GNU-toolchain/arm-11/src/newlib-cygwin/newlib/libc/stdlib/_mallocr.c:3216
 8008b6e:	e7e8      	b.n	8008b42 <_calloc_r+0x4a>

08008b70 <malloc>:
malloc():
/Volumes/data/jenkins/workspace/GNU-toolchain/arm-11/src/newlib-cygwin/newlib/libc/stdlib/malloc.c:164
 8008b70:	4b02      	ldr	r3, [pc, #8]	; (8008b7c <malloc+0xc>)
/Volumes/data/jenkins/workspace/GNU-toolchain/arm-11/src/newlib-cygwin/newlib/libc/stdlib/malloc.c:163
 8008b72:	4601      	mov	r1, r0
/Volumes/data/jenkins/workspace/GNU-toolchain/arm-11/src/newlib-cygwin/newlib/libc/stdlib/malloc.c:164
 8008b74:	6818      	ldr	r0, [r3, #0]
 8008b76:	f7ff bb37 	b.w	80081e8 <_malloc_r>
 8008b7a:	bf00      	nop
 8008b7c:	20000178 	.word	0x20000178

08008b80 <free>:
free():
/Volumes/data/jenkins/workspace/GNU-toolchain/arm-11/src/newlib-cygwin/newlib/libc/stdlib/malloc.c:170
 8008b80:	4b02      	ldr	r3, [pc, #8]	; (8008b8c <free+0xc>)
/Volumes/data/jenkins/workspace/GNU-toolchain/arm-11/src/newlib-cygwin/newlib/libc/stdlib/malloc.c:169
 8008b82:	4601      	mov	r1, r0
/Volumes/data/jenkins/workspace/GNU-toolchain/arm-11/src/newlib-cygwin/newlib/libc/stdlib/malloc.c:170
 8008b84:	6818      	ldr	r0, [r3, #0]
 8008b86:	f7ff bea5 	b.w	80088d4 <_free_r>
 8008b8a:	bf00      	nop
 8008b8c:	20000178 	.word	0x20000178

08008b90 <__errno>:
__errno():
/Volumes/data/jenkins/workspace/GNU-toolchain/arm-11/src/newlib-cygwin/newlib/libc/errno/errno.c:17
 8008b90:	4b01      	ldr	r3, [pc, #4]	; (8008b98 <__errno+0x8>)
/Volumes/data/jenkins/workspace/GNU-toolchain/arm-11/src/newlib-cygwin/newlib/libc/errno/errno.c:18
 8008b92:	6818      	ldr	r0, [r3, #0]
 8008b94:	4770      	bx	lr
 8008b96:	bf00      	nop
 8008b98:	20000178 	.word	0x20000178

08008b9c <_sbrk>:
_sbrk():
/Volumes/data/jenkins/workspace/GNU-toolchain/arm-11/src/newlib-cygwin/libgloss/libnosys/sbrk.c:14
 8008b9c:	4a04      	ldr	r2, [pc, #16]	; (8008bb0 <_sbrk+0x14>)
 8008b9e:	4905      	ldr	r1, [pc, #20]	; (8008bb4 <_sbrk+0x18>)
 8008ba0:	6813      	ldr	r3, [r2, #0]
 8008ba2:	2b00      	cmp	r3, #0
 8008ba4:	bf08      	it	eq
 8008ba6:	460b      	moveq	r3, r1
/Volumes/data/jenkins/workspace/GNU-toolchain/arm-11/src/newlib-cygwin/libgloss/libnosys/sbrk.c:18
 8008ba8:	4418      	add	r0, r3
 8008baa:	6010      	str	r0, [r2, #0]
/Volumes/data/jenkins/workspace/GNU-toolchain/arm-11/src/newlib-cygwin/libgloss/libnosys/sbrk.c:21
 8008bac:	4618      	mov	r0, r3
 8008bae:	4770      	bx	lr
 8008bb0:	20003264 	.word	0x20003264
 8008bb4:	10000000 	.word	0x10000000

08008bb8 <_init>:
_init():
 8008bb8:	b5f8      	push	{r3, r4, r5, r6, r7, lr}
 8008bba:	bf00      	nop
 8008bbc:	bcf8      	pop	{r3, r4, r5, r6, r7}
 8008bbe:	bc08      	pop	{r3}
 8008bc0:	469e      	mov	lr, r3
 8008bc2:	4770      	bx	lr

08008bc4 <_fini>:
_fini():
 8008bc4:	b5f8      	push	{r3, r4, r5, r6, r7, lr}
 8008bc6:	bf00      	nop
 8008bc8:	bcf8      	pop	{r3, r4, r5, r6, r7}
 8008bca:	bc08      	pop	{r3}
 8008bcc:	469e      	mov	lr, r3
 8008bce:	4770      	bx	lr
